

Microchip MPLAB XC8 Assembler V2.45 build 20230818022343 
                                                                                               Thu Dec 14 00:18:20 2023

Microchip MPLAB XC8 C Compiler v2.45 (Free license) build 20230818022343 Og1 
     1                           	processor	18F4620
     2                           	fnconf	rparam,??,?,0
     3                           	pagewidth 120
     4                           	opt	flic
     5                           	psect	idataCOMRAM,global,class=CODE,delta=1,noexec
     6                           	psect	idataBANK0,global,class=CODE,delta=1,noexec
     7                           	psect	smallconst,global,reloc=2,class=SMALLCONST,delta=1,noexec
     8                           	psect	cinit,global,reloc=2,class=CODE,delta=1
     9                           	psect	bssCOMRAM,global,class=COMRAM,space=1,delta=1,lowdata,noexec
    10                           	psect	dataCOMRAM,global,class=COMRAM,space=1,delta=1,lowdata,noexec
    11                           	psect	bssBANK0,global,class=BANK0,space=1,delta=1,lowdata,noexec
    12                           	psect	dataBANK0,global,class=BANK0,space=1,delta=1,lowdata,noexec
    13                           	psect	cstackBANK0,global,class=BANK0,space=1,delta=1,lowdata,noexec
    14                           	psect	cstackCOMRAM,global,class=COMRAM,space=1,delta=1,lowdata,noexec
    15                           	psect	text0,global,reloc=2,class=CODE,delta=1
    16                           	psect	text1,global,reloc=2,class=CODE,delta=1
    17                           	psect	text2,global,reloc=2,class=CODE,delta=1
    18                           	psect	text3,global,reloc=2,class=CODE,delta=1
    19                           	psect	text4,global,reloc=2,class=CODE,delta=1
    20                           	psect	text5,global,reloc=2,class=CODE,delta=1
    21                           	psect	text6,global,reloc=2,class=CODE,delta=1,group=3
    22                           	psect	text7,global,reloc=2,class=CODE,delta=1,group=1
    23                           	psect	text8,global,reloc=2,class=CODE,delta=1,group=1
    24                           	psect	text9,global,reloc=2,class=CODE,delta=1,group=3
    25                           	psect	text10,global,reloc=2,class=CODE,delta=1,group=3
    26                           	psect	text11,global,reloc=2,class=CODE,delta=1,group=3
    27                           	psect	text12,global,reloc=2,class=CODE,delta=1,group=2
    28                           	psect	text13,global,reloc=2,class=CODE,delta=1,group=2
    29                           	psect	text14,global,reloc=2,class=CODE,delta=1,group=3
    30                           	psect	text15,global,reloc=2,class=CODE,delta=1
    31                           	psect	text16,global,reloc=2,class=CODE,delta=1
    32                           	psect	text17,global,reloc=2,class=CODE,delta=1
    33                           	psect	text18,global,reloc=2,class=CODE,delta=1
    34                           	psect	text19,global,reloc=2,class=CODE,delta=1
    35                           	psect	text20,global,reloc=2,class=CODE,delta=1
    36                           	psect	text21,global,reloc=2,class=CODE,delta=1
    37                           	psect	text22,global,reloc=2,class=CODE,delta=1
    38                           	psect	text23,global,reloc=2,class=CODE,delta=1,inline
    39                           	psect	text24,global,reloc=2,class=CODE,delta=1,inline
    40                           	psect	text25,global,reloc=2,class=CODE,delta=1,group=2
    41                           	psect	text26,global,reloc=2,class=CODE,delta=1,group=2
    42                           	psect	text27,global,reloc=2,class=CODE,delta=1,group=2
    43                           	psect	text28,global,reloc=2,class=CODE,delta=1,group=2
    44                           	psect	text29,global,reloc=2,class=CODE,delta=1
    45                           	psect	text30,global,reloc=2,class=CODE,delta=1
    46                           	psect	text31,global,reloc=2,class=CODE,delta=1
    47                           	psect	text32,global,reloc=2,class=CODE,delta=1
    48                           	psect	text33,global,reloc=2,class=CODE,delta=1
    49                           	psect	text34,global,reloc=2,class=CODE,delta=1
    50                           	psect	text35,global,reloc=2,class=CODE,delta=1
    51                           	psect	text36,global,reloc=2,class=CODE,delta=1
    52                           	psect	text37,global,reloc=2,class=CODE,delta=1
    53                           	psect	text38,global,reloc=2,class=CODE,delta=1
    54                           	psect	text39,global,reloc=2,class=CODE,delta=1
    55                           	psect	text40,global,reloc=2,class=CODE,delta=1,inline
    56                           	psect	text41,global,reloc=2,class=CODE,delta=1
    57                           	psect	intcode,global,reloc=2,class=CODE,delta=1
    58                           	psect	intcode_body,global,reloc=2,class=CODE,delta=1
    59                           	psect	text43,global,reloc=2,class=CODE,delta=1
    60                           	psect	text44,global,reloc=2,class=CODE,delta=1
    61                           	psect	text45,global,reloc=2,class=CODE,delta=1
    62                           	psect	text46,global,reloc=2,class=CODE,delta=1
    63                           	psect	text47,global,reloc=2,class=CODE,delta=1
    64                           	psect	text48,global,reloc=2,class=CODE,delta=1
    65                           	psect	text49,global,reloc=2,class=CODE,delta=1
    66                           	psect	text50,global,reloc=2,class=CODE,delta=1
    67                           	psect	text51,global,reloc=2,class=CODE,delta=1
    68                           	psect	text52,global,reloc=2,class=CODE,delta=1
    69                           	psect	text53,global,reloc=2,class=CODE,delta=1
    70                           	psect	text54,global,reloc=2,class=CODE,delta=1
    71                           	psect	text55,global,reloc=2,class=CODE,delta=1
    72                           	psect	text56,global,reloc=2,class=CODE,delta=1
    73                           	psect	text57,global,reloc=2,class=CODE,delta=1
    74                           	psect	text58,global,reloc=2,class=CODE,delta=1
    75                           	psect	text59,global,reloc=2,class=CODE,delta=1
    76                           	psect	intsave_regs,global,class=BIGRAM,space=1,delta=1,noexec
    77                           	psect	rparam,global,class=COMRAM,space=1,delta=1,noexec
    78                           	psect	temp,global,ovrld,common,class=COMRAM,space=1,delta=1
    79                           	psect	config,global,abs,ovrld,class=CONFIG,space=4,delta=1,noexec
    80   000000                     
    81                           ; Generated 23/03/2023 GMT
    82                           ; 
    83                           ; Copyright © 2023, Microchip Technology Inc. and its subsidiaries ("Microchip")
    84                           ; All rights reserved.
    85                           ; 
    86                           ; This software is developed by Microchip Technology Inc. and its subsidiaries ("Microch
      +                          ip").
    87                           ; 
    88                           ; Redistribution and use in source and binary forms, with or without modification, are
    89                           ; permitted provided that the following conditions are met:
    90                           ; 
    91                           ;     1. Redistributions of source code must retain the above copyright notice, this lis
      +                          t of
    92                           ;        conditions and the following disclaimer.
    93                           ; 
    94                           ;     2. Redistributions in binary form must reproduce the above copyright notice, this 
      +                          list
    95                           ;        of conditions and the following disclaimer in the documentation and/or other
    96                           ;        materials provided with the distribution. Publication is not required when
    97                           ;        this file is used in an embedded application.
    98                           ; 
    99                           ;     3. Microchip's name may not be used to endorse or promote products derived from th
      +                          is
   100                           ;        software without specific prior written permission.
   101                           ; 
   102                           ; THIS SOFTWARE IS PROVIDED BY MICROCHIP "AS IS" AND ANY EXPRESS OR IMPLIED WARRANTIES,
   103                           ; INCLUDING, BUT NOT LIMITED TO, THE IMPLIED WARRANTIES OF MERCHANTABILITY AND FITNESS F
      +                          OR
   104                           ; PURPOSE ARE DISCLAIMED.  IN NO EVENT SHALL MICROCHIP BE LIABLE FOR ANY DIRECT, INDIREC
      +                          T,
   105                           ; INCIDENTAL, SPECIAL, EXEMPLARY, OR CONSEQUENTIAL DAMAGES (INCLUDING BUT NOT LIMITED TO
   106                           ; PROCUREMENT OF SUBSTITUTE GOODS OR SERVICES; LOSS OF USE, DATA OR PROFITS; OR BUSINESS
   107                           ; INTERRUPTION) HOWSOEVER CAUSED AND ON ANY THEORY OF LIABILITY, WHETHER IN CONTRACT, ST
      +                          RICT
   108                           ; LIABILITY, OR TORT (INCLUDING NEGLIGENCE OR OTHERWISE) ARISING IN ANY WAY OUT OF THE U
      +                          SE OF
   109                           ; THIS SOFTWARE, EVEN IF ADVISED OF THE POSSIBILITY OF SUCH DAMAGE.
   110                           ; 
   111                           ; 
   112                           ; Code-generator required, PIC18F4620 Definitions
   113                           ; 
   114                           ; SFR Addresses
   115   000000                     
   116                           	psect	idataCOMRAM
   117   002F28                     __pidataCOMRAM:
   118                           	callstack 0
   119                           
   120                           ;initializer for MSSP_SPI_Slave_Mode_GPIO_PIN_Configurations@F3130
   121   002F28  68                 	db	104
   122                           
   123                           ;initializer for MSSP_SPI_Slave_Mode_GPIO_PIN_Configurations@F3128
   124   002F29  5A                 	db	90
   125                           
   126                           ;initializer for MSSP_SPI_Slave_Mode_GPIO_PIN_Configurations@F3126
   127   002F2A  62                 	db	98
   128                           
   129                           ;initializer for MSSP_SPI_Slave_Mode_GPIO_PIN_Configurations@F3124
   130   002F2B  2A                 	db	42
   131                           
   132                           ;initializer for MSSP_SPI_Msster_Mode_GPIO_PIN_Configurations@F3119
   133   002F2C  1A                 	db	26
   134                           
   135                           ;initializer for MSSP_SPI_Msster_Mode_GPIO_PIN_Configurations@F3117
   136   002F2D  62                 	db	98
   137                           
   138                           ;initializer for MSSP_SPI_Msster_Mode_GPIO_PIN_Configurations@F3115
   139   002F2E  2A                 	db	42
   140                           
   141                           ;initializer for _RB7_Flag
   142   002F2F  01                 	db	1
   143                           
   144                           ;initializer for _RB6_Flag
   145   002F30  01                 	db	1
   146                           
   147                           ;initializer for _RB5_Flag
   148   002F31  01                 	db	1
   149                           
   150                           ;initializer for _RB4_Flag
   151   002F32  01                 	db	1
   152                           
   153                           ;initializer for _led1
   154   002F33  02                 	db	2
   155                           
   156                           ;initializer for _dc_motor_2
   157   002F34  12                 	db	18
   158   002F35  1A                 	db	26
   159                           
   160                           ;initializer for _dc_motor_1
   161   002F36  02                 	db	2
   162   002F37  0A                 	db	10
   163                           
   164                           	psect	idataBANK0
   165   002DBA                     __pidataBANK0:
   166                           	callstack 0
   167                           
   168                           ;initializer for _port_registers
   169   002DBA  80                 	db	128
   170   002DBB  0F                 	db	15
   171   002DBC  81                 	db	129
   172   002DBD  0F                 	db	15
   173   002DBE  82                 	db	130
   174   002DBF  0F                 	db	15
   175   002DC0  83                 	db	131
   176   002DC1  0F                 	db	15
   177   002DC2  84                 	db	132
   178   002DC3  0F                 	db	15
   179                           
   180                           ;initializer for _lat_registers
   181   002DC4  89                 	db	137
   182   002DC5  0F                 	db	15
   183   002DC6  8A                 	db	138
   184   002DC7  0F                 	db	15
   185   002DC8  8B                 	db	139
   186   002DC9  0F                 	db	15
   187   002DCA  8C                 	db	140
   188   002DCB  0F                 	db	15
   189   002DCC  8D                 	db	141
   190   002DCD  0F                 	db	15
   191                           
   192                           ;initializer for _tris_registers
   193   002DCE  92                 	db	146
   194   002DCF  0F                 	db	15
   195   002DD0  93                 	db	147
   196   002DD1  0F                 	db	15
   197   002DD2  94                 	db	148
   198   002DD3  0F                 	db	15
   199   002DD4  95                 	db	149
   200   002DD5  0F                 	db	15
   201   002DD6  96                 	db	150
   202   002DD7  0F                 	db	15
   203                           
   204                           ;initializer for _keypad_1
   205   002DD8  03                 	db	3
   206   002DD9  0B                 	db	11
   207   002DDA  13                 	db	19
   208   002DDB  1B                 	db	27
   209   002DDC  63                 	db	99
   210   002DDD  6B                 	db	107
   211   002DDE  73                 	db	115
   212   002DDF  7B                 	db	123
   213                           
   214                           ;initializer for _adc_1
   215   002DE0  00                 	db	0
   216   002DE1  00                 	db	0
   217   002DE2  00                 	db	0
   218   002DE3  05                 	db	5
   219   002DE4  05                 	db	5
   220   002DE5  00                 	db	0
   221   002DE6  02                 	db	2
   222                           
   223                           ;initializer for _lcd_1
   224   002DE7  31                 	db	49
   225   002DE8  39                 	db	57
   226   002DE9  22                 	db	34
   227   002DEA  2A                 	db	42
   228   002DEB  32                 	db	50
   229   002DEC  3A                 	db	58
   230                           
   231                           	psect	smallconst
   232   001000                     __psmallconst:
   233                           	callstack 0
   234   001000  00                 	db	0
   235   001001                     _btn_values:
   236                           	callstack 0
   237   001001  37                 	db	55
   238   001002  38                 	db	56
   239   001003  39                 	db	57
   240   001004  2F                 	db	47
   241   001005  34                 	db	52
   242   001006  35                 	db	53
   243   001007  36                 	db	54
   244   001008  2A                 	db	42
   245   001009  31                 	db	49
   246   00100A  32                 	db	50
   247   00100B  33                 	db	51
   248   00100C  2D                 	db	45
   249   00100D  23                 	db	35
   250   00100E  30                 	db	48
   251   00100F  3D                 	db	61
   252   001010  2B                 	db	43
   253   001011                     __end_of_btn_values:
   254                           	callstack 0
   255   000000                     _SPBRGH	set	4016
   256   000000                     _SPBRG	set	4015
   257   000000                     _TXREG	set	4013
   258   000000                     _TXSTAbits	set	4012
   259   000000                     _RCREG	set	4014
   260   000000                     _TMR3L	set	4018
   261   000000                     _TMR3H	set	4019
   262   000000                     _TMR2	set	4044
   263   000000                     _T2CONbits	set	4042
   264   000000                     _TMR1L	set	4046
   265   000000                     _TMR1H	set	4047
   266   000000                     _T1CONbits	set	4045
   267   000000                     _TMR0L	set	4054
   268   000000                     _TMR0H	set	4055
   269   000000                     _T0CONbits	set	4053
   270   000000                     _INTCON2bits	set	4081
   271   000000                     _INTCON3bits	set	4080
   272   000000                     _ADCON1bits	set	4033
   273   000000                     _ADRESL	set	4035
   274   000000                     _ADRESH	set	4036
   275   000000                     _INTCONbits	set	4082
   276   000000                     _TRISD	set	3989
   277   000000                     _TRISC	set	3988
   278   000000                     _TRISB	set	3987
   279   000000                     _TRISE	set	3990
   280   000000                     _TRISCbits	set	3988
   281   000000                     _PORTBbits	set	3969
   282   000000                     _PIE1bits	set	3997
   283   000000                     _ADCON2bits	set	4032
   284   000000                     _ADCON0bits	set	4034
   285   000000                     _PORTE	set	3972
   286   000000                     _PORTD	set	3971
   287   000000                     _PORTC	set	3970
   288   000000                     _PORTB	set	3969
   289   000000                     _PORTA	set	3968
   290   000000                     _LATA	set	3977
   291   000000                     _TRISA	set	3986
   292   000000                     _PIE2bits	set	4000
   293   000000                     _CCP2CONbits	set	4026
   294   000000                     _CCP1CONbits	set	4029
   295   000000                     _PIR1bits	set	3998
   296   000000                     _SSPCON1bits	set	4038
   297   000000                     _PR2	set	4043
   298   000000                     _CCPR1L	set	4030
   299   000000                     _CCPR2L	set	4027
   300   000000                     _RCSTAbits	set	4011
   301   000000                     _T3CONbits	set	4017
   302   000000                     _PIR2bits	set	4001
   303   000000                     _LATE	set	3981
   304   000000                     _LATD	set	3980
   305   000000                     _LATC	set	3979
   306   000000                     _LATB	set	3978
   307   000000                     _SSPBUF	set	4041
   308   000000                     _SSPSTATbits	set	4039
   309   000000                     _BAUDCONbits	set	4024
   310   001011                     STR_5:
   311   001011  41                 	db	65	;'A'
   312   001012  69                 	db	105	;'i'
   313   001013  72                 	db	114	;'r'
   314   001014  20                 	db	32
   315   001015  43                 	db	67	;'C'
   316   001016  6F                 	db	111	;'o'
   317   001017  6E                 	db	110	;'n'
   318   001018  64                 	db	100	;'d'
   319   001019  69                 	db	105	;'i'
   320   00101A  74                 	db	116	;'t'
   321   00101B  69                 	db	105	;'i'
   322   00101C  6F                 	db	111	;'o'
   323   00101D  6E                 	db	110	;'n'
   324   00101E  69                 	db	105	;'i'
   325   00101F  6E                 	db	110	;'n'
   326   001020  67                 	db	103	;'g'
   327   001021  20                 	db	32
   328   001022  4F                 	db	79	;'O'
   329   001023  6E                 	db	110	;'n'
   330   001024  00                 	db	0
   331   001025                     STR_4:
   332   001025  54                 	db	84	;'T'
   333   001026  65                 	db	101	;'e'
   334   001027  6D                 	db	109	;'m'
   335   001028  70                 	db	112	;'p'
   336   001029  31                 	db	49	;'1'
   337   00102A  3A                 	db	58	;':'
   338   00102B  20                 	db	32
   339   00102C  00                 	db	0
   340   00102D                     STR_1:
   341   00102D  25                 	db	37
   342   00102E  69                 	db	105	;'i'
   343   00102F  00                 	db	0
   344   001030  00                 	db	0	; dummy byte at the end
   345   000000                     
   346                           ; #config settings
   347                           
   348                           	psect	cinit
   349   002990                     __pcinit:
   350                           	callstack 0
   351   002990                     start_initialization:
   352                           	callstack 0
   353   002990                     __initialization:
   354                           	callstack 0
   355                           
   356                           ; Initialize objects allocated to BANK0 (51 bytes)
   357                           ; load TBLPTR registers with __pidataBANK0
   358   002990  0EBA               	movlw	low __pidataBANK0
   359   002992  6EF6               	movwf	tblptrl,c
   360   002994  0E2D               	movlw	high __pidataBANK0
   361   002996  6EF7               	movwf	tblptrh,c
   362   002998  0E00               	movlw	low (__pidataBANK0 shr (0+16))
   363   00299A  6EF8               	movwf	tblptru,c
   364   00299C  EE00  F0BB         	lfsr	0,__pdataBANK0
   365   0029A0  EE10 F033          	lfsr	1,51
   366   0029A4                     copy_data0:
   367   0029A4  0009               	tblrd		*+
   368   0029A6  CFF5 FFEE          	movff	tablat,postinc0
   369   0029AA  50E5               	movf	postdec1,w,c
   370   0029AC  50E1               	movf	fsr1l,w,c
   371   0029AE  E1FA               	bnz	copy_data0
   372                           
   373                           ; Initialize objects allocated to COMRAM (16 bytes)
   374                           ; load TBLPTR registers with __pidataCOMRAM
   375   0029B0  0E28               	movlw	low __pidataCOMRAM
   376   0029B2  6EF6               	movwf	tblptrl,c
   377   0029B4  0E2F               	movlw	high __pidataCOMRAM
   378   0029B6  6EF7               	movwf	tblptrh,c
   379   0029B8  0E00               	movlw	low (__pidataCOMRAM shr (0+16))
   380   0029BA  6EF8               	movwf	tblptru,c
   381   0029BC  EE00  F06B         	lfsr	0,__pdataCOMRAM
   382   0029C0  EE10 F010          	lfsr	1,16
   383   0029C4                     copy_data1:
   384   0029C4  0009               	tblrd		*+
   385   0029C6  CFF5 FFEE          	movff	tablat,postinc0
   386   0029CA  50E5               	movf	postdec1,w,c
   387   0029CC  50E1               	movf	fsr1l,w,c
   388   0029CE  E1FA               	bnz	copy_data1
   389                           
   390                           ; Clear objects allocated to BANK0 (59 bytes)
   391   0029D0  EE00  F080         	lfsr	0,__pbssBANK0
   392   0029D4  0E3B               	movlw	59
   393   0029D6                     clear_0:
   394   0029D6  6AEE               	clrf	postinc0,c
   395   0029D8  06E8               	decf	wreg,f,c
   396   0029DA  E1FD               	bnz	clear_0
   397                           
   398                           ; Clear objects allocated to COMRAM (56 bytes)
   399   0029DC  EE00  F001         	lfsr	0,__pbssCOMRAM
   400   0029E0  0E38               	movlw	56
   401   0029E2                     clear_1:
   402   0029E2  6AEE               	clrf	postinc0,c
   403   0029E4  06E8               	decf	wreg,f,c
   404   0029E6  E1FD               	bnz	clear_1
   405   0029E8                     end_of_initialization:
   406                           	callstack 0
   407   0029E8                     __end_of__initialization:
   408                           	callstack 0
   409   0029E8  907B               	bcf	int$flags,0,c	;clear compiler interrupt flag (level 1)
   410   0029EA  927B               	bcf	int$flags,1,c	;clear compiler interrupt flag (level 2)
   411   0029EC  0100               	movlb	0
   412   0029EE  EFCC  F00D         	goto	_main	;jump to C main() function
   413                           
   414                           	psect	bssCOMRAM
   415   000001                     __pbssCOMRAM:
   416                           	callstack 0
   417   000001                     _lm35_res_1_Celsius_mv:
   418                           	callstack 0
   419   000001                     	ds	2
   420   000003                     _timer3_preload:
   421                           	callstack 0
   422   000003                     	ds	2
   423   000005                     _TMR2_InterruptHandler:
   424                           	callstack 0
   425   000005                     	ds	2
   426   000007                     _timer1_preload:
   427                           	callstack 0
   428   000007                     	ds	2
   429   000009                     _TMR1_InterruptHandler:
   430                           	callstack 0
   431   000009                     	ds	2
   432   00000B                     _timer0_preload:
   433                           	callstack 0
   434   00000B                     	ds	2
   435   00000D                     _TMR0_InterruptHandler:
   436                           	callstack 0
   437   00000D                     	ds	2
   438   00000F                     _SPI_InterruptHandler:
   439                           	callstack 0
   440   00000F                     	ds	2
   441   000011                     _RB7_InterruptHandler_LOW:
   442                           	callstack 0
   443   000011                     	ds	2
   444   000013                     _RB7_InterruptHandler_HIGH:
   445                           	callstack 0
   446   000013                     	ds	2
   447   000015                     _RB6_InterruptHandler_LOW:
   448                           	callstack 0
   449   000015                     	ds	2
   450   000017                     _RB6_InterruptHandler_HIGH:
   451                           	callstack 0
   452   000017                     	ds	2
   453   000019                     _RB5_InterruptHandler_LOW:
   454                           	callstack 0
   455   000019                     	ds	2
   456   00001B                     _RB5_InterruptHandler_HIGH:
   457                           	callstack 0
   458   00001B                     	ds	2
   459   00001D                     _RB4_InterruptHandler_LOW:
   460                           	callstack 0
   461   00001D                     	ds	2
   462   00001F                     _RB4_InterruptHandler_HIGH:
   463                           	callstack 0
   464   00001F                     	ds	2
   465   000021                     _INT2_InterruptHandler:
   466                           	callstack 0
   467   000021                     	ds	2
   468   000023                     _INT1_InterruptHandler:
   469                           	callstack 0
   470   000023                     	ds	2
   471   000025                     _INT0_InterruptHandler:
   472                           	callstack 0
   473   000025                     	ds	2
   474   000027                     _CCP2_InterruptHandler:
   475                           	callstack 0
   476   000027                     	ds	2
   477   000029                     _CCP1_InterruptHandler:
   478                           	callstack 0
   479   000029                     	ds	2
   480   00002B                     _ADC_InterruptHandler:
   481                           	callstack 0
   482   00002B                     	ds	2
   483   00002D                     _flags:
   484                           	callstack 0
   485   00002D                     	ds	1
   486   00002E                     _timer2_preload:
   487                           	callstack 0
   488   00002E                     	ds	1
   489   00002F                     relay_turn_off@F3067:
   490                           	callstack 0
   491   00002F                     	ds	1
   492   000030                     relay_turn_on@F3062:
   493                           	callstack 0
   494   000030                     	ds	1
   495   000031                     relay_initialize@F3057:
   496                           	callstack 0
   497   000031                     	ds	1
   498   000032                     led_turn_toggle@F3132:
   499                           	callstack 0
   500   000032                     	ds	1
   501   000033                     led_turn_off@F3127:
   502                           	callstack 0
   503   000033                     	ds	1
   504   000034                     led_turn_on@F3122:
   505                           	callstack 0
   506   000034                     	ds	1
   507   000035                     led_initialize@F3117:
   508                           	callstack 0
   509   000035                     	ds	1
   510   000036                     _lm35_res_1:
   511                           	callstack 0
   512   000036                     	ds	2
   513   000038                     _keypad_value:
   514                           	callstack 0
   515   000038                     	ds	1
   516                           
   517                           	psect	dataCOMRAM
   518   00006B                     __pdataCOMRAM:
   519                           	callstack 0
   520   00006B                     MSSP_SPI_Slave_Mode_GPIO_PIN_Configurations@F3130:
   521                           	callstack 0
   522   00006B                     	ds	1
   523   00006C                     MSSP_SPI_Slave_Mode_GPIO_PIN_Configurations@F3128:
   524                           	callstack 0
   525   00006C                     	ds	1
   526   00006D                     MSSP_SPI_Slave_Mode_GPIO_PIN_Configurations@F3126:
   527                           	callstack 0
   528   00006D                     	ds	1
   529   00006E                     MSSP_SPI_Slave_Mode_GPIO_PIN_Configurations@F3124:
   530                           	callstack 0
   531   00006E                     	ds	1
   532   00006F                     MSSP_SPI_Msster_Mode_GPIO_PIN_Configurations@F3119:
   533                           	callstack 0
   534   00006F                     	ds	1
   535   000070                     MSSP_SPI_Msster_Mode_GPIO_PIN_Configurations@F3117:
   536                           	callstack 0
   537   000070                     	ds	1
   538   000071                     MSSP_SPI_Msster_Mode_GPIO_PIN_Configurations@F3115:
   539                           	callstack 0
   540   000071                     	ds	1
   541   000072                     _RB7_Flag:
   542                           	callstack 0
   543   000072                     	ds	1
   544   000073                     _RB6_Flag:
   545                           	callstack 0
   546   000073                     	ds	1
   547   000074                     _RB5_Flag:
   548                           	callstack 0
   549   000074                     	ds	1
   550   000075                     _RB4_Flag:
   551                           	callstack 0
   552   000075                     	ds	1
   553   000076                     _led1:
   554                           	callstack 0
   555   000076                     	ds	1
   556   000077                     _dc_motor_2:
   557                           	callstack 0
   558   000077                     	ds	2
   559   000079                     _dc_motor_1:
   560                           	callstack 0
   561   000079                     	ds	2
   562                           
   563                           	psect	bssBANK0
   564   000080                     __pbssBANK0:
   565                           	callstack 0
   566   000080                     _dbuf:
   567                           	callstack 0
   568   000080                     	ds	32
   569   0000A0                     	ds	6
   570   0000A6                     _width:
   571                           	callstack 0
   572   0000A6                     	ds	2
   573   0000A8                     _prec:
   574                           	callstack 0
   575   0000A8                     	ds	2
   576   0000AA                     _EUSART_OverrunErrorHandler:
   577                           	callstack 0
   578   0000AA                     	ds	2
   579   0000AC                     _EUSART_FramingErrorHandler:
   580                           	callstack 0
   581   0000AC                     	ds	2
   582   0000AE                     _EUSART_RxInterruptHandler:
   583                           	callstack 0
   584   0000AE                     	ds	2
   585   0000B0                     _EUSART_TxInterruptHandler:
   586                           	callstack 0
   587   0000B0                     	ds	2
   588   0000B2                     _TMR3_InterruptHandler:
   589                           	callstack 0
   590   0000B2                     	ds	2
   591   0000B4                     _lm35_res_1_txt:
   592                           	callstack 0
   593   0000B4                     	ds	7
   594                           
   595                           	psect	dataBANK0
   596   0000BB                     __pdataBANK0:
   597                           	callstack 0
   598   0000BB                     _port_registers:
   599                           	callstack 0
   600   0000BB                     	ds	10
   601   0000C5                     _lat_registers:
   602                           	callstack 0
   603   0000C5                     	ds	10
   604   0000CF                     _tris_registers:
   605                           	callstack 0
   606   0000CF                     	ds	10
   607   0000D9                     _keypad_1:
   608                           	callstack 0
   609   0000D9                     	ds	8
   610   0000E1                     _adc_1:
   611                           	callstack 0
   612   0000E1                     	ds	7
   613   0000E8                     _lcd_1:
   614                           	callstack 0
   615   0000E8                     	ds	6
   616                           
   617                           	psect	cstackBANK0
   618   0000EE                     __pcstackBANK0:
   619                           	callstack 0
   620   0000EE                     convert_uint16_to_string@Temp_String:
   621                           	callstack 0
   622                           
   623                           ; 6 bytes @ 0x0
   624   0000EE                     	ds	6
   625   0000F4                     convert_uint16_to_string@ret:
   626                           	callstack 0
   627                           
   628                           ; 1 bytes @ 0x6
   629   0000F4                     	ds	1
   630   0000F5                     convert_uint16_to_string@DataCounter:
   631                           	callstack 0
   632                           
   633                           ; 1 bytes @ 0x7
   634   0000F5                     	ds	1
   635                           
   636                           	psect	cstackCOMRAM
   637   000039                     __pcstackCOMRAM:
   638                           	callstack 0
   639   000039                     RB4_ISR@RB4_Source:
   640                           	callstack 0
   641   000039                     RB5_ISR@RB5_Source:
   642                           	callstack 0
   643   000039                     RB6_ISR@RB6_Source:
   644                           	callstack 0
   645   000039                     RB7_ISR@RB7_Source:
   646                           	callstack 0
   647   000039                     
   648                           ; 1 bytes @ 0x0
   649   000039                     	ds	1
   650   00003A                     ??_adc_input_channel_port_configure:
   651   00003A                     ?___awdiv:
   652                           	callstack 0
   653   00003A                     ?___awmod:
   654                           	callstack 0
   655   00003A                     ?___lwdiv:
   656                           	callstack 0
   657   00003A                     ?___xxtofl:
   658                           	callstack 0
   659   00003A                     ADC_StartConversion@_adc:
   660                           	callstack 0
   661   00003A                     ADC_GetConversionResult@_adc:
   662                           	callstack 0
   663   00003A                     select_result_format@_adc:
   664                           	callstack 0
   665   00003A                     configure_voltage_reference@_adc:
   666                           	callstack 0
   667   00003A                     gpio_pin_direction_initialize@_pin_config:
   668                           	callstack 0
   669   00003A                     gpio_pin_write_logic@_pin_config:
   670                           	callstack 0
   671   00003A                     gpio_pin_read_logic@_pin_config:
   672                           	callstack 0
   673   00003A                     memset@dest:
   674                           	callstack 0
   675   00003A                     ___awdiv@dividend:
   676                           	callstack 0
   677   00003A                     ___awmod@dividend:
   678                           	callstack 0
   679   00003A                     ___lwdiv@dividend:
   680                           	callstack 0
   681   00003A                     fputc@c:
   682                           	callstack 0
   683   00003A                     ___xxtofl@val:
   684                           	callstack 0
   685                           
   686                           ; 4 bytes @ 0x1
   687   00003A                     	ds	1
   688   00003B                     ??_gpio_pin_direction_initialize:
   689   00003B                     ADC_StartConversion@ret:
   690                           	callstack 0
   691   00003B                     ADC_GetConversionResult@conversion_result:
   692                           	callstack 0
   693   00003B                     gpio_pin_write_logic@logic:
   694                           	callstack 0
   695   00003B                     gpio_pin_read_logic@logic:
   696                           	callstack 0
   697   00003B                     memset@c:
   698                           	callstack 0
   699                           
   700                           ; 2 bytes @ 0x2
   701   00003B                     	ds	1
   702   00003C                     ??_gpio_pin_write_logic:
   703   00003C                     ??_gpio_pin_read_logic:
   704   00003C                     ??_ADC_GetConversionResult:
   705   00003C                     adc_input_channel_port_configure@channel:
   706                           	callstack 0
   707   00003C                     fputc@fp:
   708                           	callstack 0
   709   00003C                     ___awdiv@divisor:
   710                           	callstack 0
   711   00003C                     ___awmod@divisor:
   712                           	callstack 0
   713   00003C                     ___lwdiv@divisor:
   714                           	callstack 0
   715                           
   716                           ; 2 bytes @ 0x3
   717   00003C                     	ds	1
   718   00003D                     ??_fputc:
   719   00003D                     ADC_Init@_adc:
   720                           	callstack 0
   721   00003D                     ADC_SelectChannel@_adc:
   722                           	callstack 0
   723   00003D                     memset@n:
   724                           	callstack 0
   725                           
   726                           ; 2 bytes @ 0x4
   727   00003D                     	ds	1
   728   00003E                     ??_ADC_Init:
   729   00003E                     ??___xxtofl:
   730   00003E                     ADC_SelectChannel@channel:
   731                           	callstack 0
   732   00003E                     ___awdiv@counter:
   733                           	callstack 0
   734   00003E                     ___awmod@counter:
   735                           	callstack 0
   736   00003E                     ___lwdiv@quotient:
   737                           	callstack 0
   738                           
   739                           ; 2 bytes @ 0x5
   740   00003E                     	ds	1
   741   00003F                     ??_ADC_SelectChannel:
   742   00003F                     ADC_Init@ret:
   743                           	callstack 0
   744   00003F                     ADC_GetConversionResult@ret:
   745                           	callstack 0
   746   00003F                     ___awdiv@sign:
   747                           	callstack 0
   748   00003F                     ___awmod@sign:
   749                           	callstack 0
   750   00003F                     memset@p:
   751                           	callstack 0
   752                           
   753                           ; 1 bytes @ 0x6
   754   00003F                     	ds	1
   755   000040                     ?_abs:
   756                           	callstack 0
   757   000040                     ADC_SelectChannel@ret:
   758                           	callstack 0
   759   000040                     gpio_pin_direction_initialize@ret:
   760                           	callstack 0
   761   000040                     gpio_pin_read_logic@ret:
   762                           	callstack 0
   763   000040                     ___lwdiv@counter:
   764                           	callstack 0
   765   000040                     ___awdiv@quotient:
   766                           	callstack 0
   767   000040                     abs@a:
   768                           	callstack 0
   769                           
   770                           ; 2 bytes @ 0x7
   771   000040                     	ds	1
   772   000041                     ADC_GetConversion_Blocking@_adc:
   773                           	callstack 0
   774   000041                     gpio_pin_write_logic@ret:
   775                           	callstack 0
   776                           
   777                           ; 1 bytes @ 0x8
   778   000041                     	ds	1
   779   000042                     ??_abs:
   780   000042                     lcd_send_4bits@lcd:
   781                           	callstack 0
   782   000042                     lcd_4bit_send_enable_signal@lcd:
   783                           	callstack 0
   784   000042                     dc_motor_move_right@_dc_motor:
   785                           	callstack 0
   786   000042                     dc_motor_stop@_dc_motor:
   787                           	callstack 0
   788   000042                     keypad_get_value@_keypad_obj:
   789                           	callstack 0
   790   000042                     ADC_GetConversion_Blocking@channel:
   791                           	callstack 0
   792   000042                     gpio_pin_initialize@_pin_config:
   793                           	callstack 0
   794   000042                     ___xxtofl@sign:
   795                           	callstack 0
   796                           
   797                           ; 1 bytes @ 0x9
   798   000042                     	ds	1
   799   000043                     ??_gpio_pin_initialize:
   800   000043                     lcd_send_4bits@_data_command:
   801                           	callstack 0
   802   000043                     lcd_4bit_send_enable_signal@ret:
   803                           	callstack 0
   804   000043                     dc_motor_move_right@ret:
   805                           	callstack 0
   806   000043                     dc_motor_stop@ret:
   807                           	callstack 0
   808   000043                     keypad_get_value@value:
   809                           	callstack 0
   810   000043                     ADC_GetConversion_Blocking@conversion_result:
   811                           	callstack 0
   812   000043                     ___xxtofl@exp:
   813                           	callstack 0
   814                           
   815                           ; 1 bytes @ 0xA
   816   000043                     	ds	1
   817   000044                     ??_keypad_get_value:
   818   000044                     lcd_send_4bits@ret:
   819                           	callstack 0
   820   000044                     ADC_GetConversion_Blocking@ret:
   821                           	callstack 0
   822   000044                     gpio_pin_initialize@ret:
   823                           	callstack 0
   824   000044                     vfpfcnvrt@fp:
   825                           	callstack 0
   826   000044                     ___xxtofl@arg:
   827                           	callstack 0
   828                           
   829                           ; 4 bytes @ 0xB
   830   000044                     	ds	1
   831   000045                     lcd_4bit_send_command@lcd:
   832                           	callstack 0
   833   000045                     lcd_4bit_send_char_data@lcd:
   834                           	callstack 0
   835   000045                     dc_motor_initialize@_dc_motor:
   836                           	callstack 0
   837   000045                     keypad_initialize@_keypad_obj:
   838                           	callstack 0
   839   000045                     keypad_get_value@ret:
   840                           	callstack 0
   841   000045                     vfpfcnvrt@fmt:
   842                           	callstack 0
   843                           
   844                           ; 1 bytes @ 0xC
   845   000045                     	ds	1
   846   000046                     lcd_4bit_send_command@command:
   847                           	callstack 0
   848   000046                     lcd_4bit_send_char_data@data:
   849                           	callstack 0
   850   000046                     dc_motor_initialize@ret:
   851                           	callstack 0
   852   000046                     keypad_initialize@ret:
   853                           	callstack 0
   854   000046                     keypad_get_value@column_logic:
   855                           	callstack 0
   856   000046                     vfpfcnvrt@ap:
   857                           	callstack 0
   858                           
   859                           ; 1 bytes @ 0xD
   860   000046                     	ds	1
   861   000047                     ??_vfpfcnvrt:
   862   000047                     lcd_4bit_send_command@ret:
   863                           	callstack 0
   864   000047                     keypad_initialize@rows_counter:
   865                           	callstack 0
   866   000047                     keypad_get_value@l_counter:
   867                           	callstack 0
   868                           
   869                           ; 1 bytes @ 0xE
   870   000047                     	ds	1
   871   000048                     ?___flmul:
   872                           	callstack 0
   873   000048                     lcd_4bit_intialize@lcd:
   874                           	callstack 0
   875   000048                     lcd_4bit_set_cursor@lcd:
   876                           	callstack 0
   877   000048                     keypad_initialize@columns_counter:
   878                           	callstack 0
   879   000048                     keypad_get_value@l_rows_counter:
   880                           	callstack 0
   881   000048                     vfpfcnvrt@done:
   882                           	callstack 0
   883   000048                     ___flmul@b:
   884                           	callstack 0
   885                           
   886                           ; 4 bytes @ 0xF
   887   000048                     	ds	1
   888   000049                     ??_lcd_4bit_intialize:
   889   000049                     lcd_4bit_set_cursor@row:
   890                           	callstack 0
   891   000049                     keypad_get_value@l_columns_counter:
   892                           	callstack 0
   893   000049                     vfpfcnvrt@cp:
   894                           	callstack 0
   895                           
   896                           ; 1 bytes @ 0x10
   897   000049                     	ds	1
   898   00004A                     lcd_4bit_intialize@l_data_pins_counter:
   899                           	callstack 0
   900   00004A                     lcd_4bit_set_cursor@coulmn:
   901                           	callstack 0
   902   00004A                     vfpfcnvrt@convarg:
   903                           	callstack 0
   904                           
   905                           ; 4 bytes @ 0x11
   906   00004A                     	ds	1
   907   00004B                     ??_lcd_4bit_set_cursor:
   908   00004B                     lcd_4bit_intialize@ret:
   909                           	callstack 0
   910                           
   911                           ; 1 bytes @ 0x12
   912   00004B                     	ds	1
   913   00004C                     ___flmul@a:
   914                           	callstack 0
   915                           
   916                           ; 4 bytes @ 0x13
   917   00004C                     	ds	1
   918   00004D                     lcd_4bit_set_cursor@ret:
   919                           	callstack 0
   920                           
   921                           ; 1 bytes @ 0x14
   922   00004D                     	ds	1
   923   00004E                     lcd_4bit_send_string_pos@lcd:
   924                           	callstack 0
   925   00004E                     vfpfcnvrt@c:
   926                           	callstack 0
   927                           
   928                           ; 1 bytes @ 0x15
   929   00004E                     	ds	1
   930   00004F                     ?_vfprintf:
   931                           	callstack 0
   932   00004F                     lcd_4bit_send_string_pos@row:
   933                           	callstack 0
   934   00004F                     vfprintf@fp:
   935                           	callstack 0
   936                           
   937                           ; 1 bytes @ 0x16
   938   00004F                     	ds	1
   939   000050                     ??___flmul:
   940   000050                     lcd_4bit_send_string_pos@column:
   941                           	callstack 0
   942   000050                     vfprintf@fmt:
   943                           	callstack 0
   944                           
   945                           ; 1 bytes @ 0x17
   946   000050                     	ds	1
   947   000051                     vfprintf@ap:
   948                           	callstack 0
   949   000051                     lcd_4bit_send_string_pos@str:
   950                           	callstack 0
   951                           
   952                           ; 2 bytes @ 0x18
   953   000051                     	ds	1
   954   000052                     vfprintf@cfmt:
   955                           	callstack 0
   956                           
   957                           ; 1 bytes @ 0x19
   958   000052                     	ds	1
   959   000053                     ?_sprintf:
   960                           	callstack 0
   961   000053                     lcd_4bit_send_string_pos@ret:
   962                           	callstack 0
   963   000053                     sprintf@s:
   964                           	callstack 0
   965                           
   966                           ; 1 bytes @ 0x1A
   967   000053                     	ds	1
   968   000054                     ??_Air_Conditioning_On:
   969   000054                     ___flmul@sign:
   970                           	callstack 0
   971   000054                     sprintf@fmt:
   972                           	callstack 0
   973                           
   974                           ; 1 bytes @ 0x1B
   975   000054                     	ds	1
   976   000055                     ___flmul@grs:
   977                           	callstack 0
   978                           
   979                           ; 4 bytes @ 0x1C
   980   000055                     	ds	2
   981   000057                     sprintf@ap:
   982                           	callstack 0
   983                           
   984                           ; 1 bytes @ 0x1E
   985   000057                     	ds	1
   986   000058                     sprintf@f:
   987                           	callstack 0
   988                           
   989                           ; 12 bytes @ 0x1F
   990   000058                     	ds	1
   991   000059                     ___flmul@aexp:
   992                           	callstack 0
   993                           
   994                           ; 1 bytes @ 0x20
   995   000059                     	ds	1
   996   00005A                     ___flmul@bexp:
   997                           	callstack 0
   998                           
   999                           ; 1 bytes @ 0x21
  1000   00005A                     	ds	1
  1001   00005B                     ___flmul@prod:
  1002                           	callstack 0
  1003                           
  1004                           ; 4 bytes @ 0x22
  1005   00005B                     	ds	4
  1006   00005F                     ___flmul@temp:
  1007                           	callstack 0
  1008                           
  1009                           ; 2 bytes @ 0x26
  1010   00005F                     	ds	2
  1011   000061                     ?___fltol:
  1012                           	callstack 0
  1013   000061                     ___fltol@f1:
  1014                           	callstack 0
  1015                           
  1016                           ; 4 bytes @ 0x28
  1017   000061                     	ds	3
  1018   000064                     convert_uint16_to_string@value:
  1019                           	callstack 0
  1020                           
  1021                           ; 2 bytes @ 0x2B
  1022   000064                     	ds	1
  1023   000065                     ??___fltol:
  1024                           
  1025                           ; 1 bytes @ 0x2C
  1026   000065                     	ds	1
  1027   000066                     convert_uint16_to_string@str:
  1028                           	callstack 0
  1029                           
  1030                           ; 1 bytes @ 0x2D
  1031   000066                     	ds	1
  1032   000067                     
  1033                           ; 1 bytes @ 0x2E
  1034   000067                     	ds	2
  1035   000069                     ___fltol@sign1:
  1036                           	callstack 0
  1037                           
  1038                           ; 1 bytes @ 0x30
  1039   000069                     	ds	1
  1040   00006A                     ___fltol@exp1:
  1041                           	callstack 0
  1042                           
  1043                           ; 1 bytes @ 0x31
  1044   00006A                     	ds	1
  1045   00006B                     
  1046                           ; 1 bytes @ 0x32
  1047 ;;
  1048 ;;Main: autosize = 0, tempsize = 0, incstack = 0, save=0
  1049 ;;
  1050 ;; *************** function _main *****************
  1051 ;; Defined at:
  1052 ;;		line 18 in file "app1.c"
  1053 ;; Parameters:    Size  Location     Type
  1054 ;;		None
  1055 ;; Auto vars:     Size  Location     Type
  1056 ;;  ret             1    0        unsigned char 
  1057 ;; Return value:  Size  Location     Type
  1058 ;;                  2  1553[None  ] int 
  1059 ;; Registers used:
  1060 ;;		wreg, fsr0l, fsr0h, fsr1l, fsr1h, fsr2l, fsr2h, status,2, status,0, tblptrl, tblptrh, tblptru, prodl, prodh, cstack
  1061 ;; Tracked objects:
  1062 ;;		On entry : 0/0
  1063 ;;		On exit  : 0/0
  1064 ;;		Unchanged: 0/0
  1065 ;; Data sizes:     COMRAM   BANK0   BANK1   BANK2   BANK3   BANK4   BANK5   BANK6   BANK7   BANK8   BANK9  BANK10  BANK1
      +1  BANK12  BANK13  BANK14  BANK15
  1066 ;;      Params:         0       0       0       0       0       0       0       0       0       0       0       0       
      +0       0       0       0       0
  1067 ;;      Locals:         0       0       0       0       0       0       0       0       0       0       0       0       
      +0       0       0       0       0
  1068 ;;      Temps:          0       0       0       0       0       0       0       0       0       0       0       0       
      +0       0       0       0       0
  1069 ;;      Totals:         0       0       0       0       0       0       0       0       0       0       0       0       
      +0       0       0       0       0
  1070 ;;Total ram usage:        0 bytes
  1071 ;; Hardware stack levels required when called: 8
  1072 ;; This function calls:
  1073 ;;		_ADC_GetConversion_Blocking
  1074 ;;		_Air_Conditioning_On
  1075 ;;		___flmul
  1076 ;;		___fltol
  1077 ;;		___lwdiv
  1078 ;;		___xxtofl
  1079 ;;		_application_intialize
  1080 ;;		_convert_uint16_to_string
  1081 ;;		_dc_motor_move_right
  1082 ;;		_dc_motor_stop
  1083 ;;		_keypad_get_value
  1084 ;;		_lcd_4bit_send_string_pos
  1085 ;; This function is called by:
  1086 ;;		Startup code after reset
  1087 ;; This function uses a non-reentrant model
  1088 ;;
  1089                           
  1090                           	psect	text0
  1091   001B98                     __ptext0:
  1092                           	callstack 0
  1093   001B98                     _main:
  1094                           	callstack 23
  1095   001B98                     
  1096                           ;app1.c: 20:     application_intialize();
  1097   001B98  ECB2  F017         	call	_application_intialize	;wreg free
  1098   001B9C                     l7507:
  1099   001B9C  0ED9               	movlw	low _keypad_1
  1100   001B9E  6E42               	movwf	keypad_get_value@_keypad_obj^0,c
  1101   001BA0  0E38               	movlw	low _keypad_value
  1102   001BA2  6E43               	movwf	keypad_get_value@value^0,c
  1103   001BA4  EC0B  F010         	call	_keypad_get_value	;wreg free
  1104   001BA8                     
  1105                           ;app1.c: 25:         if('#'==keypad_value)
  1106   001BA8  0E23               	movlw	35
  1107   001BAA  1838               	xorwf	_keypad_value^0,w,c
  1108   001BAC  A4D8               	btfss	status,2,c
  1109   001BAE  EFDB  F00D         	goto	u6881
  1110   001BB2  EFDD  F00D         	goto	u6880
  1111   001BB6                     u6881:
  1112   001BB6  EFDF  F00D         	goto	l7513
  1113   001BBA                     u6880:
  1114   001BBA                     
  1115                           ;app1.c: 26:             Air_Conditioning_On();
  1116   001BBA  EC35  F016         	call	_Air_Conditioning_On	;wreg free
  1117   001BBE                     l7513:
  1118   001BBE  0EE1               	movlw	low _adc_1
  1119   001BC0  6E41               	movwf	ADC_GetConversion_Blocking@_adc^0,c
  1120   001BC2  0E00               	movlw	0
  1121   001BC4  6E42               	movwf	ADC_GetConversion_Blocking@channel^0,c
  1122   001BC6  0E36               	movlw	low _lm35_res_1
  1123   001BC8  6E43               	movwf	ADC_GetConversion_Blocking@conversion_result^0,c
  1124   001BCA  ECF9  F014         	call	_ADC_GetConversion_Blocking	;wreg free
  1125   001BCE                     
  1126                           ;app1.c: 28:         lm35_res_1_Celsius_mv = lm35_res_1 * 4.88f;
  1127   001BCE  0EF6               	movlw	246
  1128   001BD0  6E4C               	movwf	___flmul@a^0,c
  1129   001BD2  0E28               	movlw	40
  1130   001BD4  6E4D               	movwf	(___flmul@a+1)^0,c
  1131   001BD6  0E9C               	movlw	156
  1132   001BD8  6E4E               	movwf	(___flmul@a+2)^0,c
  1133   001BDA  0E40               	movlw	64
  1134   001BDC  6E4F               	movwf	(___flmul@a+3)^0,c
  1135   001BDE  C036  F03A         	movff	_lm35_res_1,___xxtofl@val
  1136   001BE2  C037  F03B         	movff	_lm35_res_1+1,___xxtofl@val+1
  1137   001BE6  6A3C               	clrf	(___xxtofl@val+2)^0,c
  1138   001BE8  6A3D               	clrf	(___xxtofl@val+3)^0,c
  1139   001BEA  0E00               	movlw	0
  1140   001BEC  ECF2  F00C         	call	___xxtofl
  1141   001BF0  C03A  F048         	movff	?___xxtofl,___flmul@b
  1142   001BF4  C03B  F049         	movff	?___xxtofl+1,___flmul@b+1
  1143   001BF8  C03C  F04A         	movff	?___xxtofl+2,___flmul@b+2
  1144   001BFC  C03D  F04B         	movff	?___xxtofl+3,___flmul@b+3
  1145   001C00  EC19  F008         	call	___flmul	;wreg free
  1146   001C04  C048  F061         	movff	?___flmul,___fltol@f1
  1147   001C08  C049  F062         	movff	?___flmul+1,___fltol@f1+1
  1148   001C0C  C04A  F063         	movff	?___flmul+2,___fltol@f1+2
  1149   001C10  C04B  F064         	movff	?___flmul+3,___fltol@f1+3
  1150   001C14  EC88  F00F         	call	___fltol	;wreg free
  1151   001C18  C061  F001         	movff	?___fltol,_lm35_res_1_Celsius_mv
  1152   001C1C  C062  F002         	movff	?___fltol+1,_lm35_res_1_Celsius_mv+1
  1153   001C20                     
  1154                           ;app1.c: 29:         lm35_res_1_Celsius_mv /= 10;
  1155   001C20  C001  F03A         	movff	_lm35_res_1_Celsius_mv,___lwdiv@dividend
  1156   001C24  C002  F03B         	movff	_lm35_res_1_Celsius_mv+1,___lwdiv@dividend+1
  1157   001C28  0E00               	movlw	0
  1158   001C2A  6E3D               	movwf	(___lwdiv@divisor+1)^0,c
  1159   001C2C  0E0A               	movlw	10
  1160   001C2E  6E3C               	movwf	___lwdiv@divisor^0,c
  1161   001C30  EC5A  F014         	call	___lwdiv	;wreg free
  1162   001C34  C03A  F001         	movff	?___lwdiv,_lm35_res_1_Celsius_mv
  1163   001C38  C03B  F002         	movff	?___lwdiv+1,_lm35_res_1_Celsius_mv+1
  1164   001C3C  C001  F064         	movff	_lm35_res_1_Celsius_mv,convert_uint16_to_string@value
  1165   001C40  C002  F065         	movff	_lm35_res_1_Celsius_mv+1,convert_uint16_to_string@value+1
  1166   001C44  0EB4               	movlw	low _lm35_res_1_txt
  1167   001C46  6E66               	movwf	convert_uint16_to_string@str^0,c
  1168   001C48  EC74  F013         	call	_convert_uint16_to_string	;wreg free
  1169   001C4C  0EE8               	movlw	low _lcd_1
  1170   001C4E  6E4E               	movwf	lcd_4bit_send_string_pos@lcd^0,c
  1171   001C50  0E02               	movlw	2
  1172   001C52  6E4F               	movwf	lcd_4bit_send_string_pos@row^0,c
  1173   001C54  0E01               	movlw	1
  1174   001C56  6E50               	movwf	lcd_4bit_send_string_pos@column^0,c
  1175   001C58  0E25               	movlw	low STR_4
  1176   001C5A  6E51               	movwf	lcd_4bit_send_string_pos@str^0,c
  1177   001C5C  5051               	movf	lcd_4bit_send_string_pos@str^0,w,c
  1178   001C5E  A4D8               	btfss	status,2,c
  1179   001C60  0E10               	movlw	high __smallconst
  1180   001C62  6E52               	movwf	(lcd_4bit_send_string_pos@str+1)^0,c
  1181   001C64  EC0F  F014         	call	_lcd_4bit_send_string_pos	;wreg free
  1182   001C68  0EE8               	movlw	low _lcd_1
  1183   001C6A  6E4E               	movwf	lcd_4bit_send_string_pos@lcd^0,c
  1184   001C6C  0E02               	movlw	2
  1185   001C6E  6E4F               	movwf	lcd_4bit_send_string_pos@row^0,c
  1186   001C70  0E08               	movlw	8
  1187   001C72  6E50               	movwf	lcd_4bit_send_string_pos@column^0,c
  1188   001C74  0EB4               	movlw	low _lm35_res_1_txt
  1189   001C76  6E51               	movwf	lcd_4bit_send_string_pos@str^0,c
  1190   001C78  6A52               	clrf	(lcd_4bit_send_string_pos@str+1)^0,c
  1191   001C7A  EC0F  F014         	call	_lcd_4bit_send_string_pos	;wreg free
  1192   001C7E                     
  1193                           ;app1.c: 33:         if(lm35_res_1_Celsius_mv > 20){
  1194   001C7E  5002               	movf	(_lm35_res_1_Celsius_mv+1)^0,w,c
  1195   001C80  E109               	bnz	u6890
  1196   001C82  0E15               	movlw	21
  1197   001C84  5C01               	subwf	_lm35_res_1_Celsius_mv^0,w,c
  1198   001C86  A0D8               	btfss	status,0,c
  1199   001C88  EF48  F00E         	goto	u6891
  1200   001C8C  EF4A  F00E         	goto	u6890
  1201   001C90                     u6891:
  1202   001C90  EF50  F00E         	goto	l7529
  1203   001C94                     u6890:
  1204   001C94  0E79               	movlw	low _dc_motor_1
  1205   001C96  6E42               	movwf	dc_motor_move_right@_dc_motor^0,c
  1206   001C98  EC71  F016         	call	_dc_motor_move_right	;wreg free
  1207                           
  1208                           ;app1.c: 35:         }
  1209   001C9C  EF54  F00E         	goto	l7531
  1210   001CA0                     l7529:
  1211   001CA0  0E79               	movlw	low _dc_motor_1
  1212   001CA2  6E42               	movwf	dc_motor_stop@_dc_motor^0,c
  1213   001CA4  EC55  F016         	call	_dc_motor_stop	;wreg free
  1214   001CA8                     l7531:
  1215                           
  1216                           ;app1.c: 39:         if(lm35_res_1_Celsius_mv > 25){
  1217   001CA8  5002               	movf	(_lm35_res_1_Celsius_mv+1)^0,w,c
  1218   001CAA  E109               	bnz	u6900
  1219   001CAC  0E1A               	movlw	26
  1220   001CAE  5C01               	subwf	_lm35_res_1_Celsius_mv^0,w,c
  1221   001CB0  A0D8               	btfss	status,0,c
  1222   001CB2  EF5D  F00E         	goto	u6901
  1223   001CB6  EF5F  F00E         	goto	u6900
  1224   001CBA                     u6901:
  1225   001CBA  EF65  F00E         	goto	l7535
  1226   001CBE                     u6900:
  1227   001CBE  0E77               	movlw	low _dc_motor_2
  1228   001CC0  6E42               	movwf	dc_motor_move_right@_dc_motor^0,c
  1229   001CC2  EC71  F016         	call	_dc_motor_move_right	;wreg free
  1230                           
  1231                           ;app1.c: 41:         }
  1232   001CC6  EFCE  F00D         	goto	l7507
  1233   001CCA                     l7535:
  1234   001CCA  0E77               	movlw	low _dc_motor_2
  1235   001CCC  6E42               	movwf	dc_motor_stop@_dc_motor^0,c
  1236   001CCE  EC55  F016         	call	_dc_motor_stop	;wreg free
  1237   001CD2  EFCE  F00D         	goto	l7507
  1238   001CD6  EF07  F000         	goto	start
  1239   001CDA                     __end_of_main:
  1240                           	callstack 0
  1241                           
  1242 ;; *************** function _keypad_get_value *****************
  1243 ;; Defined at:
  1244 ;;		line 50 in file "ECU_Layer/KeyPad/ecu_keypad.c"
  1245 ;; Parameters:    Size  Location     Type
  1246 ;;  _keypad_obj     1    9[COMRAM] PTR const struct .
  1247 ;;		 -> keypad_1(8), 
  1248 ;;  value           1   10[COMRAM] PTR unsigned char 
  1249 ;;		 -> keypad_value(1), 
  1250 ;; Auto vars:     Size  Location     Type
  1251 ;;  l_columns_co    1   16[COMRAM] unsigned char 
  1252 ;;  l_rows_count    1   15[COMRAM] unsigned char 
  1253 ;;  l_counter       1   14[COMRAM] unsigned char 
  1254 ;;  column_logic    1   13[COMRAM] unsigned char 
  1255 ;;  ret             1   12[COMRAM] unsigned char 
  1256 ;; Return value:  Size  Location     Type
  1257 ;;                  1    wreg      unsigned char 
  1258 ;; Registers used:
  1259 ;;		wreg, fsr1l, fsr1h, fsr2l, fsr2h, status,2, status,0, tblptrl, tblptrh, tblptru, prodl, prodh, cstack
  1260 ;; Tracked objects:
  1261 ;;		On entry : 0/0
  1262 ;;		On exit  : 0/0
  1263 ;;		Unchanged: 0/0
  1264 ;; Data sizes:     COMRAM   BANK0   BANK1   BANK2   BANK3   BANK4   BANK5   BANK6   BANK7   BANK8   BANK9  BANK10  BANK1
      +1  BANK12  BANK13  BANK14  BANK15
  1265 ;;      Params:         2       0       0       0       0       0       0       0       0       0       0       0       
      +0       0       0       0       0
  1266 ;;      Locals:         5       0       0       0       0       0       0       0       0       0       0       0       
      +0       0       0       0       0
  1267 ;;      Temps:          1       0       0       0       0       0       0       0       0       0       0       0       
      +0       0       0       0       0
  1268 ;;      Totals:         8       0       0       0       0       0       0       0       0       0       0       0       
      +0       0       0       0       0
  1269 ;;Total ram usage:        8 bytes
  1270 ;; Hardware stack levels used: 1
  1271 ;; Hardware stack levels required when called: 3
  1272 ;; This function calls:
  1273 ;;		_gpio_pin_read_logic
  1274 ;;		_gpio_pin_write_logic
  1275 ;; This function is called by:
  1276 ;;		_main
  1277 ;; This function uses a non-reentrant model
  1278 ;;
  1279                           
  1280                           	psect	text1
  1281   002016                     __ptext1:
  1282                           	callstack 0
  1283   002016                     _keypad_get_value:
  1284                           	callstack 27
  1285   002016                     
  1286                           ;ECU_Layer/KeyPad/ecu_keypad.c: 52:     uint8 l_rows_counter = 0, l_columns_counter = 0,
      +                           l_counter = 0;
  1287   002016  0E00               	movlw	0
  1288   002018  6E48               	movwf	keypad_get_value@l_rows_counter^0,c
  1289   00201A  0E00               	movlw	0
  1290   00201C  6E49               	movwf	keypad_get_value@l_columns_counter^0,c
  1291   00201E  0E00               	movlw	0
  1292   002020  6E47               	movwf	keypad_get_value@l_counter^0,c
  1293                           
  1294                           ;ECU_Layer/KeyPad/ecu_keypad.c: 53:     uint8 column_logic = 0;
  1295   002022  0E00               	movlw	0
  1296   002024  6E46               	movwf	keypad_get_value@column_logic^0,c
  1297                           
  1298                           ;ECU_Layer/KeyPad/ecu_keypad.c: 54:     if((((void*)0) == _keypad_obj) || (((void*)0) ==
      +                           value)){
  1299   002026  5042               	movf	keypad_get_value@_keypad_obj^0,w,c
  1300   002028  B4D8               	btfsc	status,2,c
  1301   00202A  EF19  F010         	goto	u4531
  1302   00202E  EF1B  F010         	goto	u4530
  1303   002032                     u4531:
  1304   002032  EF23  F010         	goto	l5915
  1305   002036                     u4530:
  1306   002036  5043               	movf	keypad_get_value@value^0,w,c
  1307   002038  A4D8               	btfss	status,2,c
  1308   00203A  EF21  F010         	goto	u4541
  1309   00203E  EF23  F010         	goto	u4540
  1310   002042                     u4541:
  1311   002042  EF27  F010         	goto	l5917
  1312   002046                     u4540:
  1313   002046                     l5915:
  1314                           
  1315                           ;ECU_Layer/KeyPad/ecu_keypad.c: 55:         ret = (std_ReturnType) 0x00;
  1316   002046  0E00               	movlw	0
  1317   002048  6E45               	movwf	keypad_get_value@ret^0,c
  1318                           
  1319                           ;ECU_Layer/KeyPad/ecu_keypad.c: 56:     }
  1320   00204A  EF80  F010         	goto	l5959
  1321   00204E                     l5917:
  1322                           
  1323                           ;ECU_Layer/KeyPad/ecu_keypad.c: 58:         for(l_rows_counter=0; l_rows_counter<4; l_ro
      +                          ws_counter++){
  1324   00204E  0E00               	movlw	0
  1325   002050  6E48               	movwf	keypad_get_value@l_rows_counter^0,c
  1326   002052                     l5923:
  1327                           
  1328                           ;ECU_Layer/KeyPad/ecu_keypad.c: 59:             for(l_counter=0; l_counter<4; l_counter+
      +                          +){
  1329   002052  0E00               	movlw	0
  1330   002054  6E47               	movwf	keypad_get_value@l_counter^0,c
  1331   002056                     l5929:
  1332   002056  5042               	movf	keypad_get_value@_keypad_obj^0,w,c
  1333   002058  2447               	addwf	keypad_get_value@l_counter^0,w,c
  1334   00205A  6E3A               	movwf	gpio_pin_write_logic@_pin_config^0,c
  1335   00205C  0E00               	movlw	0
  1336   00205E  6E3B               	movwf	gpio_pin_write_logic@logic^0,c
  1337   002060  EC00  F00F         	call	_gpio_pin_write_logic	;wreg free
  1338   002064                     
  1339                           ;ECU_Layer/KeyPad/ecu_keypad.c: 61:             }
  1340   002064  2A47               	incf	keypad_get_value@l_counter^0,f,c
  1341   002066  0E03               	movlw	3
  1342   002068  6447               	cpfsgt	keypad_get_value@l_counter^0,c
  1343   00206A  EF39  F010         	goto	u4551
  1344   00206E  EF3B  F010         	goto	u4550
  1345   002072                     u4551:
  1346   002072  EF2B  F010         	goto	l5929
  1347   002076                     u4550:
  1348   002076                     
  1349                           ;ECU_Layer/KeyPad/ecu_keypad.c: 62:             gpio_pin_write_logic(&(_keypad_obj->keyp
      +                          ad_row_pins[l_rows_counter]), 0x01);
  1350   002076  5042               	movf	keypad_get_value@_keypad_obj^0,w,c
  1351   002078  2448               	addwf	keypad_get_value@l_rows_counter^0,w,c
  1352   00207A  6E3A               	movwf	gpio_pin_write_logic@_pin_config^0,c
  1353   00207C  0E01               	movlw	1
  1354   00207E  6E3B               	movwf	gpio_pin_write_logic@logic^0,c
  1355   002080  EC00  F00F         	call	_gpio_pin_write_logic	;wreg free
  1356   002084                     
  1357                           ;ECU_Layer/KeyPad/ecu_keypad.c: 63:             _delay((unsigned long)((10)*(8000000/400
      +                          0.0)));
  1358   002084  0E1A               	movlw	26
  1359   002086  6E44               	movwf	??_keypad_get_value^0,c
  1360   002088  0EF8               	movlw	248
  1361   00208A                     u6917:
  1362   00208A  2EE8               	decfsz	wreg,f,c
  1363   00208C  D7FE               	bra	u6917
  1364   00208E  2E44               	decfsz	??_keypad_get_value^0,f,c
  1365   002090  D7FC               	bra	u6917
  1366   002092  D000               	nop2	
  1367   002094                     
  1368                           ;ECU_Layer/KeyPad/ecu_keypad.c: 64:             for(l_columns_counter=0; l_columns_count
      +                          er<4; l_columns_counter++){
  1369   002094  0E00               	movlw	0
  1370   002096  6E49               	movwf	keypad_get_value@l_columns_counter^0,c
  1371   002098                     l5945:
  1372                           
  1373                           ;ECU_Layer/KeyPad/ecu_keypad.c: 65:                 ret = gpio_pin_read_logic(&(_keypad_
      +                          obj->keypad_columns_pins[l_columns_counter]), &column_logic);
  1374   002098  5042               	movf	keypad_get_value@_keypad_obj^0,w,c
  1375   00209A  2449               	addwf	keypad_get_value@l_columns_counter^0,w,c
  1376   00209C  0F04               	addlw	4
  1377   00209E  6E3A               	movwf	gpio_pin_read_logic@_pin_config^0,c
  1378   0020A0  0E46               	movlw	low keypad_get_value@column_logic
  1379   0020A2  6E3B               	movwf	gpio_pin_read_logic@logic^0,c
  1380   0020A4  EC22  F013         	call	_gpio_pin_read_logic	;wreg free
  1381   0020A8  6E45               	movwf	keypad_get_value@ret^0,c
  1382   0020AA                     
  1383                           ;ECU_Layer/KeyPad/ecu_keypad.c: 66:                 if(0x01 == column_logic){
  1384   0020AA  0446               	decf	keypad_get_value@column_logic^0,w,c
  1385   0020AC  A4D8               	btfss	status,2,c
  1386   0020AE  EF5B  F010         	goto	u4561
  1387   0020B2  EF5D  F010         	goto	u4560
  1388   0020B6                     u4561:
  1389   0020B6  EF6E  F010         	goto	l5951
  1390   0020BA                     u4560:
  1391   0020BA                     
  1392                           ;ECU_Layer/KeyPad/ecu_keypad.c: 67:                     *value = btn_values[l_rows_count
      +                          er][l_columns_counter];
  1393   0020BA  5048               	movf	keypad_get_value@l_rows_counter^0,w,c
  1394   0020BC  0D04               	mullw	4
  1395   0020BE  50F3               	movf	243,w,c
  1396   0020C0  0F01               	addlw	low _btn_values
  1397   0020C2  2449               	addwf	keypad_get_value@l_columns_counter^0,w,c
  1398   0020C4  6E44               	movwf	??_keypad_get_value^0,c
  1399   0020C6  C044  FFF6         	movff	??_keypad_get_value,tblptrl
  1400   0020CA                     	if	1	;There is more than 1 active tblptr byte
  1401   0020CA  0E10               	movlw	high __smallconst
  1402   0020CC  6EF7               	movwf	tblptrh,c
  1403   0020CE                     	endif
  1404   0020CE                     	if	1	;Program memory is < 0x10000, tblptru is always zero
  1405   0020CE  6AF8               	clrf	tblptru,c
  1406   0020D0                     	endif
  1407   0020D0                     	if	0	;tblptru may be non-zero
  1408   0020D0                     	endif
  1409   0020D0  5043               	movf	keypad_get_value@value^0,w,c
  1410   0020D2  6ED9               	movwf	fsr2l,c
  1411   0020D4  6ADA               	clrf	fsr2h,c
  1412   0020D6  0008               	tblrd		*
  1413   0020D8  CFF5 FFDF          	movff	tablat,indf2
  1414   0020DC                     l5951:
  1415                           
  1416                           ;ECU_Layer/KeyPad/ecu_keypad.c: 69:             }
  1417   0020DC  2A49               	incf	keypad_get_value@l_columns_counter^0,f,c
  1418   0020DE  0E03               	movlw	3
  1419   0020E0  6449               	cpfsgt	keypad_get_value@l_columns_counter^0,c
  1420   0020E2  EF75  F010         	goto	u4571
  1421   0020E6  EF77  F010         	goto	u4570
  1422   0020EA                     u4571:
  1423   0020EA  EF4C  F010         	goto	l5945
  1424   0020EE                     u4570:
  1425   0020EE                     
  1426                           ;ECU_Layer/KeyPad/ecu_keypad.c: 70:         }
  1427   0020EE  2A48               	incf	keypad_get_value@l_rows_counter^0,f,c
  1428   0020F0  0E03               	movlw	3
  1429   0020F2  6448               	cpfsgt	keypad_get_value@l_rows_counter^0,c
  1430   0020F4  EF7E  F010         	goto	u4581
  1431   0020F8  EF80  F010         	goto	u4580
  1432   0020FC                     u4581:
  1433   0020FC  EF29  F010         	goto	l5923
  1434   002100                     u4580:
  1435   002100                     l5959:
  1436                           
  1437                           ;ECU_Layer/KeyPad/ecu_keypad.c: 72:     return ret;
  1438   002100  5045               	movf	keypad_get_value@ret^0,w,c
  1439   002102  0012               	return		;funcret
  1440   002104                     __end_of_keypad_get_value:
  1441                           	callstack 0
  1442                           
  1443 ;; *************** function _gpio_pin_read_logic *****************
  1444 ;; Defined at:
  1445 ;;		line 108 in file "MCAL_Layer/GPIO/hal_gpio.c"
  1446 ;; Parameters:    Size  Location     Type
  1447 ;;  _pin_config     1    1[COMRAM] PTR const struct .
  1448 ;;		 -> keypad_1$keypad_columns_pins(4), keypad_1(8), 
  1449 ;;  logic           1    2[COMRAM] PTR enum E2983
  1450 ;;		 -> keypad_get_value@column_logic(1), button_read_state@Pin_Logic_Status(1), 
  1451 ;; Auto vars:     Size  Location     Type
  1452 ;;  ret             1    7[COMRAM] unsigned char 
  1453 ;; Return value:  Size  Location     Type
  1454 ;;                  1    wreg      unsigned char 
  1455 ;; Registers used:
  1456 ;;		wreg, fsr1l, fsr1h, fsr2l, fsr2h, status,2, status,0, prodl, prodh
  1457 ;; Tracked objects:
  1458 ;;		On entry : 0/0
  1459 ;;		On exit  : 0/0
  1460 ;;		Unchanged: 0/0
  1461 ;; Data sizes:     COMRAM   BANK0   BANK1   BANK2   BANK3   BANK4   BANK5   BANK6   BANK7   BANK8   BANK9  BANK10  BANK1
      +1  BANK12  BANK13  BANK14  BANK15
  1462 ;;      Params:         2       0       0       0       0       0       0       0       0       0       0       0       
      +0       0       0       0       0
  1463 ;;      Locals:         1       0       0       0       0       0       0       0       0       0       0       0       
      +0       0       0       0       0
  1464 ;;      Temps:          4       0       0       0       0       0       0       0       0       0       0       0       
      +0       0       0       0       0
  1465 ;;      Totals:         7       0       0       0       0       0       0       0       0       0       0       0       
      +0       0       0       0       0
  1466 ;;Total ram usage:        7 bytes
  1467 ;; Hardware stack levels used: 1
  1468 ;; Hardware stack levels required when called: 2
  1469 ;; This function calls:
  1470 ;;		Nothing
  1471 ;; This function is called by:
  1472 ;;		_keypad_get_value
  1473 ;;		_button_read_state
  1474 ;; This function uses a non-reentrant model
  1475 ;;
  1476                           
  1477                           	psect	text2
  1478   002644                     __ptext2:
  1479                           	callstack 0
  1480   002644                     _gpio_pin_read_logic:
  1481                           	callstack 27
  1482   002644                     
  1483                           ;MCAL_Layer/GPIO/hal_gpio.c: 109:     Std_ReturnType ret = (std_ReturnType) 0x01;
  1484   002644  0E01               	movlw	1
  1485   002646  6E40               	movwf	gpio_pin_read_logic@ret^0,c
  1486                           
  1487                           ;MCAL_Layer/GPIO/hal_gpio.c: 110:     if((((void*)0) == _pin_config) ||( ((void*)0) == l
      +                          ogic) ||( _pin_config->pin > 8 -1)){
  1488   002648  503A               	movf	gpio_pin_read_logic@_pin_config^0,w,c
  1489   00264A  B4D8               	btfsc	status,2,c
  1490   00264C  EF2A  F013         	goto	u4221
  1491   002650  EF2C  F013         	goto	u4220
  1492   002654                     u4221:
  1493   002654  EF44  F013         	goto	l5661
  1494   002658                     u4220:
  1495   002658  503B               	movf	gpio_pin_read_logic@logic^0,w,c
  1496   00265A  B4D8               	btfsc	status,2,c
  1497   00265C  EF32  F013         	goto	u4231
  1498   002660  EF34  F013         	goto	u4230
  1499   002664                     u4231:
  1500   002664  EF44  F013         	goto	l5661
  1501   002668                     u4230:
  1502   002668  503A               	movf	gpio_pin_read_logic@_pin_config^0,w,c
  1503   00266A  6ED9               	movwf	fsr2l,c
  1504   00266C  6ADA               	clrf	fsr2h,c
  1505   00266E  30DF               	rrcf	223,w,c
  1506   002670  32E8               	rrcf	wreg,f,c
  1507   002672  32E8               	rrcf	wreg,f,c
  1508   002674  0B07               	andlw	7
  1509   002676  6E3C               	movwf	??_gpio_pin_read_logic^0,c
  1510   002678  0E07               	movlw	7
  1511   00267A  643C               	cpfsgt	??_gpio_pin_read_logic^0,c
  1512   00267C  EF42  F013         	goto	u4241
  1513   002680  EF44  F013         	goto	u4240
  1514   002684                     u4241:
  1515   002684  EF48  F013         	goto	l5663
  1516   002688                     u4240:
  1517   002688                     l5661:
  1518                           
  1519                           ;MCAL_Layer/GPIO/hal_gpio.c: 111:         ret = (std_ReturnType) 0x00;
  1520   002688  0E00               	movlw	0
  1521   00268A  6E40               	movwf	gpio_pin_read_logic@ret^0,c
  1522                           
  1523                           ;MCAL_Layer/GPIO/hal_gpio.c: 112:     }
  1524   00268C  EF72  F013         	goto	l5665
  1525   002690                     l5663:
  1526                           
  1527                           ;MCAL_Layer/GPIO/hal_gpio.c: 114:         *logic = ((*port_registers[_pin_config->port] 
      +                          >> _pin_config->pin) & (uint8)1);
  1528   002690  503B               	movf	gpio_pin_read_logic@logic^0,w,c
  1529   002692  6ED9               	movwf	fsr2l,c
  1530   002694  6ADA               	clrf	fsr2h,c
  1531   002696  503A               	movf	gpio_pin_read_logic@_pin_config^0,w,c
  1532   002698  6EE1               	movwf	fsr1l,c
  1533   00269A  6AE2               	clrf	fsr1h,c
  1534   00269C  30E7               	rrcf	231,w,c
  1535   00269E  32E8               	rrcf	wreg,f,c
  1536   0026A0  32E8               	rrcf	wreg,f,c
  1537   0026A2  0B07               	andlw	7
  1538   0026A4  6E3C               	movwf	??_gpio_pin_read_logic^0,c
  1539   0026A6  503A               	movf	gpio_pin_read_logic@_pin_config^0,w,c
  1540   0026A8  6EE1               	movwf	fsr1l,c
  1541   0026AA  6AE2               	clrf	fsr1h,c
  1542   0026AC  50E7               	movf	231,w,c
  1543   0026AE  0B07               	andlw	7
  1544   0026B0  0D02               	mullw	2
  1545   0026B2  50F3               	movf	243,w,c
  1546   0026B4  0FBB               	addlw	low _port_registers
  1547   0026B6  6EE1               	movwf	fsr1l,c
  1548   0026B8  6AE2               	clrf	fsr1h,c
  1549   0026BA  CFE6 F03D          	movff	postinc1,??_gpio_pin_read_logic+1
  1550   0026BE  CFE5 F03E          	movff	postdec1,??_gpio_pin_read_logic+2
  1551   0026C2  C03D  FFE1         	movff	??_gpio_pin_read_logic+1,fsr1l
  1552   0026C6  C03E  FFE2         	movff	??_gpio_pin_read_logic+2,fsr1h
  1553   0026CA  50E7               	movf	indf1,w,c
  1554   0026CC  6E3F               	movwf	(??_gpio_pin_read_logic+3)^0,c
  1555   0026CE  2A3C               	incf	??_gpio_pin_read_logic^0,f,c
  1556   0026D0  EF6C  F013         	goto	u4254
  1557   0026D4                     u4255:
  1558   0026D4  90D8               	bcf	status,0,c
  1559   0026D6  323F               	rrcf	(??_gpio_pin_read_logic+3)^0,f,c
  1560   0026D8                     u4254:
  1561   0026D8  2E3C               	decfsz	??_gpio_pin_read_logic^0,f,c
  1562   0026DA  EF6A  F013         	goto	u4255
  1563   0026DE  503F               	movf	(??_gpio_pin_read_logic+3)^0,w,c
  1564   0026E0  0B01               	andlw	1
  1565   0026E2  6EDF               	movwf	indf2,c
  1566   0026E4                     l5665:
  1567                           
  1568                           ;MCAL_Layer/GPIO/hal_gpio.c: 116:     return ret;
  1569   0026E4  5040               	movf	gpio_pin_read_logic@ret^0,w,c
  1570   0026E6  0012               	return		;funcret
  1571   0026E8                     __end_of_gpio_pin_read_logic:
  1572                           	callstack 0
  1573                           
  1574 ;; *************** function _dc_motor_stop *****************
  1575 ;; Defined at:
  1576 ;;		line 74 in file "ECU_Layer/DC_Motor/ecu_dc_motor.c"
  1577 ;; Parameters:    Size  Location     Type
  1578 ;;  _dc_motor       1    9[COMRAM] PTR const struct .
  1579 ;;		 -> dc_motor_2(2), dc_motor_1(2), 
  1580 ;; Auto vars:     Size  Location     Type
  1581 ;;  ret             1   10[COMRAM] unsigned char 
  1582 ;; Return value:  Size  Location     Type
  1583 ;;                  1    wreg      unsigned char 
  1584 ;; Registers used:
  1585 ;;		wreg, fsr2l, fsr2h, status,2, status,0, prodl, prodh, cstack
  1586 ;; Tracked objects:
  1587 ;;		On entry : 0/0
  1588 ;;		On exit  : 0/0
  1589 ;;		Unchanged: 0/0
  1590 ;; Data sizes:     COMRAM   BANK0   BANK1   BANK2   BANK3   BANK4   BANK5   BANK6   BANK7   BANK8   BANK9  BANK10  BANK1
      +1  BANK12  BANK13  BANK14  BANK15
  1591 ;;      Params:         1       0       0       0       0       0       0       0       0       0       0       0       
      +0       0       0       0       0
  1592 ;;      Locals:         1       0       0       0       0       0       0       0       0       0       0       0       
      +0       0       0       0       0
  1593 ;;      Temps:          0       0       0       0       0       0       0       0       0       0       0       0       
      +0       0       0       0       0
  1594 ;;      Totals:         2       0       0       0       0       0       0       0       0       0       0       0       
      +0       0       0       0       0
  1595 ;;Total ram usage:        2 bytes
  1596 ;; Hardware stack levels used: 1
  1597 ;; Hardware stack levels required when called: 3
  1598 ;; This function calls:
  1599 ;;		_gpio_pin_write_logic
  1600 ;; This function is called by:
  1601 ;;		_main
  1602 ;; This function uses a non-reentrant model
  1603 ;;
  1604                           
  1605                           	psect	text3
  1606   002CAA                     __ptext3:
  1607                           	callstack 0
  1608   002CAA                     _dc_motor_stop:
  1609                           	callstack 27
  1610   002CAA                     
  1611                           ;ECU_Layer/DC_Motor/ecu_dc_motor.c: 75:      std_ReturnType ret = (std_ReturnType) 0x01;
  1612   002CAA  0E01               	movlw	1
  1613   002CAC  6E43               	movwf	dc_motor_stop@ret^0,c
  1614                           
  1615                           ;ECU_Layer/DC_Motor/ecu_dc_motor.c: 76:      if(((void*)0) == _dc_motor){
  1616   002CAE  5042               	movf	dc_motor_stop@_dc_motor^0,w,c
  1617   002CB0  A4D8               	btfss	status,2,c
  1618   002CB2  EF5D  F016         	goto	u4521
  1619   002CB6  EF5F  F016         	goto	u4520
  1620   002CBA                     u4521:
  1621   002CBA  EF63  F016         	goto	l5905
  1622   002CBE                     u4520:
  1623   002CBE                     
  1624                           ;ECU_Layer/DC_Motor/ecu_dc_motor.c: 77:         ret = (std_ReturnType) 0x00;
  1625   002CBE  0E00               	movlw	0
  1626   002CC0  6E43               	movwf	dc_motor_stop@ret^0,c
  1627                           
  1628                           ;ECU_Layer/DC_Motor/ecu_dc_motor.c: 78:     }
  1629   002CC2  EF6F  F016         	goto	l5907
  1630   002CC6                     l5905:
  1631                           
  1632                           ;ECU_Layer/DC_Motor/ecu_dc_motor.c: 80:         gpio_pin_write_logic(&(_dc_motor->dc_mot
      +                          or_pin[0x00U]), LOW);
  1633   002CC6  C042  F03A         	movff	dc_motor_stop@_dc_motor,gpio_pin_write_logic@_pin_config
  1634   002CCA  0E00               	movlw	0
  1635   002CCC  6E3B               	movwf	gpio_pin_write_logic@logic^0,c
  1636   002CCE  EC00  F00F         	call	_gpio_pin_write_logic	;wreg free
  1637                           
  1638                           ;ECU_Layer/DC_Motor/ecu_dc_motor.c: 81:         gpio_pin_write_logic(&(_dc_motor->dc_mot
      +                          or_pin[0x01U]), LOW);
  1639   002CD2  2842               	incf	dc_motor_stop@_dc_motor^0,w,c
  1640   002CD4  6E3A               	movwf	gpio_pin_write_logic@_pin_config^0,c
  1641   002CD6  0E00               	movlw	0
  1642   002CD8  6E3B               	movwf	gpio_pin_write_logic@logic^0,c
  1643   002CDA  EC00  F00F         	call	_gpio_pin_write_logic	;wreg free
  1644   002CDE                     l5907:
  1645                           
  1646                           ;ECU_Layer/DC_Motor/ecu_dc_motor.c: 83:      return ret;
  1647   002CDE  5043               	movf	dc_motor_stop@ret^0,w,c
  1648   002CE0  0012               	return		;funcret
  1649   002CE2                     __end_of_dc_motor_stop:
  1650                           	callstack 0
  1651                           
  1652 ;; *************** function _dc_motor_move_right *****************
  1653 ;; Defined at:
  1654 ;;		line 36 in file "ECU_Layer/DC_Motor/ecu_dc_motor.c"
  1655 ;; Parameters:    Size  Location     Type
  1656 ;;  _dc_motor       1    9[COMRAM] PTR const struct .
  1657 ;;		 -> dc_motor_2(2), dc_motor_1(2), 
  1658 ;; Auto vars:     Size  Location     Type
  1659 ;;  ret             1   10[COMRAM] unsigned char 
  1660 ;; Return value:  Size  Location     Type
  1661 ;;                  1    wreg      unsigned char 
  1662 ;; Registers used:
  1663 ;;		wreg, fsr2l, fsr2h, status,2, status,0, prodl, prodh, cstack
  1664 ;; Tracked objects:
  1665 ;;		On entry : 0/0
  1666 ;;		On exit  : 0/0
  1667 ;;		Unchanged: 0/0
  1668 ;; Data sizes:     COMRAM   BANK0   BANK1   BANK2   BANK3   BANK4   BANK5   BANK6   BANK7   BANK8   BANK9  BANK10  BANK1
      +1  BANK12  BANK13  BANK14  BANK15
  1669 ;;      Params:         1       0       0       0       0       0       0       0       0       0       0       0       
      +0       0       0       0       0
  1670 ;;      Locals:         1       0       0       0       0       0       0       0       0       0       0       0       
      +0       0       0       0       0
  1671 ;;      Temps:          0       0       0       0       0       0       0       0       0       0       0       0       
      +0       0       0       0       0
  1672 ;;      Totals:         2       0       0       0       0       0       0       0       0       0       0       0       
      +0       0       0       0       0
  1673 ;;Total ram usage:        2 bytes
  1674 ;; Hardware stack levels used: 1
  1675 ;; Hardware stack levels required when called: 3
  1676 ;; This function calls:
  1677 ;;		_gpio_pin_write_logic
  1678 ;; This function is called by:
  1679 ;;		_main
  1680 ;; This function uses a non-reentrant model
  1681 ;;
  1682                           
  1683                           	psect	text4
  1684   002CE2                     __ptext4:
  1685                           	callstack 0
  1686   002CE2                     _dc_motor_move_right:
  1687                           	callstack 27
  1688   002CE2                     
  1689                           ;ECU_Layer/DC_Motor/ecu_dc_motor.c: 37:      std_ReturnType ret = (std_ReturnType) 0x01;
  1690   002CE2  0E01               	movlw	1
  1691   002CE4  6E43               	movwf	dc_motor_move_right@ret^0,c
  1692                           
  1693                           ;ECU_Layer/DC_Motor/ecu_dc_motor.c: 38:      if(((void*)0) == _dc_motor){
  1694   002CE6  5042               	movf	dc_motor_move_right@_dc_motor^0,w,c
  1695   002CE8  A4D8               	btfss	status,2,c
  1696   002CEA  EF79  F016         	goto	u4511
  1697   002CEE  EF7B  F016         	goto	u4510
  1698   002CF2                     u4511:
  1699   002CF2  EF7F  F016         	goto	l5895
  1700   002CF6                     u4510:
  1701   002CF6                     
  1702                           ;ECU_Layer/DC_Motor/ecu_dc_motor.c: 39:         ret = (std_ReturnType) 0x00;
  1703   002CF6  0E00               	movlw	0
  1704   002CF8  6E43               	movwf	dc_motor_move_right@ret^0,c
  1705                           
  1706                           ;ECU_Layer/DC_Motor/ecu_dc_motor.c: 40:     }
  1707   002CFA  EF8B  F016         	goto	l5897
  1708   002CFE                     l5895:
  1709                           
  1710                           ;ECU_Layer/DC_Motor/ecu_dc_motor.c: 42:         gpio_pin_write_logic(&(_dc_motor->dc_mot
      +                          or_pin[0x00U]), HIGH);
  1711   002CFE  C042  F03A         	movff	dc_motor_move_right@_dc_motor,gpio_pin_write_logic@_pin_config
  1712   002D02  0E01               	movlw	1
  1713   002D04  6E3B               	movwf	gpio_pin_write_logic@logic^0,c
  1714   002D06  EC00  F00F         	call	_gpio_pin_write_logic	;wreg free
  1715                           
  1716                           ;ECU_Layer/DC_Motor/ecu_dc_motor.c: 43:         gpio_pin_write_logic(&(_dc_motor->dc_mot
      +                          or_pin[0x01U]), LOW);
  1717   002D0A  2842               	incf	dc_motor_move_right@_dc_motor^0,w,c
  1718   002D0C  6E3A               	movwf	gpio_pin_write_logic@_pin_config^0,c
  1719   002D0E  0E00               	movlw	0
  1720   002D10  6E3B               	movwf	gpio_pin_write_logic@logic^0,c
  1721   002D12  EC00  F00F         	call	_gpio_pin_write_logic	;wreg free
  1722   002D16                     l5897:
  1723                           
  1724                           ;ECU_Layer/DC_Motor/ecu_dc_motor.c: 45:      return ret;
  1725   002D16  5043               	movf	dc_motor_move_right@ret^0,w,c
  1726   002D18  0012               	return		;funcret
  1727   002D1A                     __end_of_dc_motor_move_right:
  1728                           	callstack 0
  1729                           
  1730 ;; *************** function _convert_uint16_to_string *****************
  1731 ;; Defined at:
  1732 ;;		line 404 in file "ECU_Layer/Chr_LCD/ecu_chr_lcd.c"
  1733 ;; Parameters:    Size  Location     Type
  1734 ;;  value           2   43[COMRAM] unsigned short 
  1735 ;;  str             1   45[COMRAM] PTR unsigned char 
  1736 ;;		 -> lm35_res_1_txt(7), 
  1737 ;; Auto vars:     Size  Location     Type
  1738 ;;  Temp_String     6    0[BANK0 ] unsigned char [6]
  1739 ;;  DataCounter     1    7[BANK0 ] unsigned char 
  1740 ;;  ret             1    6[BANK0 ] unsigned char 
  1741 ;; Return value:  Size  Location     Type
  1742 ;;                  1    wreg      unsigned char 
  1743 ;; Registers used:
  1744 ;;		wreg, fsr1l, fsr1h, fsr2l, fsr2h, status,2, status,0, tblptrl, tblptrh, tblptru, cstack
  1745 ;; Tracked objects:
  1746 ;;		On entry : 0/0
  1747 ;;		On exit  : 0/0
  1748 ;;		Unchanged: 0/0
  1749 ;; Data sizes:     COMRAM   BANK0   BANK1   BANK2   BANK3   BANK4   BANK5   BANK6   BANK7   BANK8   BANK9  BANK10  BANK1
      +1  BANK12  BANK13  BANK14  BANK15
  1750 ;;      Params:         3       0       0       0       0       0       0       0       0       0       0       0       
      +0       0       0       0       0
  1751 ;;      Locals:         0       8       0       0       0       0       0       0       0       0       0       0       
      +0       0       0       0       0
  1752 ;;      Temps:          0       0       0       0       0       0       0       0       0       0       0       0       
      +0       0       0       0       0
  1753 ;;      Totals:         3       8       0       0       0       0       0       0       0       0       0       0       
      +0       0       0       0       0
  1754 ;;Total ram usage:       11 bytes
  1755 ;; Hardware stack levels used: 1
  1756 ;; Hardware stack levels required when called: 7
  1757 ;; This function calls:
  1758 ;;		_memset
  1759 ;;		_sprintf
  1760 ;; This function is called by:
  1761 ;;		_main
  1762 ;; This function uses a non-reentrant model
  1763 ;;
  1764                           
  1765                           	psect	text5
  1766   0026E8                     __ptext5:
  1767                           	callstack 0
  1768   0026E8                     _convert_uint16_to_string:
  1769                           	callstack 23
  1770   0026E8                     
  1771                           ;ECU_Layer/Chr_LCD/ecu_chr_lcd.c: 405:     Std_ReturnType ret = (std_ReturnType) 0x01;
  1772   0026E8  0E01               	movlw	1
  1773   0026EA  0100               	movlb	0	; () banked
  1774   0026EC  6FF4               	movwf	convert_uint16_to_string@ret& (0+255),b
  1775   0026EE                     
  1776                           ; BSR set to: 0
  1777                           ;ECU_Layer/Chr_LCD/ecu_chr_lcd.c: 406:     uint8 Temp_String[6] = {0};
  1778   0026EE  EE20  F0EE         	lfsr	2,convert_uint16_to_string@Temp_String
  1779   0026F2  0E05               	movlw	5
  1780   0026F4                     u6831:
  1781   0026F4  6ADE               	clrf	postinc2,c
  1782   0026F6  06E8               	decf	wreg,f,c
  1783   0026F8  E2FD               	bc	u6831
  1784   0026FA                     
  1785                           ; BSR set to: 0
  1786                           ;ECU_Layer/Chr_LCD/ecu_chr_lcd.c: 407:     uint8 DataCounter = 0;
  1787   0026FA  0E00               	movlw	0
  1788   0026FC  6FF5               	movwf	convert_uint16_to_string@DataCounter& (0+255),b
  1789   0026FE                     
  1790                           ; BSR set to: 0
  1791                           ;ECU_Layer/Chr_LCD/ecu_chr_lcd.c: 408:     if(((void*)0) == str){
  1792   0026FE  5066               	movf	convert_uint16_to_string@str^0,w,c
  1793   002700  A4D8               	btfss	status,2,c
  1794   002702  EF85  F013         	goto	u6841
  1795   002706  EF87  F013         	goto	u6840
  1796   00270A                     u6841:
  1797   00270A  EF8B  F013         	goto	l7463
  1798   00270E                     u6840:
  1799   00270E                     
  1800                           ; BSR set to: 0
  1801                           ;ECU_Layer/Chr_LCD/ecu_chr_lcd.c: 409:         ret = (std_ReturnType) 0x00;
  1802   00270E  0E00               	movlw	0
  1803   002710  6FF4               	movwf	convert_uint16_to_string@ret& (0+255),b
  1804                           
  1805                           ;ECU_Layer/Chr_LCD/ecu_chr_lcd.c: 410:     }
  1806   002712  EFC1  F013         	goto	l7475
  1807   002716                     l7463:
  1808                           
  1809                           ; BSR set to: 0
  1810                           ;ECU_Layer/Chr_LCD/ecu_chr_lcd.c: 412:         memset(str, ' ', 5);
  1811   002716  C066  F03A         	movff	convert_uint16_to_string@str,memset@dest
  1812   00271A  0E00               	movlw	0
  1813   00271C  6E3C               	movwf	(memset@c+1)^0,c
  1814   00271E  0E20               	movlw	32
  1815   002720  6E3B               	movwf	memset@c^0,c
  1816   002722  0E00               	movlw	0
  1817   002724  6E3E               	movwf	(memset@n+1)^0,c
  1818   002726  0E05               	movlw	5
  1819   002728  6E3D               	movwf	memset@n^0,c
  1820   00272A  ECF7  F016         	call	_memset	;wreg free
  1821   00272E                     
  1822                           ;ECU_Layer/Chr_LCD/ecu_chr_lcd.c: 413:         str[5] = '\0';
  1823   00272E  5066               	movf	convert_uint16_to_string@str^0,w,c
  1824   002730  6ED9               	movwf	fsr2l,c
  1825   002732  6ADA               	clrf	fsr2h,c
  1826   002734  0E05               	movlw	5
  1827   002736  26D9               	addwf	fsr2l,f,c
  1828   002738  6ADF               	clrf	indf2,c
  1829   00273A                     
  1830                           ;ECU_Layer/Chr_LCD/ecu_chr_lcd.c: 414:         sprintf((char *)Temp_String, "%i", value)
      +                          ;
  1831   00273A  0EEE               	movlw	low convert_uint16_to_string@Temp_String
  1832   00273C  6E53               	movwf	sprintf@s^0,c
  1833   00273E  0E2D               	movlw	low STR_1
  1834   002740  6E54               	movwf	sprintf@fmt^0,c
  1835   002742  C064  F055         	movff	convert_uint16_to_string@value,?_sprintf+2
  1836   002746  C065  F056         	movff	convert_uint16_to_string@value+1,?_sprintf+3
  1837   00274A  ECA9  F016         	call	_sprintf	;wreg free
  1838                           
  1839                           ;ECU_Layer/Chr_LCD/ecu_chr_lcd.c: 415:         while(Temp_String[DataCounter] != '\0'){
  1840   00274E  EFB4  F013         	goto	l7473
  1841   002752                     l7469:
  1842                           
  1843                           ; BSR set to: 0
  1844                           ;ECU_Layer/Chr_LCD/ecu_chr_lcd.c: 416:             str[DataCounter] = Temp_String[DataCo
      +                          unter];
  1845   002752  51F5               	movf	convert_uint16_to_string@DataCounter& (0+255),w,b
  1846   002754  0FEE               	addlw	low convert_uint16_to_string@Temp_String
  1847   002756  6ED9               	movwf	fsr2l,c
  1848   002758  6ADA               	clrf	fsr2h,c
  1849   00275A  5066               	movf	convert_uint16_to_string@str^0,w,c
  1850   00275C  25F5               	addwf	convert_uint16_to_string@DataCounter& (0+255),w,b
  1851   00275E  6EE1               	movwf	fsr1l,c
  1852   002760  6AE2               	clrf	fsr1h,c
  1853   002762  CFDF FFE7          	movff	indf2,indf1
  1854   002766                     
  1855                           ; BSR set to: 0
  1856                           ;ECU_Layer/Chr_LCD/ecu_chr_lcd.c: 417:             DataCounter++;
  1857   002766  2BF5               	incf	convert_uint16_to_string@DataCounter& (0+255),f,b
  1858   002768                     l7473:
  1859                           
  1860                           ;ECU_Layer/Chr_LCD/ecu_chr_lcd.c: 415:         while(Temp_String[DataCounter] != '\0'){
  1861   002768  0100               	movlb	0	; () banked
  1862   00276A  51F5               	movf	convert_uint16_to_string@DataCounter& (0+255),w,b
  1863   00276C  0FEE               	addlw	low convert_uint16_to_string@Temp_String
  1864   00276E  6ED9               	movwf	fsr2l,c
  1865   002770  6ADA               	clrf	fsr2h,c
  1866   002772  50DF               	movf	indf2,w,c
  1867   002774  A4D8               	btfss	status,2,c
  1868   002776  EFBF  F013         	goto	u6851
  1869   00277A  EFC1  F013         	goto	u6850
  1870   00277E                     u6851:
  1871   00277E  EFA9  F013         	goto	l7469
  1872   002782                     u6850:
  1873   002782                     l7475:
  1874                           
  1875                           ; BSR set to: 0
  1876                           ;ECU_Layer/Chr_LCD/ecu_chr_lcd.c: 420:     return ret;
  1877   002782  51F4               	movf	convert_uint16_to_string@ret& (0+255),w,b
  1878   002784                     
  1879                           ; BSR set to: 0
  1880   002784  0012               	return		;funcret
  1881   002786                     __end_of_convert_uint16_to_string:
  1882                           	callstack 0
  1883                           
  1884 ;; *************** function _sprintf *****************
  1885 ;; Defined at:
  1886 ;;		line 9 in file "C:\Program Files\Microchip\xc8\v2.45\pic\sources\c99\common\nf_sprintf.c"
  1887 ;; Parameters:    Size  Location     Type
  1888 ;;  s               1   26[COMRAM] PTR unsigned char 
  1889 ;;		 -> convert_uint16_to_string@Temp_String(6), 
  1890 ;;  fmt             1   27[COMRAM] PTR const unsigned char 
  1891 ;;		 -> STR_3(3), STR_2(3), STR_1(3), 
  1892 ;; Auto vars:     Size  Location     Type
  1893 ;;  f              12   31[COMRAM] struct _IO_FILE
  1894 ;;  ret             2    0        int 
  1895 ;;  ap              1   30[COMRAM] PTR void [1]
  1896 ;;		 -> ?_sprintf(2), 
  1897 ;; Return value:  Size  Location     Type
  1898 ;;                  2   26[COMRAM] int 
  1899 ;; Registers used:
  1900 ;;		wreg, fsr1l, fsr1h, fsr2l, fsr2h, status,2, status,0, tblptrl, tblptrh, tblptru, cstack
  1901 ;; Tracked objects:
  1902 ;;		On entry : 0/0
  1903 ;;		On exit  : 0/0
  1904 ;;		Unchanged: 0/0
  1905 ;; Data sizes:     COMRAM   BANK0   BANK1   BANK2   BANK3   BANK4   BANK5   BANK6   BANK7   BANK8   BANK9  BANK10  BANK1
      +1  BANK12  BANK13  BANK14  BANK15
  1906 ;;      Params:         4       0       0       0       0       0       0       0       0       0       0       0       
      +0       0       0       0       0
  1907 ;;      Locals:        13       0       0       0       0       0       0       0       0       0       0       0       
      +0       0       0       0       0
  1908 ;;      Temps:          0       0       0       0       0       0       0       0       0       0       0       0       
      +0       0       0       0       0
  1909 ;;      Totals:        17       0       0       0       0       0       0       0       0       0       0       0       
      +0       0       0       0       0
  1910 ;;Total ram usage:       17 bytes
  1911 ;; Hardware stack levels used: 1
  1912 ;; Hardware stack levels required when called: 6
  1913 ;; This function calls:
  1914 ;;		_vfprintf
  1915 ;; This function is called by:
  1916 ;;		_convert_uint16_to_string
  1917 ;;		_convert_uint8_to_string
  1918 ;;		_convert_uint32_to_string
  1919 ;; This function uses a non-reentrant model
  1920 ;;
  1921                           
  1922                           	psect	text6
  1923   002D52                     __ptext6:
  1924                           	callstack 0
  1925   002D52                     _sprintf:
  1926                           	callstack 23
  1927   002D52  0E55               	movlw	low (?_sprintf+2)
  1928   002D54  6E57               	movwf	sprintf@ap^0,c
  1929   002D56  C053  F058         	movff	sprintf@s,sprintf@f
  1930   002D5A  0E00               	movlw	0
  1931   002D5C  6E5C               	movwf	(sprintf@f+4)^0,c
  1932   002D5E  0E00               	movlw	0
  1933   002D60  6E5B               	movwf	(sprintf@f+3)^0,c
  1934   002D62  0E00               	movlw	0
  1935   002D64  6E63               	movwf	(sprintf@f+11)^0,c
  1936   002D66  0E00               	movlw	0
  1937   002D68  6E62               	movwf	(sprintf@f+10)^0,c
  1938   002D6A  0E58               	movlw	low sprintf@f
  1939   002D6C  6E4F               	movwf	vfprintf@fp^0,c
  1940   002D6E  C054  F050         	movff	sprintf@fmt,vfprintf@fmt
  1941   002D72  0E57               	movlw	low sprintf@ap
  1942   002D74  6E51               	movwf	vfprintf@ap^0,c
  1943   002D76  ECF5  F015         	call	_vfprintf	;wreg free
  1944   002D7A  5053               	movf	sprintf@s^0,w,c
  1945   002D7C  245B               	addwf	(sprintf@f+3)^0,w,c
  1946   002D7E  6ED9               	movwf	fsr2l,c
  1947   002D80  6ADA               	clrf	fsr2h,c
  1948   002D82  6ADF               	clrf	indf2,c
  1949   002D84  0012               	return		;funcret
  1950   002D86                     __end_of_sprintf:
  1951                           	callstack 0
  1952                           
  1953 ;; *************** function _vfprintf *****************
  1954 ;; Defined at:
  1955 ;;		line 1817 in file "C:\Program Files\Microchip\xc8\v2.45\pic\sources\c99\common\doprnt.c"
  1956 ;; Parameters:    Size  Location     Type
  1957 ;;  fp              1   22[COMRAM] PTR struct _IO_FILE
  1958 ;;		 -> sprintf@f(12), 
  1959 ;;  fmt             1   23[COMRAM] PTR const unsigned char 
  1960 ;;		 -> STR_3(3), STR_2(3), STR_1(3), 
  1961 ;;  ap              1   24[COMRAM] PTR PTR void 
  1962 ;;		 -> sprintf@ap(1), 
  1963 ;; Auto vars:     Size  Location     Type
  1964 ;;  cfmt            1   25[COMRAM] PTR unsigned char 
  1965 ;;		 -> STR_3(3), STR_2(3), STR_1(3), 
  1966 ;; Return value:  Size  Location     Type
  1967 ;;                  2   22[COMRAM] int 
  1968 ;; Registers used:
  1969 ;;		wreg, fsr1l, fsr1h, fsr2l, fsr2h, status,2, status,0, tblptrl, tblptrh, tblptru, cstack
  1970 ;; Tracked objects:
  1971 ;;		On entry : 0/0
  1972 ;;		On exit  : 0/0
  1973 ;;		Unchanged: 0/0
  1974 ;; Data sizes:     COMRAM   BANK0   BANK1   BANK2   BANK3   BANK4   BANK5   BANK6   BANK7   BANK8   BANK9  BANK10  BANK1
      +1  BANK12  BANK13  BANK14  BANK15
  1975 ;;      Params:         3       0       0       0       0       0       0       0       0       0       0       0       
      +0       0       0       0       0
  1976 ;;      Locals:         1       0       0       0       0       0       0       0       0       0       0       0       
      +0       0       0       0       0
  1977 ;;      Temps:          0       0       0       0       0       0       0       0       0       0       0       0       
      +0       0       0       0       0
  1978 ;;      Totals:         4       0       0       0       0       0       0       0       0       0       0       0       
      +0       0       0       0       0
  1979 ;;Total ram usage:        4 bytes
  1980 ;; Hardware stack levels used: 1
  1981 ;; Hardware stack levels required when called: 5
  1982 ;; This function calls:
  1983 ;;		_vfpfcnvrt
  1984 ;; This function is called by:
  1985 ;;		_sprintf
  1986 ;; This function uses a non-reentrant model
  1987 ;;
  1988                           
  1989                           	psect	text7
  1990   002BEA                     __ptext7:
  1991                           	callstack 0
  1992   002BEA                     _vfprintf:
  1993                           	callstack 23
  1994   002BEA                     
  1995                           ;C:\Program Files\Microchip\xc8\v2.45\pic\sources\c99\common\doprnt.c: 1817: int vfprint
      +                          f(FILE *fp, const char *fmt, va_list ap);C:\Program Files\Microchip\xc8\v2.45\pic\source
      +                          s\c99\common\doprnt.c: 1818: {;C:\Program Files\Microchip\xc8\v2.45\pic\sources\c99\comm
      +                          on\doprnt.c: 1820:     char *cfmt;;C:\Program Files\Microchip\xc8\v2.45\pic\sources\c99\
      +                          common\doprnt.c: 1822:     cfmt = (char *)fmt;
  1996   002BEA  C050  F052         	movff	vfprintf@fmt,vfprintf@cfmt
  1997                           
  1998                           ;C:\Program Files\Microchip\xc8\v2.45\pic\sources\c99\common\doprnt.c: 1826:     while (
      +                          *cfmt) {
  1999   002BEE  EF01  F016         	goto	l7427
  2000   002BF2                     l7425:
  2001                           
  2002                           ;C:\Program Files\Microchip\xc8\v2.45\pic\sources\c99\common\doprnt.c: 1830:    vfpfcnvr
      +                          t(fp, &cfmt, ap);
  2003   002BF2  C04F  F044         	movff	vfprintf@fp,vfpfcnvrt@fp
  2004   002BF6  0E52               	movlw	low vfprintf@cfmt
  2005   002BF8  6E45               	movwf	vfpfcnvrt@fmt^0,c
  2006   002BFA  C051  F046         	movff	vfprintf@ap,vfpfcnvrt@ap
  2007   002BFE  EC11  F00C         	call	_vfpfcnvrt	;wreg free
  2008   002C02                     l7427:
  2009                           
  2010                           ;C:\Program Files\Microchip\xc8\v2.45\pic\sources\c99\common\doprnt.c: 1826:     while (
      +                          *cfmt) {
  2011   002C02  C052  FFF6         	movff	vfprintf@cfmt,tblptrl
  2012   002C06                     	if	1	;There is more than 1 active tblptr byte
  2013   002C06  0E10               	movlw	high __smallconst
  2014   002C08  6EF7               	movwf	tblptrh,c
  2015   002C0A                     	endif
  2016   002C0A                     	if	1	;Program memory is < 0x10000, tblptru is always zero
  2017   002C0A  6AF8               	clrf	tblptru,c
  2018   002C0C                     	endif
  2019   002C0C                     	if	0	;tblptru may be non-zero
  2020   002C0C                     	endif
  2021   002C0C  0008               	tblrd		*
  2022   002C0E  50F5               	movf	tablat,w,c
  2023   002C10  0900               	iorlw	0
  2024   002C12  A4D8               	btfss	status,2,c
  2025   002C14  EF0E  F016         	goto	u6811
  2026   002C18  EF10  F016         	goto	u6810
  2027   002C1C                     u6811:
  2028   002C1C  EFF9  F015         	goto	l7425
  2029   002C20                     u6810:
  2030   002C20                     
  2031                           ;C:\Program Files\Microchip\xc8\v2.45\pic\sources\c99\common\doprnt.c: 1835:  return 0;
  2032   002C20  0E00               	movlw	0
  2033   002C22  6E50               	movwf	(?_vfprintf+1)^0,c
  2034   002C24  0E00               	movlw	0
  2035   002C26  6E4F               	movwf	?_vfprintf^0,c
  2036   002C28  0012               	return		;funcret
  2037   002C2A                     __end_of_vfprintf:
  2038                           	callstack 0
  2039                           
  2040 ;; *************** function _vfpfcnvrt *****************
  2041 ;; Defined at:
  2042 ;;		line 1177 in file "C:\Program Files\Microchip\xc8\v2.45\pic\sources\c99\common\doprnt.c"
  2043 ;; Parameters:    Size  Location     Type
  2044 ;;  fp              1   11[COMRAM] PTR struct _IO_FILE
  2045 ;;		 -> sprintf@f(12), 
  2046 ;;  fmt             1   12[COMRAM] PTR PTR unsigned char 
  2047 ;;		 -> vfprintf@cfmt(1), 
  2048 ;;  ap              1   13[COMRAM] PTR PTR void 
  2049 ;;		 -> sprintf@ap(1), 
  2050 ;; Auto vars:     Size  Location     Type
  2051 ;;  convarg         4   17[COMRAM] struct .
  2052 ;;  c               1   21[COMRAM] unsigned char 
  2053 ;;  cp              1   16[COMRAM] PTR unsigned char 
  2054 ;;		 -> STR_3(3), STR_2(3), STR_1(3), 
  2055 ;;  done            1   15[COMRAM] _Bool 
  2056 ;; Return value:  Size  Location     Type
  2057 ;;                  1    wreg      void 
  2058 ;; Registers used:
  2059 ;;		wreg, fsr1l, fsr1h, fsr2l, fsr2h, status,2, status,0, tblptrl, tblptrh, tblptru, cstack
  2060 ;; Tracked objects:
  2061 ;;		On entry : 0/0
  2062 ;;		On exit  : 0/0
  2063 ;;		Unchanged: 0/0
  2064 ;; Data sizes:     COMRAM   BANK0   BANK1   BANK2   BANK3   BANK4   BANK5   BANK6   BANK7   BANK8   BANK9  BANK10  BANK1
      +1  BANK12  BANK13  BANK14  BANK15
  2065 ;;      Params:         3       0       0       0       0       0       0       0       0       0       0       0       
      +0       0       0       0       0
  2066 ;;      Locals:         7       0       0       0       0       0       0       0       0       0       0       0       
      +0       0       0       0       0
  2067 ;;      Temps:          1       0       0       0       0       0       0       0       0       0       0       0       
      +0       0       0       0       0
  2068 ;;      Totals:        11       0       0       0       0       0       0       0       0       0       0       0       
      +0       0       0       0       0
  2069 ;;Total ram usage:       11 bytes
  2070 ;; Hardware stack levels used: 1
  2071 ;; Hardware stack levels required when called: 4
  2072 ;; This function calls:
  2073 ;;		___awdiv
  2074 ;;		___awmod
  2075 ;;		_abs
  2076 ;;		_fputc
  2077 ;; This function is called by:
  2078 ;;		_vfprintf
  2079 ;; This function uses a non-reentrant model
  2080 ;;
  2081                           
  2082                           	psect	text8
  2083   001822                     __ptext8:
  2084                           	callstack 0
  2085   001822                     _vfpfcnvrt:
  2086                           	callstack 23
  2087   001822                     
  2088                           ;C:\Program Files\Microchip\xc8\v2.45\pic\sources\c99\common\doprnt.c: 1177: vfpfcnvrt(F
      +                          ILE *fp, char *fmt[], va_list ap);C:\Program Files\Microchip\xc8\v2.45\pic\sources\c99\c
      +                          ommon\doprnt.c: 1178: {;C:\Program Files\Microchip\xc8\v2.45\pic\sources\c99\common\dopr
      +                          nt.c: 1179:     char c, *cp;;C:\Program Files\Microchip\xc8\v2.45\pic\sources\c99\common
      +                          \doprnt.c: 1180:     _Bool done;;C:\Program Files\Microchip\xc8\v2.45\pic\sources\c99\co
      +                          mmon\doprnt.c: 1188:  } convarg;;C:\Program Files\Microchip\xc8\v2.45\pic\sources\c99\co
      +                          mmon\doprnt.c: 1201:     if ((*fmt)[0] == '%') {
  2089   001822  5045               	movf	vfpfcnvrt@fmt^0,w,c
  2090   001824  6ED9               	movwf	fsr2l,c
  2091   001826  6ADA               	clrf	fsr2h,c
  2092   001828  CFDF FFF6          	movff	indf2,tblptrl
  2093   00182C                     	if	1	;There is more than 1 active tblptr byte
  2094   00182C  0E10               	movlw	high __smallconst
  2095   00182E  6EF7               	movwf	tblptrh,c
  2096   001830                     	endif
  2097   001830                     	if	1	;Program memory is < 0x10000, tblptru is always zero
  2098   001830  6AF8               	clrf	tblptru,c
  2099   001832                     	endif
  2100   001832                     	if	0	;tblptru may be non-zero
  2101   001832                     	endif
  2102   001832  0008               	tblrd		*
  2103   001834  50F5               	movf	tablat,w,c
  2104   001836  0A25               	xorlw	37
  2105   001838  A4D8               	btfss	status,2,c
  2106   00183A  EF21  F00C         	goto	u6711
  2107   00183E  EF23  F00C         	goto	u6710
  2108   001842                     u6711:
  2109   001842  EFDF  F00C         	goto	l7417
  2110   001846                     u6710:
  2111   001846                     
  2112                           ;C:\Program Files\Microchip\xc8\v2.45\pic\sources\c99\common\doprnt.c: 1202:         ++*
      +                          fmt;
  2113   001846  5045               	movf	vfpfcnvrt@fmt^0,w,c
  2114   001848  6ED9               	movwf	fsr2l,c
  2115   00184A  6ADA               	clrf	fsr2h,c
  2116   00184C  2ADF               	incf	indf2,f,c
  2117   00184E                     
  2118                           ;C:\Program Files\Microchip\xc8\v2.45\pic\sources\c99\common\doprnt.c: 1204:         fla
      +                          gs = width = 0;
  2119   00184E  0E00               	movlw	0
  2120   001850  0100               	movlb	0	; () banked
  2121   001852  6FA7               	movwf	(_width+1)& (0+255),b
  2122   001854  0E00               	movlw	0
  2123   001856  6FA6               	movwf	_width& (0+255),b
  2124   001858  C0A6  F02D         	movff	_width,_flags
  2125   00185C                     
  2126                           ; BSR set to: 0
  2127                           ;C:\Program Files\Microchip\xc8\v2.45\pic\sources\c99\common\doprnt.c: 1205:         pre
      +                          c = -1;
  2128   00185C  69A8               	setf	_prec& (0+255),b
  2129   00185E  69A9               	setf	(_prec+1)& (0+255),b
  2130   001860                     
  2131                           ; BSR set to: 0
  2132                           ;C:\Program Files\Microchip\xc8\v2.45\pic\sources\c99\common\doprnt.c: 1291:   cp = *fmt
      +                          ;
  2133   001860  5045               	movf	vfpfcnvrt@fmt^0,w,c
  2134   001862  6ED9               	movwf	fsr2l,c
  2135   001864  6ADA               	clrf	fsr2h,c
  2136   001866  50DF               	movf	indf2,w,c
  2137   001868  6E49               	movwf	vfpfcnvrt@cp^0,c
  2138   00186A                     
  2139                           ; BSR set to: 0
  2140                           ;C:\Program Files\Microchip\xc8\v2.45\pic\sources\c99\common\doprnt.c: 1361:   if (*cp =
      +                          = 'd' || *cp == 'i') {
  2141   00186A  C049  FFF6         	movff	vfpfcnvrt@cp,tblptrl
  2142   00186E                     	if	1	;There is more than 1 active tblptr byte
  2143   00186E  0E10               	movlw	high __smallconst
  2144   001870  6EF7               	movwf	tblptrh,c
  2145   001872                     	endif
  2146   001872                     	if	1	;Program memory is < 0x10000, tblptru is always zero
  2147   001872  6AF8               	clrf	tblptru,c
  2148   001874                     	endif
  2149   001874                     	if	0	;tblptru may be non-zero
  2150   001874                     	endif
  2151   001874  0008               	tblrd		*
  2152   001876  50F5               	movf	tablat,w,c
  2153   001878  0A64               	xorlw	100
  2154   00187A  B4D8               	btfsc	status,2,c
  2155   00187C  EF42  F00C         	goto	u6721
  2156   001880  EF44  F00C         	goto	u6720
  2157   001884                     u6721:
  2158   001884  EF53  F00C         	goto	l7387
  2159   001888                     u6720:
  2160   001888                     
  2161                           ; BSR set to: 0
  2162   001888  C049  FFF6         	movff	vfpfcnvrt@cp,tblptrl
  2163   00188C                     	if	1	;There is more than 1 active tblptr byte
  2164   00188C  0E10               	movlw	high __smallconst
  2165   00188E  6EF7               	movwf	tblptrh,c
  2166   001890                     	endif
  2167   001890                     	if	1	;Program memory is < 0x10000, tblptru is always zero
  2168   001890  6AF8               	clrf	tblptru,c
  2169   001892                     	endif
  2170   001892                     	if	0	;tblptru may be non-zero
  2171   001892                     	endif
  2172   001892  0008               	tblrd		*
  2173   001894  50F5               	movf	tablat,w,c
  2174   001896  0A69               	xorlw	105
  2175   001898  A4D8               	btfss	status,2,c
  2176   00189A  EF51  F00C         	goto	u6731
  2177   00189E  EF53  F00C         	goto	u6730
  2178   0018A2                     u6731:
  2179   0018A2  EFD9  F00C         	goto	l7413
  2180   0018A6                     u6730:
  2181   0018A6                     l7387:
  2182                           
  2183                           ; BSR set to: 0
  2184                           ;C:\Program Files\Microchip\xc8\v2.45\pic\sources\c99\common\doprnt.c: 1404:    convarg.
      +                          sint = (vfpf_sint_t)(int)(*(int *)__va_arg(*(int **)ap, (int)0));
  2185   0018A6  5046               	movf	vfpfcnvrt@ap^0,w,c
  2186   0018A8  6ED9               	movwf	fsr2l,c
  2187   0018AA  6ADA               	clrf	fsr2h,c
  2188   0018AC  0E02               	movlw	2
  2189   0018AE  26DF               	addwf	indf2,f,c
  2190   0018B0  5CDF               	subwf	indf2,w,c
  2191   0018B2  6ED9               	movwf	fsr2l,c
  2192   0018B4  6ADA               	clrf	fsr2h,c
  2193   0018B6  CFDE F04A          	movff	postinc2,vfpfcnvrt@convarg
  2194   0018BA  CFDE F04B          	movff	postinc2,vfpfcnvrt@convarg+1
  2195   0018BE                     
  2196                           ; BSR set to: 0
  2197                           ;C:\Program Files\Microchip\xc8\v2.45\pic\sources\c99\common\doprnt.c: 1406:    *fmt = c
      +                          p+1;
  2198   0018BE  5045               	movf	vfpfcnvrt@fmt^0,w,c
  2199   0018C0  6ED9               	movwf	fsr2l,c
  2200   0018C2  6ADA               	clrf	fsr2h,c
  2201   0018C4  2849               	incf	vfpfcnvrt@cp^0,w,c
  2202   0018C6  6EDF               	movwf	indf2,c
  2203   0018C8                     
  2204                           ; BSR set to: 0
  2205                           ;C:\Program Files\Microchip\xc8\v2.45\pic\sources\c99\common\doprnt.c: 1408:    c = size
      +                          of(dbuf);
  2206   0018C8  0E20               	movlw	32
  2207   0018CA  6E4E               	movwf	vfpfcnvrt@c^0,c
  2208                           
  2209                           ;C:\Program Files\Microchip\xc8\v2.45\pic\sources\c99\common\doprnt.c: 1409:    done = c
      +                          onvarg.sint < 0;
  2210   0018CC  BE4B               	btfsc	(vfpfcnvrt@convarg+1)^0,7,c
  2211   0018CE  EF6B  F00C         	goto	u6741
  2212   0018D2  EF6E  F00C         	goto	u6740
  2213   0018D6                     u6741:
  2214   0018D6  0E01               	movlw	1
  2215   0018D8  EF6F  F00C         	goto	u6750
  2216   0018DC                     u6740:
  2217   0018DC  0E00               	movlw	0
  2218   0018DE                     u6750:
  2219   0018DE  6E48               	movwf	vfpfcnvrt@done^0,c
  2220   0018E0                     l7393:
  2221                           
  2222                           ;C:\Program Files\Microchip\xc8\v2.45\pic\sources\c99\common\doprnt.c: 1411:     dbuf[--
      +                          c] = abs(convarg.sint % 10) + '0';
  2223   0018E0  064E               	decf	vfpfcnvrt@c^0,f,c
  2224   0018E2  504E               	movf	vfpfcnvrt@c^0,w,c
  2225   0018E4  0F80               	addlw	low _dbuf
  2226   0018E6  6ED9               	movwf	fsr2l,c
  2227   0018E8  6ADA               	clrf	fsr2h,c
  2228   0018EA  C04A  F03A         	movff	vfpfcnvrt@convarg,___awmod@dividend
  2229   0018EE  C04B  F03B         	movff	vfpfcnvrt@convarg+1,___awmod@dividend+1
  2230   0018F2  0E00               	movlw	0
  2231   0018F4  6E3D               	movwf	(___awmod@divisor+1)^0,c
  2232   0018F6  0E0A               	movlw	10
  2233   0018F8  6E3C               	movwf	___awmod@divisor^0,c
  2234   0018FA  EC1F  F012         	call	___awmod	;wreg free
  2235   0018FE  C03A  F040         	movff	?___awmod,abs@a
  2236   001902  C03B  F041         	movff	?___awmod+1,abs@a+1
  2237   001906  ECC3  F016         	call	_abs	;wreg free
  2238   00190A  5040               	movf	?_abs^0,w,c
  2239   00190C  0F30               	addlw	48
  2240   00190E  6EDF               	movwf	indf2,c
  2241   001910                     
  2242                           ;C:\Program Files\Microchip\xc8\v2.45\pic\sources\c99\common\doprnt.c: 1412:     convarg
      +                          .sint /= 10;
  2243   001910  C04A  F03A         	movff	vfpfcnvrt@convarg,___awdiv@dividend
  2244   001914  C04B  F03B         	movff	vfpfcnvrt@convarg+1,___awdiv@dividend+1
  2245   001918  0E00               	movlw	0
  2246   00191A  6E3D               	movwf	(___awdiv@divisor+1)^0,c
  2247   00191C  0E0A               	movlw	10
  2248   00191E  6E3C               	movwf	___awdiv@divisor^0,c
  2249   001920  EC61  F011         	call	___awdiv	;wreg free
  2250   001924  C03A  F04A         	movff	?___awdiv,vfpfcnvrt@convarg
  2251   001928  C03B  F04B         	movff	?___awdiv+1,vfpfcnvrt@convarg+1
  2252   00192C                     
  2253                           ;C:\Program Files\Microchip\xc8\v2.45\pic\sources\c99\common\doprnt.c: 1416:    } while 
      +                          (convarg.sint != 0 && c != 0);
  2254   00192C  504A               	movf	vfpfcnvrt@convarg^0,w,c
  2255   00192E  104B               	iorwf	(vfpfcnvrt@convarg+1)^0,w,c
  2256   001930  B4D8               	btfsc	status,2,c
  2257   001932  EF9D  F00C         	goto	u6761
  2258   001936  EF9F  F00C         	goto	u6760
  2259   00193A                     u6761:
  2260   00193A  EFA7  F00C         	goto	l7401
  2261   00193E                     u6760:
  2262   00193E  504E               	movf	vfpfcnvrt@c^0,w,c
  2263   001940  A4D8               	btfss	status,2,c
  2264   001942  EFA5  F00C         	goto	u6771
  2265   001946  EFA7  F00C         	goto	u6770
  2266   00194A                     u6771:
  2267   00194A  EF70  F00C         	goto	l7393
  2268   00194E                     u6770:
  2269   00194E                     l7401:
  2270                           
  2271                           ;C:\Program Files\Microchip\xc8\v2.45\pic\sources\c99\common\doprnt.c: 1417:    if (c !=
      +                           0 && done) {
  2272   00194E  504E               	movf	vfpfcnvrt@c^0,w,c
  2273   001950  B4D8               	btfsc	status,2,c
  2274   001952  EFAD  F00C         	goto	u6781
  2275   001956  EFAF  F00C         	goto	u6780
  2276   00195A                     u6781:
  2277   00195A  EFCE  F00C         	goto	l7411
  2278   00195E                     u6780:
  2279   00195E  5048               	movf	vfpfcnvrt@done^0,w,c
  2280   001960  B4D8               	btfsc	status,2,c
  2281   001962  EFB5  F00C         	goto	u6791
  2282   001966  EFB7  F00C         	goto	u6790
  2283   00196A                     u6791:
  2284   00196A  EFCE  F00C         	goto	l7411
  2285   00196E                     u6790:
  2286   00196E                     
  2287                           ;C:\Program Files\Microchip\xc8\v2.45\pic\sources\c99\common\doprnt.c: 1418:     dbuf[--
      +                          c] = '-';
  2288   00196E  064E               	decf	vfpfcnvrt@c^0,f,c
  2289   001970  504E               	movf	vfpfcnvrt@c^0,w,c
  2290   001972  0F80               	addlw	low _dbuf
  2291   001974  6ED9               	movwf	fsr2l,c
  2292   001976  6ADA               	clrf	fsr2h,c
  2293   001978  0E2D               	movlw	45
  2294   00197A  6EDF               	movwf	indf2,c
  2295   00197C  EFCE  F00C         	goto	l7411
  2296   001980                     l7407:
  2297                           
  2298                           ;C:\Program Files\Microchip\xc8\v2.45\pic\sources\c99\common\doprnt.c: 1424:     fputc(d
      +                          buf[c++], fp);
  2299   001980  504E               	movf	vfpfcnvrt@c^0,w,c
  2300   001982  0F80               	addlw	low _dbuf
  2301   001984  6ED9               	movwf	fsr2l,c
  2302   001986  6ADA               	clrf	fsr2h,c
  2303   001988  50DF               	movf	indf2,w,c
  2304   00198A  6E47               	movwf	??_vfpfcnvrt^0,c
  2305   00198C  5047               	movf	??_vfpfcnvrt^0,w,c
  2306   00198E  6E3A               	movwf	fputc@c^0,c
  2307   001990  6A3B               	clrf	(fputc@c+1)^0,c
  2308   001992  C044  F03C         	movff	vfpfcnvrt@fp,fputc@fp
  2309   001996  ECCD  F012         	call	_fputc	;wreg free
  2310   00199A  2A4E               	incf	vfpfcnvrt@c^0,f,c
  2311   00199C                     l7411:
  2312                           
  2313                           ;C:\Program Files\Microchip\xc8\v2.45\pic\sources\c99\common\doprnt.c: 1423:    while (c
      +                           != sizeof(dbuf)) {
  2314   00199C  0E20               	movlw	32
  2315   00199E  184E               	xorwf	vfpfcnvrt@c^0,w,c
  2316   0019A0  A4D8               	btfss	status,2,c
  2317   0019A2  EFD5  F00C         	goto	u6801
  2318   0019A6  EFD7  F00C         	goto	u6800
  2319   0019AA                     u6801:
  2320   0019AA  EFC0  F00C         	goto	l7407
  2321   0019AE                     u6800:
  2322   0019AE  EFF1  F00C         	goto	l2293
  2323   0019B2                     l7413:
  2324                           
  2325                           ;C:\Program Files\Microchip\xc8\v2.45\pic\sources\c99\common\doprnt.c: 1806:         ++*
      +                          fmt;
  2326   0019B2  5045               	movf	vfpfcnvrt@fmt^0,w,c
  2327   0019B4  6ED9               	movwf	fsr2l,c
  2328   0019B6  6ADA               	clrf	fsr2h,c
  2329   0019B8  2ADF               	incf	indf2,f,c
  2330   0019BA  EFF1  F00C         	goto	l2293
  2331   0019BE                     l7417:
  2332                           
  2333                           ;C:\Program Files\Microchip\xc8\v2.45\pic\sources\c99\common\doprnt.c: 1811:     fputc((
      +                          int)(*fmt)[0], fp);
  2334   0019BE  5045               	movf	vfpfcnvrt@fmt^0,w,c
  2335   0019C0  6ED9               	movwf	fsr2l,c
  2336   0019C2  6ADA               	clrf	fsr2h,c
  2337   0019C4  CFDF FFF6          	movff	indf2,tblptrl
  2338   0019C8                     	if	1	;There is more than 1 active tblptr byte
  2339   0019C8  0E10               	movlw	high __smallconst
  2340   0019CA  6EF7               	movwf	tblptrh,c
  2341   0019CC                     	endif
  2342   0019CC                     	if	1	;Program memory is < 0x10000, tblptru is always zero
  2343   0019CC  6AF8               	clrf	tblptru,c
  2344   0019CE                     	endif
  2345   0019CE                     	if	0	;tblptru may be non-zero
  2346   0019CE                     	endif
  2347   0019CE  0008               	tblrd		*
  2348   0019D0  50F5               	movf	tablat,w,c
  2349   0019D2  6E3A               	movwf	fputc@c^0,c
  2350   0019D4  6A3B               	clrf	(fputc@c+1)^0,c
  2351   0019D6  C044  F03C         	movff	vfpfcnvrt@fp,fputc@fp
  2352   0019DA  ECCD  F012         	call	_fputc	;wreg free
  2353   0019DE  EFD9  F00C         	goto	l7413
  2354   0019E2                     l2293:
  2355   0019E2  0012               	return		;funcret
  2356   0019E4                     __end_of_vfpfcnvrt:
  2357                           	callstack 0
  2358                           
  2359 ;; *************** function _fputc *****************
  2360 ;; Defined at:
  2361 ;;		line 8 in file "C:\Program Files\Microchip\xc8\v2.45\pic\sources\c99\common\nf_fputc.c"
  2362 ;; Parameters:    Size  Location     Type
  2363 ;;  c               2    1[COMRAM] int 
  2364 ;;  fp              1    3[COMRAM] PTR struct _IO_FILE
  2365 ;;		 -> sprintf@f(12), 
  2366 ;; Auto vars:     Size  Location     Type
  2367 ;;		None
  2368 ;; Return value:  Size  Location     Type
  2369 ;;                  2    1[COMRAM] int 
  2370 ;; Registers used:
  2371 ;;		wreg, fsr1l, fsr1h, fsr2l, fsr2h, status,2, status,0, cstack
  2372 ;; Tracked objects:
  2373 ;;		On entry : 0/0
  2374 ;;		On exit  : 0/0
  2375 ;;		Unchanged: 0/0
  2376 ;; Data sizes:     COMRAM   BANK0   BANK1   BANK2   BANK3   BANK4   BANK5   BANK6   BANK7   BANK8   BANK9  BANK10  BANK1
      +1  BANK12  BANK13  BANK14  BANK15
  2377 ;;      Params:         3       0       0       0       0       0       0       0       0       0       0       0       
      +0       0       0       0       0
  2378 ;;      Locals:         0       0       0       0       0       0       0       0       0       0       0       0       
      +0       0       0       0       0
  2379 ;;      Temps:          5       0       0       0       0       0       0       0       0       0       0       0       
      +0       0       0       0       0
  2380 ;;      Totals:         8       0       0       0       0       0       0       0       0       0       0       0       
      +0       0       0       0       0
  2381 ;;Total ram usage:        8 bytes
  2382 ;; Hardware stack levels used: 1
  2383 ;; Hardware stack levels required when called: 3
  2384 ;; This function calls:
  2385 ;;		_putch
  2386 ;; This function is called by:
  2387 ;;		_vfpfcnvrt
  2388 ;; This function uses a non-reentrant model
  2389 ;;
  2390                           
  2391                           	psect	text9
  2392   00259A                     __ptext9:
  2393                           	callstack 0
  2394   00259A                     _fputc:
  2395                           	callstack 23
  2396   00259A  503C               	movf	fputc@fp^0,w,c
  2397   00259C  B4D8               	btfsc	status,2,c
  2398   00259E  EFD3  F012         	goto	u6661
  2399   0025A2  EFD5  F012         	goto	u6660
  2400   0025A6                     u6661:
  2401   0025A6  EFDD  F012         	goto	l7359
  2402   0025AA                     u6660:
  2403   0025AA  503C               	movf	fputc@fp^0,w,c
  2404   0025AC  A4D8               	btfss	status,2,c
  2405   0025AE  EFDB  F012         	goto	u6671
  2406   0025B2  EFDD  F012         	goto	u6670
  2407   0025B6                     u6671:
  2408   0025B6  EFE2  F012         	goto	l7361
  2409   0025BA                     u6670:
  2410   0025BA                     l7359:
  2411   0025BA  503A               	movf	fputc@c^0,w,c
  2412   0025BC  ECC5  F017         	call	_putch
  2413   0025C0  EF21  F013         	goto	l2318
  2414   0025C4                     l7361:
  2415   0025C4  503C               	movf	fputc@fp^0,w,c
  2416   0025C6  6ED9               	movwf	fsr2l,c
  2417   0025C8  6ADA               	clrf	fsr2h,c
  2418   0025CA  0E0A               	movlw	10
  2419   0025CC  26D9               	addwf	fsr2l,f,c
  2420   0025CE  50DE               	movf	postinc2,w,c
  2421   0025D0  10DE               	iorwf	postinc2,w,c
  2422   0025D2  B4D8               	btfsc	status,2,c
  2423   0025D4  EFEE  F012         	goto	u6681
  2424   0025D8  EFF0  F012         	goto	u6680
  2425   0025DC                     u6681:
  2426   0025DC  EF09  F013         	goto	l7365
  2427   0025E0                     u6680:
  2428   0025E0  503C               	movf	fputc@fp^0,w,c
  2429   0025E2  6ED9               	movwf	fsr2l,c
  2430   0025E4  6ADA               	clrf	fsr2h,c
  2431   0025E6  0E0A               	movlw	10
  2432   0025E8  26D9               	addwf	fsr2l,f,c
  2433   0025EA  503C               	movf	fputc@fp^0,w,c
  2434   0025EC  6EE1               	movwf	fsr1l,c
  2435   0025EE  6AE2               	clrf	fsr1h,c
  2436   0025F0  0E03               	movlw	3
  2437   0025F2  26E1               	addwf	fsr1l,f,c
  2438   0025F4  50DE               	movf	postinc2,w,c
  2439   0025F6  5CE6               	subwf	postinc1,w,c
  2440   0025F8  50E6               	movf	postinc1,w,c
  2441   0025FA  0A80               	xorlw	128
  2442   0025FC  6E41               	movwf	(??_fputc+4)^0,c
  2443   0025FE  50DE               	movf	postinc2,w,c
  2444   002600  0A80               	xorlw	128
  2445   002602  5841               	subwfb	(??_fputc+4)^0,w,c
  2446   002604  B0D8               	btfsc	status,0,c
  2447   002606  EF07  F013         	goto	u6691
  2448   00260A  EF09  F013         	goto	u6690
  2449   00260E                     u6691:
  2450   00260E  EF21  F013         	goto	l2318
  2451   002612                     u6690:
  2452   002612                     l7365:
  2453   002612  503C               	movf	fputc@fp^0,w,c
  2454   002614  6ED9               	movwf	fsr2l,c
  2455   002616  6ADA               	clrf	fsr2h,c
  2456   002618  0E03               	movlw	3
  2457   00261A  26D9               	addwf	fsr2l,f,c
  2458   00261C  50DF               	movf	indf2,w,c
  2459   00261E  6E3D               	movwf	??_fputc^0,c
  2460   002620  503C               	movf	fputc@fp^0,w,c
  2461   002622  6ED9               	movwf	fsr2l,c
  2462   002624  6ADA               	clrf	fsr2h,c
  2463   002626  50DF               	movf	indf2,w,c
  2464   002628  243D               	addwf	??_fputc^0,w,c
  2465   00262A  6ED9               	movwf	fsr2l,c
  2466   00262C  6ADA               	clrf	fsr2h,c
  2467   00262E  C03A  FFDF         	movff	fputc@c,indf2
  2468   002632  503C               	movf	fputc@fp^0,w,c
  2469   002634  6ED9               	movwf	fsr2l,c
  2470   002636  6ADA               	clrf	fsr2h,c
  2471   002638  0E03               	movlw	3
  2472   00263A  26D9               	addwf	fsr2l,f,c
  2473   00263C  2ADE               	incf	postinc2,f,c
  2474   00263E  0E00               	movlw	0
  2475   002640  22DD               	addwfc	postdec2,f,c
  2476   002642                     l2318:
  2477   002642  0012               	return		;funcret
  2478   002644                     __end_of_fputc:
  2479                           	callstack 0
  2480                           
  2481 ;; *************** function _putch *****************
  2482 ;; Defined at:
  2483 ;;		line 7 in file "C:\Program Files\Microchip\xc8\v2.45\pic\sources\c99\common\putch.c"
  2484 ;; Parameters:    Size  Location     Type
  2485 ;;  c               1    wreg     unsigned char 
  2486 ;; Auto vars:     Size  Location     Type
  2487 ;;  c               1    0[COMRAM] unsigned char 
  2488 ;; Return value:  Size  Location     Type
  2489 ;;                  1    wreg      void 
  2490 ;; Registers used:
  2491 ;;		wreg
  2492 ;; Tracked objects:
  2493 ;;		On entry : 0/0
  2494 ;;		On exit  : 0/0
  2495 ;;		Unchanged: 0/0
  2496 ;; Data sizes:     COMRAM   BANK0   BANK1   BANK2   BANK3   BANK4   BANK5   BANK6   BANK7   BANK8   BANK9  BANK10  BANK1
      +1  BANK12  BANK13  BANK14  BANK15
  2497 ;;      Params:         0       0       0       0       0       0       0       0       0       0       0       0       
      +0       0       0       0       0
  2498 ;;      Locals:         0       0       0       0       0       0       0       0       0       0       0       0       
      +0       0       0       0       0
  2499 ;;      Temps:          0       0       0       0       0       0       0       0       0       0       0       0       
      +0       0       0       0       0
  2500 ;;      Totals:         0       0       0       0       0       0       0       0       0       0       0       0       
      +0       0       0       0       0
  2501 ;;Total ram usage:        0 bytes
  2502 ;; Hardware stack levels used: 1
  2503 ;; Hardware stack levels required when called: 2
  2504 ;; This function calls:
  2505 ;;		Nothing
  2506 ;; This function is called by:
  2507 ;;		_fputc
  2508 ;; This function uses a non-reentrant model
  2509 ;;
  2510                           
  2511                           	psect	text10
  2512   002F8A                     __ptext10:
  2513                           	callstack 0
  2514   002F8A                     _putch:
  2515                           	callstack 23
  2516   002F8A  0012               	return		;funcret
  2517   002F8C                     __end_of_putch:
  2518                           	callstack 0
  2519                           
  2520 ;; *************** function _abs *****************
  2521 ;; Defined at:
  2522 ;;		line 1 in file "C:\Program Files\Microchip\xc8\v2.45\pic\sources\c99\common\abs.c"
  2523 ;; Parameters:    Size  Location     Type
  2524 ;;  a               2    7[COMRAM] int 
  2525 ;; Auto vars:     Size  Location     Type
  2526 ;;		None
  2527 ;; Return value:  Size  Location     Type
  2528 ;;                  2    7[COMRAM] int 
  2529 ;; Registers used:
  2530 ;;		wreg, status,2, status,0
  2531 ;; Tracked objects:
  2532 ;;		On entry : 0/0
  2533 ;;		On exit  : 0/0
  2534 ;;		Unchanged: 0/0
  2535 ;; Data sizes:     COMRAM   BANK0   BANK1   BANK2   BANK3   BANK4   BANK5   BANK6   BANK7   BANK8   BANK9  BANK10  BANK1
      +1  BANK12  BANK13  BANK14  BANK15
  2536 ;;      Params:         2       0       0       0       0       0       0       0       0       0       0       0       
      +0       0       0       0       0
  2537 ;;      Locals:         0       0       0       0       0       0       0       0       0       0       0       0       
      +0       0       0       0       0
  2538 ;;      Temps:          2       0       0       0       0       0       0       0       0       0       0       0       
      +0       0       0       0       0
  2539 ;;      Totals:         4       0       0       0       0       0       0       0       0       0       0       0       
      +0       0       0       0       0
  2540 ;;Total ram usage:        4 bytes
  2541 ;; Hardware stack levels used: 1
  2542 ;; Hardware stack levels required when called: 2
  2543 ;; This function calls:
  2544 ;;		Nothing
  2545 ;; This function is called by:
  2546 ;;		_vfpfcnvrt
  2547 ;; This function uses a non-reentrant model
  2548 ;;
  2549                           
  2550                           	psect	text11
  2551   002D86                     __ptext11:
  2552                           	callstack 0
  2553   002D86                     _abs:
  2554                           	callstack 24
  2555   002D86  BE41               	btfsc	(abs@a+1)^0,7,c
  2556   002D88  EFC8  F016         	goto	u6701
  2557   002D8C  EFCA  F016         	goto	u6700
  2558   002D90                     u6701:
  2559   002D90  EFD0  F016         	goto	l2303
  2560   002D94                     u6700:
  2561   002D94  C040  F040         	movff	abs@a,?_abs
  2562   002D98  C041  F041         	movff	abs@a+1,?_abs+1
  2563   002D9C  EFDC  F016         	goto	l2306
  2564   002DA0                     l2303:
  2565   002DA0  C040  F042         	movff	abs@a,??_abs
  2566   002DA4  C041  F043         	movff	abs@a+1,??_abs+1
  2567   002DA8  1E42               	comf	??_abs^0,f,c
  2568   002DAA  1E43               	comf	(??_abs+1)^0,f,c
  2569   002DAC  4A42               	infsnz	??_abs^0,f,c
  2570   002DAE  2A43               	incf	(??_abs+1)^0,f,c
  2571   002DB0  C042  F040         	movff	??_abs,?_abs
  2572   002DB4  C043  F041         	movff	??_abs+1,?_abs+1
  2573   002DB8                     l2306:
  2574   002DB8  0012               	return		;funcret
  2575   002DBA                     __end_of_abs:
  2576                           	callstack 0
  2577                           
  2578 ;; *************** function ___awmod *****************
  2579 ;; Defined at:
  2580 ;;		line 7 in file "C:\Program Files\Microchip\xc8\v2.45\pic\sources\c99\common\awmod.c"
  2581 ;; Parameters:    Size  Location     Type
  2582 ;;  dividend        2    1[COMRAM] int 
  2583 ;;  divisor         2    3[COMRAM] int 
  2584 ;; Auto vars:     Size  Location     Type
  2585 ;;  sign            1    6[COMRAM] unsigned char 
  2586 ;;  counter         1    5[COMRAM] unsigned char 
  2587 ;; Return value:  Size  Location     Type
  2588 ;;                  2    1[COMRAM] int 
  2589 ;; Registers used:
  2590 ;;		wreg, status,2, status,0
  2591 ;; Tracked objects:
  2592 ;;		On entry : 0/0
  2593 ;;		On exit  : 0/0
  2594 ;;		Unchanged: 0/0
  2595 ;; Data sizes:     COMRAM   BANK0   BANK1   BANK2   BANK3   BANK4   BANK5   BANK6   BANK7   BANK8   BANK9  BANK10  BANK1
      +1  BANK12  BANK13  BANK14  BANK15
  2596 ;;      Params:         4       0       0       0       0       0       0       0       0       0       0       0       
      +0       0       0       0       0
  2597 ;;      Locals:         2       0       0       0       0       0       0       0       0       0       0       0       
      +0       0       0       0       0
  2598 ;;      Temps:          0       0       0       0       0       0       0       0       0       0       0       0       
      +0       0       0       0       0
  2599 ;;      Totals:         6       0       0       0       0       0       0       0       0       0       0       0       
      +0       0       0       0       0
  2600 ;;Total ram usage:        6 bytes
  2601 ;; Hardware stack levels used: 1
  2602 ;; Hardware stack levels required when called: 2
  2603 ;; This function calls:
  2604 ;;		Nothing
  2605 ;; This function is called by:
  2606 ;;		_vfpfcnvrt
  2607 ;; This function uses a non-reentrant model
  2608 ;;
  2609                           
  2610                           	psect	text12
  2611   00243E                     __ptext12:
  2612                           	callstack 0
  2613   00243E                     ___awmod:
  2614                           	callstack 24
  2615   00243E  0E00               	movlw	0
  2616   002440  6E3F               	movwf	___awmod@sign^0,c
  2617   002442  BE3B               	btfsc	(___awmod@dividend+1)^0,7,c
  2618   002444  EF28  F012         	goto	u6600
  2619   002448  EF26  F012         	goto	u6601
  2620   00244C                     u6601:
  2621   00244C  EF2E  F012         	goto	l7327
  2622   002450                     u6600:
  2623   002450  6C3A               	negf	___awmod@dividend^0,c
  2624   002452  1E3B               	comf	(___awmod@dividend+1)^0,f,c
  2625   002454  B0D8               	btfsc	status,0,c
  2626   002456  2A3B               	incf	(___awmod@dividend+1)^0,f,c
  2627   002458  0E01               	movlw	1
  2628   00245A  6E3F               	movwf	___awmod@sign^0,c
  2629   00245C                     l7327:
  2630   00245C  BE3D               	btfsc	(___awmod@divisor+1)^0,7,c
  2631   00245E  EF35  F012         	goto	u6610
  2632   002462  EF33  F012         	goto	u6611
  2633   002466                     u6611:
  2634   002466  EF39  F012         	goto	l7331
  2635   00246A                     u6610:
  2636   00246A  6C3C               	negf	___awmod@divisor^0,c
  2637   00246C  1E3D               	comf	(___awmod@divisor+1)^0,f,c
  2638   00246E  B0D8               	btfsc	status,0,c
  2639   002470  2A3D               	incf	(___awmod@divisor+1)^0,f,c
  2640   002472                     l7331:
  2641   002472  503C               	movf	___awmod@divisor^0,w,c
  2642   002474  103D               	iorwf	(___awmod@divisor+1)^0,w,c
  2643   002476  B4D8               	btfsc	status,2,c
  2644   002478  EF40  F012         	goto	u6621
  2645   00247C  EF42  F012         	goto	u6620
  2646   002480                     u6621:
  2647   002480  EF66  F012         	goto	l7347
  2648   002484                     u6620:
  2649   002484  0E01               	movlw	1
  2650   002486  6E3E               	movwf	___awmod@counter^0,c
  2651   002488  EF4A  F012         	goto	l7337
  2652   00248C                     l7335:
  2653   00248C  90D8               	bcf	status,0,c
  2654   00248E  363C               	rlcf	___awmod@divisor^0,f,c
  2655   002490  363D               	rlcf	(___awmod@divisor+1)^0,f,c
  2656   002492  2A3E               	incf	___awmod@counter^0,f,c
  2657   002494                     l7337:
  2658   002494  AE3D               	btfss	(___awmod@divisor+1)^0,7,c
  2659   002496  EF4F  F012         	goto	u6631
  2660   00249A  EF51  F012         	goto	u6630
  2661   00249E                     u6631:
  2662   00249E  EF46  F012         	goto	l7335
  2663   0024A2                     u6630:
  2664   0024A2                     l7339:
  2665   0024A2  503C               	movf	___awmod@divisor^0,w,c
  2666   0024A4  5C3A               	subwf	___awmod@dividend^0,w,c
  2667   0024A6  503D               	movf	(___awmod@divisor+1)^0,w,c
  2668   0024A8  583B               	subwfb	(___awmod@dividend+1)^0,w,c
  2669   0024AA  A0D8               	btfss	status,0,c
  2670   0024AC  EF5A  F012         	goto	u6641
  2671   0024B0  EF5C  F012         	goto	u6640
  2672   0024B4                     u6641:
  2673   0024B4  EF60  F012         	goto	l7343
  2674   0024B8                     u6640:
  2675   0024B8  503C               	movf	___awmod@divisor^0,w,c
  2676   0024BA  5E3A               	subwf	___awmod@dividend^0,f,c
  2677   0024BC  503D               	movf	(___awmod@divisor+1)^0,w,c
  2678   0024BE  5A3B               	subwfb	(___awmod@dividend+1)^0,f,c
  2679   0024C0                     l7343:
  2680   0024C0  90D8               	bcf	status,0,c
  2681   0024C2  323D               	rrcf	(___awmod@divisor+1)^0,f,c
  2682   0024C4  323C               	rrcf	___awmod@divisor^0,f,c
  2683   0024C6  2E3E               	decfsz	___awmod@counter^0,f,c
  2684   0024C8  EF51  F012         	goto	l7339
  2685   0024CC                     l7347:
  2686   0024CC  503F               	movf	___awmod@sign^0,w,c
  2687   0024CE  B4D8               	btfsc	status,2,c
  2688   0024D0  EF6C  F012         	goto	u6651
  2689   0024D4  EF6E  F012         	goto	u6650
  2690   0024D8                     u6651:
  2691   0024D8  EF72  F012         	goto	l7351
  2692   0024DC                     u6650:
  2693   0024DC  6C3A               	negf	___awmod@dividend^0,c
  2694   0024DE  1E3B               	comf	(___awmod@dividend+1)^0,f,c
  2695   0024E0  B0D8               	btfsc	status,0,c
  2696   0024E2  2A3B               	incf	(___awmod@dividend+1)^0,f,c
  2697   0024E4                     l7351:
  2698   0024E4  C03A  F03A         	movff	___awmod@dividend,?___awmod
  2699   0024E8  C03B  F03B         	movff	___awmod@dividend+1,?___awmod+1
  2700   0024EC  0012               	return		;funcret
  2701   0024EE                     __end_of___awmod:
  2702                           	callstack 0
  2703                           
  2704 ;; *************** function ___awdiv *****************
  2705 ;; Defined at:
  2706 ;;		line 7 in file "C:\Program Files\Microchip\xc8\v2.45\pic\sources\c99\common\awdiv.c"
  2707 ;; Parameters:    Size  Location     Type
  2708 ;;  dividend        2    1[COMRAM] int 
  2709 ;;  divisor         2    3[COMRAM] int 
  2710 ;; Auto vars:     Size  Location     Type
  2711 ;;  quotient        2    7[COMRAM] int 
  2712 ;;  sign            1    6[COMRAM] unsigned char 
  2713 ;;  counter         1    5[COMRAM] unsigned char 
  2714 ;; Return value:  Size  Location     Type
  2715 ;;                  2    1[COMRAM] int 
  2716 ;; Registers used:
  2717 ;;		wreg, status,2, status,0
  2718 ;; Tracked objects:
  2719 ;;		On entry : 0/0
  2720 ;;		On exit  : 0/0
  2721 ;;		Unchanged: 0/0
  2722 ;; Data sizes:     COMRAM   BANK0   BANK1   BANK2   BANK3   BANK4   BANK5   BANK6   BANK7   BANK8   BANK9  BANK10  BANK1
      +1  BANK12  BANK13  BANK14  BANK15
  2723 ;;      Params:         4       0       0       0       0       0       0       0       0       0       0       0       
      +0       0       0       0       0
  2724 ;;      Locals:         4       0       0       0       0       0       0       0       0       0       0       0       
      +0       0       0       0       0
  2725 ;;      Temps:          0       0       0       0       0       0       0       0       0       0       0       0       
      +0       0       0       0       0
  2726 ;;      Totals:         8       0       0       0       0       0       0       0       0       0       0       0       
      +0       0       0       0       0
  2727 ;;Total ram usage:        8 bytes
  2728 ;; Hardware stack levels used: 1
  2729 ;; Hardware stack levels required when called: 2
  2730 ;; This function calls:
  2731 ;;		Nothing
  2732 ;; This function is called by:
  2733 ;;		_vfpfcnvrt
  2734 ;; This function uses a non-reentrant model
  2735 ;;
  2736                           
  2737                           	psect	text13
  2738   0022C2                     __ptext13:
  2739                           	callstack 0
  2740   0022C2                     ___awdiv:
  2741                           	callstack 24
  2742   0022C2  0E00               	movlw	0
  2743   0022C4  6E3F               	movwf	___awdiv@sign^0,c
  2744   0022C6  BE3D               	btfsc	(___awdiv@divisor+1)^0,7,c
  2745   0022C8  EF6A  F011         	goto	u6540
  2746   0022CC  EF68  F011         	goto	u6541
  2747   0022D0                     u6541:
  2748   0022D0  EF70  F011         	goto	l7283
  2749   0022D4                     u6540:
  2750   0022D4  6C3C               	negf	___awdiv@divisor^0,c
  2751   0022D6  1E3D               	comf	(___awdiv@divisor+1)^0,f,c
  2752   0022D8  B0D8               	btfsc	status,0,c
  2753   0022DA  2A3D               	incf	(___awdiv@divisor+1)^0,f,c
  2754   0022DC  0E01               	movlw	1
  2755   0022DE  6E3F               	movwf	___awdiv@sign^0,c
  2756   0022E0                     l7283:
  2757   0022E0  BE3B               	btfsc	(___awdiv@dividend+1)^0,7,c
  2758   0022E2  EF77  F011         	goto	u6550
  2759   0022E6  EF75  F011         	goto	u6551
  2760   0022EA                     u6551:
  2761   0022EA  EF7D  F011         	goto	l7289
  2762   0022EE                     u6550:
  2763   0022EE  6C3A               	negf	___awdiv@dividend^0,c
  2764   0022F0  1E3B               	comf	(___awdiv@dividend+1)^0,f,c
  2765   0022F2  B0D8               	btfsc	status,0,c
  2766   0022F4  2A3B               	incf	(___awdiv@dividend+1)^0,f,c
  2767   0022F6  0E01               	movlw	1
  2768   0022F8  1A3F               	xorwf	___awdiv@sign^0,f,c
  2769   0022FA                     l7289:
  2770   0022FA  0E00               	movlw	0
  2771   0022FC  6E41               	movwf	(___awdiv@quotient+1)^0,c
  2772   0022FE  0E00               	movlw	0
  2773   002300  6E40               	movwf	___awdiv@quotient^0,c
  2774   002302  503C               	movf	___awdiv@divisor^0,w,c
  2775   002304  103D               	iorwf	(___awdiv@divisor+1)^0,w,c
  2776   002306  B4D8               	btfsc	status,2,c
  2777   002308  EF88  F011         	goto	u6561
  2778   00230C  EF8A  F011         	goto	u6560
  2779   002310                     u6561:
  2780   002310  EFB2  F011         	goto	l7311
  2781   002314                     u6560:
  2782   002314  0E01               	movlw	1
  2783   002316  6E3E               	movwf	___awdiv@counter^0,c
  2784   002318  EF92  F011         	goto	l7297
  2785   00231C                     l7295:
  2786   00231C  90D8               	bcf	status,0,c
  2787   00231E  363C               	rlcf	___awdiv@divisor^0,f,c
  2788   002320  363D               	rlcf	(___awdiv@divisor+1)^0,f,c
  2789   002322  2A3E               	incf	___awdiv@counter^0,f,c
  2790   002324                     l7297:
  2791   002324  AE3D               	btfss	(___awdiv@divisor+1)^0,7,c
  2792   002326  EF97  F011         	goto	u6571
  2793   00232A  EF99  F011         	goto	u6570
  2794   00232E                     u6571:
  2795   00232E  EF8E  F011         	goto	l7295
  2796   002332                     u6570:
  2797   002332                     l7299:
  2798   002332  90D8               	bcf	status,0,c
  2799   002334  3640               	rlcf	___awdiv@quotient^0,f,c
  2800   002336  3641               	rlcf	(___awdiv@quotient+1)^0,f,c
  2801   002338  503C               	movf	___awdiv@divisor^0,w,c
  2802   00233A  5C3A               	subwf	___awdiv@dividend^0,w,c
  2803   00233C  503D               	movf	(___awdiv@divisor+1)^0,w,c
  2804   00233E  583B               	subwfb	(___awdiv@dividend+1)^0,w,c
  2805   002340  A0D8               	btfss	status,0,c
  2806   002342  EFA5  F011         	goto	u6581
  2807   002346  EFA7  F011         	goto	u6580
  2808   00234A                     u6581:
  2809   00234A  EFAC  F011         	goto	l7307
  2810   00234E                     u6580:
  2811   00234E  503C               	movf	___awdiv@divisor^0,w,c
  2812   002350  5E3A               	subwf	___awdiv@dividend^0,f,c
  2813   002352  503D               	movf	(___awdiv@divisor+1)^0,w,c
  2814   002354  5A3B               	subwfb	(___awdiv@dividend+1)^0,f,c
  2815   002356  8040               	bsf	___awdiv@quotient^0,0,c
  2816   002358                     l7307:
  2817   002358  90D8               	bcf	status,0,c
  2818   00235A  323D               	rrcf	(___awdiv@divisor+1)^0,f,c
  2819   00235C  323C               	rrcf	___awdiv@divisor^0,f,c
  2820   00235E  2E3E               	decfsz	___awdiv@counter^0,f,c
  2821   002360  EF99  F011         	goto	l7299
  2822   002364                     l7311:
  2823   002364  503F               	movf	___awdiv@sign^0,w,c
  2824   002366  B4D8               	btfsc	status,2,c
  2825   002368  EFB8  F011         	goto	u6591
  2826   00236C  EFBA  F011         	goto	u6590
  2827   002370                     u6591:
  2828   002370  EFBE  F011         	goto	l7315
  2829   002374                     u6590:
  2830   002374  6C40               	negf	___awdiv@quotient^0,c
  2831   002376  1E41               	comf	(___awdiv@quotient+1)^0,f,c
  2832   002378  B0D8               	btfsc	status,0,c
  2833   00237A  2A41               	incf	(___awdiv@quotient+1)^0,f,c
  2834   00237C                     l7315:
  2835   00237C  C040  F03A         	movff	___awdiv@quotient,?___awdiv
  2836   002380  C041  F03B         	movff	___awdiv@quotient+1,?___awdiv+1
  2837   002384  0012               	return		;funcret
  2838   002386                     __end_of___awdiv:
  2839                           	callstack 0
  2840                           
  2841 ;; *************** function _memset *****************
  2842 ;; Defined at:
  2843 ;;		line 3 in file "C:\Program Files\Microchip\xc8\v2.45\pic\sources\c99\common\memset.c"
  2844 ;; Parameters:    Size  Location     Type
  2845 ;;  dest            1    1[COMRAM] PTR void 
  2846 ;;		 -> lm35_res_1_txt(7), 
  2847 ;;  c               2    2[COMRAM] int 
  2848 ;;  n               2    4[COMRAM] unsigned int 
  2849 ;; Auto vars:     Size  Location     Type
  2850 ;;  p               1    6[COMRAM] PTR unsigned char 
  2851 ;;		 -> lm35_res_1_txt(7), 
  2852 ;; Return value:  Size  Location     Type
  2853 ;;                  1    wreg      PTR void 
  2854 ;; Registers used:
  2855 ;;		wreg, fsr2l, fsr2h, status,2, status,0
  2856 ;; Tracked objects:
  2857 ;;		On entry : 0/0
  2858 ;;		On exit  : 0/0
  2859 ;;		Unchanged: 0/0
  2860 ;; Data sizes:     COMRAM   BANK0   BANK1   BANK2   BANK3   BANK4   BANK5   BANK6   BANK7   BANK8   BANK9  BANK10  BANK1
      +1  BANK12  BANK13  BANK14  BANK15
  2861 ;;      Params:         5       0       0       0       0       0       0       0       0       0       0       0       
      +0       0       0       0       0
  2862 ;;      Locals:         1       0       0       0       0       0       0       0       0       0       0       0       
      +0       0       0       0       0
  2863 ;;      Temps:          0       0       0       0       0       0       0       0       0       0       0       0       
      +0       0       0       0       0
  2864 ;;      Totals:         6       0       0       0       0       0       0       0       0       0       0       0       
      +0       0       0       0       0
  2865 ;;Total ram usage:        6 bytes
  2866 ;; Hardware stack levels used: 1
  2867 ;; Hardware stack levels required when called: 2
  2868 ;; This function calls:
  2869 ;;		Nothing
  2870 ;; This function is called by:
  2871 ;;		_convert_uint16_to_string
  2872 ;;		_convert_uint8_to_string
  2873 ;;		_convert_uint32_to_string
  2874 ;; This function uses a non-reentrant model
  2875 ;;
  2876                           
  2877                           	psect	text14
  2878   002DEE                     __ptext14:
  2879                           	callstack 0
  2880   002DEE                     _memset:
  2881                           	callstack 27
  2882   002DEE  C03A  F03F         	movff	memset@dest,memset@p
  2883   002DF2  EF01  F017         	goto	l7439
  2884   002DF6                     l7435:
  2885   002DF6  503F               	movf	memset@p^0,w,c
  2886   002DF8  6ED9               	movwf	fsr2l,c
  2887   002DFA  6ADA               	clrf	fsr2h,c
  2888   002DFC  C03B  FFDF         	movff	memset@c,indf2
  2889   002E00  2A3F               	incf	memset@p^0,f,c
  2890   002E02                     l7439:
  2891   002E02  063D               	decf	memset@n^0,f,c
  2892   002E04  A0D8               	btfss	status,0,c
  2893   002E06  063E               	decf	(memset@n+1)^0,f,c
  2894   002E08  283D               	incf	memset@n^0,w,c
  2895   002E0A  E106               	bnz	u6821
  2896   002E0C  283E               	incf	(memset@n+1)^0,w,c
  2897   002E0E  A4D8               	btfss	status,2,c
  2898   002E10  EF0C  F017         	goto	u6821
  2899   002E14  EF0E  F017         	goto	u6820
  2900   002E18                     u6821:
  2901   002E18  EFFB  F016         	goto	l7435
  2902   002E1C                     u6820:
  2903   002E1C  0012               	return		;funcret
  2904   002E1E                     __end_of_memset:
  2905                           	callstack 0
  2906                           
  2907 ;; *************** function _application_intialize *****************
  2908 ;; Defined at:
  2909 ;;		line 49 in file "app1.c"
  2910 ;; Parameters:    Size  Location     Type
  2911 ;;		None
  2912 ;; Auto vars:     Size  Location     Type
  2913 ;;  ret             1    0        unsigned char 
  2914 ;; Return value:  Size  Location     Type
  2915 ;;                  1    wreg      void 
  2916 ;; Registers used:
  2917 ;;		wreg, fsr2l, fsr2h, status,2, status,0, prodl, prodh, cstack
  2918 ;; Tracked objects:
  2919 ;;		On entry : 0/0
  2920 ;;		On exit  : 0/0
  2921 ;;		Unchanged: 0/0
  2922 ;; Data sizes:     COMRAM   BANK0   BANK1   BANK2   BANK3   BANK4   BANK5   BANK6   BANK7   BANK8   BANK9  BANK10  BANK1
      +1  BANK12  BANK13  BANK14  BANK15
  2923 ;;      Params:         0       0       0       0       0       0       0       0       0       0       0       0       
      +0       0       0       0       0
  2924 ;;      Locals:         0       0       0       0       0       0       0       0       0       0       0       0       
      +0       0       0       0       0
  2925 ;;      Temps:          0       0       0       0       0       0       0       0       0       0       0       0       
      +0       0       0       0       0
  2926 ;;      Totals:         0       0       0       0       0       0       0       0       0       0       0       0       
      +0       0       0       0       0
  2927 ;;Total ram usage:        0 bytes
  2928 ;; Hardware stack levels used: 1
  2929 ;; Hardware stack levels required when called: 7
  2930 ;; This function calls:
  2931 ;;		_ecu_layer_intialize
  2932 ;; This function is called by:
  2933 ;;		_main
  2934 ;; This function uses a non-reentrant model
  2935 ;;
  2936                           
  2937                           	psect	text15
  2938   002F64                     __ptext15:
  2939                           	callstack 0
  2940   002F64                     _application_intialize:
  2941                           	callstack 23
  2942   002F64                     
  2943                           ;app1.c: 51:     ecu_layer_intialize();
  2944   002F64  EC27  F017         	call	_ecu_layer_intialize	;wreg free
  2945   002F68  0012               	return		;funcret
  2946   002F6A                     __end_of_application_intialize:
  2947                           	callstack 0
  2948                           
  2949 ;; *************** function _ecu_layer_intialize *****************
  2950 ;; Defined at:
  2951 ;;		line 109 in file "ECU_Layer/ecu_layer_init.c"
  2952 ;; Parameters:    Size  Location     Type
  2953 ;;		None
  2954 ;; Auto vars:     Size  Location     Type
  2955 ;;  ret             1    0        unsigned char 
  2956 ;; Return value:  Size  Location     Type
  2957 ;;                  1    wreg      void 
  2958 ;; Registers used:
  2959 ;;		wreg, fsr2l, fsr2h, status,2, status,0, prodl, prodh, cstack
  2960 ;; Tracked objects:
  2961 ;;		On entry : 0/0
  2962 ;;		On exit  : 0/0
  2963 ;;		Unchanged: 0/0
  2964 ;; Data sizes:     COMRAM   BANK0   BANK1   BANK2   BANK3   BANK4   BANK5   BANK6   BANK7   BANK8   BANK9  BANK10  BANK1
      +1  BANK12  BANK13  BANK14  BANK15
  2965 ;;      Params:         0       0       0       0       0       0       0       0       0       0       0       0       
      +0       0       0       0       0
  2966 ;;      Locals:         0       0       0       0       0       0       0       0       0       0       0       0       
      +0       0       0       0       0
  2967 ;;      Temps:          0       0       0       0       0       0       0       0       0       0       0       0       
      +0       0       0       0       0
  2968 ;;      Totals:         0       0       0       0       0       0       0       0       0       0       0       0       
      +0       0       0       0       0
  2969 ;;Total ram usage:        0 bytes
  2970 ;; Hardware stack levels used: 1
  2971 ;; Hardware stack levels required when called: 6
  2972 ;; This function calls:
  2973 ;;		_ADC_Init
  2974 ;;		_dc_motor_initialize
  2975 ;;		_keypad_initialize
  2976 ;;		_lcd_4bit_intialize
  2977 ;; This function is called by:
  2978 ;;		_application_intialize
  2979 ;; This function uses a non-reentrant model
  2980 ;;
  2981                           
  2982                           	psect	text16
  2983   002E4E                     __ptext16:
  2984                           	callstack 0
  2985   002E4E                     _ecu_layer_intialize:
  2986                           	callstack 23
  2987   002E4E  0ED9               	movlw	low _keypad_1
  2988   002E50  6E45               	movwf	keypad_initialize@_keypad_obj^0,c
  2989   002E52  EC94  F014         	call	_keypad_initialize	;wreg free
  2990   002E56  0E79               	movlw	low _dc_motor_1
  2991   002E58  6E45               	movwf	dc_motor_initialize@_dc_motor^0,c
  2992   002E5A  EC0F  F017         	call	_dc_motor_initialize	;wreg free
  2993   002E5E  0E77               	movlw	low _dc_motor_2
  2994   002E60  6E45               	movwf	dc_motor_initialize@_dc_motor^0,c
  2995   002E62  EC0F  F017         	call	_dc_motor_initialize	;wreg free
  2996   002E66  0EE8               	movlw	low _lcd_1
  2997   002E68  6E48               	movwf	lcd_4bit_intialize@lcd^0,c
  2998   002E6A  EC82  F010         	call	_lcd_4bit_intialize	;wreg free
  2999   002E6E  0EE1               	movlw	low _adc_1
  3000   002E70  6E3D               	movwf	ADC_Init@_adc^0,c
  3001   002E72  EC77  F012         	call	_ADC_Init	;wreg free
  3002   002E76  0012               	return		;funcret
  3003   002E78                     __end_of_ecu_layer_intialize:
  3004                           	callstack 0
  3005                           
  3006 ;; *************** function _lcd_4bit_intialize *****************
  3007 ;; Defined at:
  3008 ;;		line 24 in file "ECU_Layer/Chr_LCD/ecu_chr_lcd.c"
  3009 ;; Parameters:    Size  Location     Type
  3010 ;;  lcd             1   15[COMRAM] PTR const struct .
  3011 ;;		 -> lcd_1(6), 
  3012 ;; Auto vars:     Size  Location     Type
  3013 ;;  ret             1   18[COMRAM] unsigned char 
  3014 ;;  l_data_pins_    1   17[COMRAM] unsigned char 
  3015 ;; Return value:  Size  Location     Type
  3016 ;;                  1    wreg      unsigned char 
  3017 ;; Registers used:
  3018 ;;		wreg, fsr2l, fsr2h, status,2, status,0, prodl, prodh, cstack
  3019 ;; Tracked objects:
  3020 ;;		On entry : 0/0
  3021 ;;		On exit  : 0/0
  3022 ;;		Unchanged: 0/0
  3023 ;; Data sizes:     COMRAM   BANK0   BANK1   BANK2   BANK3   BANK4   BANK5   BANK6   BANK7   BANK8   BANK9  BANK10  BANK1
      +1  BANK12  BANK13  BANK14  BANK15
  3024 ;;      Params:         1       0       0       0       0       0       0       0       0       0       0       0       
      +0       0       0       0       0
  3025 ;;      Locals:         2       0       0       0       0       0       0       0       0       0       0       0       
      +0       0       0       0       0
  3026 ;;      Temps:          1       0       0       0       0       0       0       0       0       0       0       0       
      +0       0       0       0       0
  3027 ;;      Totals:         4       0       0       0       0       0       0       0       0       0       0       0       
      +0       0       0       0       0
  3028 ;;Total ram usage:        4 bytes
  3029 ;; Hardware stack levels used: 1
  3030 ;; Hardware stack levels required when called: 5
  3031 ;; This function calls:
  3032 ;;		_gpio_pin_direction_initialize
  3033 ;;		_lcd_4bit_send_command
  3034 ;; This function is called by:
  3035 ;;		_ecu_layer_intialize
  3036 ;; This function uses a non-reentrant model
  3037 ;;
  3038                           
  3039                           	psect	text17
  3040   002104                     __ptext17:
  3041                           	callstack 0
  3042   002104                     _lcd_4bit_intialize:
  3043                           	callstack 23
  3044   002104                     
  3045                           ;ECU_Layer/Chr_LCD/ecu_chr_lcd.c: 26:     uint8 l_data_pins_counter = 0;
  3046   002104  0E00               	movlw	0
  3047   002106  6E4A               	movwf	lcd_4bit_intialize@l_data_pins_counter^0,c
  3048                           
  3049                           ;ECU_Layer/Chr_LCD/ecu_chr_lcd.c: 27:     if(((void*)0) == lcd){
  3050   002108  5048               	movf	lcd_4bit_intialize@lcd^0,w,c
  3051   00210A  A4D8               	btfss	status,2,c
  3052   00210C  EF8A  F010         	goto	u4131
  3053   002110  EF8C  F010         	goto	u4130
  3054   002114                     u4131:
  3055   002114  EF90  F010         	goto	l5497
  3056   002118                     u4130:
  3057   002118                     
  3058                           ;ECU_Layer/Chr_LCD/ecu_chr_lcd.c: 28:         ret = (std_ReturnType) 0x00;
  3059   002118  0E00               	movlw	0
  3060   00211A  6E4B               	movwf	lcd_4bit_intialize@ret^0,c
  3061                           
  3062                           ;ECU_Layer/Chr_LCD/ecu_chr_lcd.c: 29:     }
  3063   00211C  EFF3  F010         	goto	l5533
  3064   002120                     l5497:
  3065                           
  3066                           ;ECU_Layer/Chr_LCD/ecu_chr_lcd.c: 31:         ret = gpio_pin_direction_initialize(&(lcd-
      +                          >lcd_rs));
  3067   002120  C048  F03A         	movff	lcd_4bit_intialize@lcd,gpio_pin_direction_initialize@_pin_config
  3068   002124  EC6D  F00E         	call	_gpio_pin_direction_initialize	;wreg free
  3069   002128  6E4B               	movwf	lcd_4bit_intialize@ret^0,c
  3070                           
  3071                           ;ECU_Layer/Chr_LCD/ecu_chr_lcd.c: 32:         ret = gpio_pin_direction_initialize(&(lcd-
      +                          >lcd_en));
  3072   00212A  2848               	incf	lcd_4bit_intialize@lcd^0,w,c
  3073   00212C  6E3A               	movwf	gpio_pin_direction_initialize@_pin_config^0,c
  3074   00212E  EC6D  F00E         	call	_gpio_pin_direction_initialize	;wreg free
  3075   002132  6E4B               	movwf	lcd_4bit_intialize@ret^0,c
  3076   002134                     
  3077                           ;ECU_Layer/Chr_LCD/ecu_chr_lcd.c: 33:         for(l_data_pins_counter=0; l_data_pins_cou
      +                          nter<4; l_data_pins_counter++){
  3078   002134  0E00               	movlw	0
  3079   002136  6E4A               	movwf	lcd_4bit_intialize@l_data_pins_counter^0,c
  3080   002138                     l5505:
  3081   002138  5048               	movf	lcd_4bit_intialize@lcd^0,w,c
  3082   00213A  244A               	addwf	lcd_4bit_intialize@l_data_pins_counter^0,w,c
  3083   00213C  0F02               	addlw	2
  3084   00213E  6E3A               	movwf	gpio_pin_direction_initialize@_pin_config^0,c
  3085   002140  EC6D  F00E         	call	_gpio_pin_direction_initialize	;wreg free
  3086   002144                     
  3087                           ;ECU_Layer/Chr_LCD/ecu_chr_lcd.c: 35:         }
  3088   002144  2A4A               	incf	lcd_4bit_intialize@l_data_pins_counter^0,f,c
  3089   002146  0E03               	movlw	3
  3090   002148  644A               	cpfsgt	lcd_4bit_intialize@l_data_pins_counter^0,c
  3091   00214A  EFA9  F010         	goto	u4141
  3092   00214E  EFAB  F010         	goto	u4140
  3093   002152                     u4141:
  3094   002152  EF9C  F010         	goto	l5505
  3095   002156                     u4140:
  3096   002156                     
  3097                           ;ECU_Layer/Chr_LCD/ecu_chr_lcd.c: 36:         _delay((unsigned long)((20)*(8000000/4000.
      +                          0)));
  3098   002156  0E34               	movlw	52
  3099   002158  6E49               	movwf	??_lcd_4bit_intialize^0,c
  3100   00215A  0EF2               	movlw	242
  3101   00215C                     u6927:
  3102   00215C  2EE8               	decfsz	wreg,f,c
  3103   00215E  D7FE               	bra	u6927
  3104   002160  2E49               	decfsz	??_lcd_4bit_intialize^0,f,c
  3105   002162  D7FC               	bra	u6927
  3106   002164  C048  F045         	movff	lcd_4bit_intialize@lcd,lcd_4bit_send_command@lcd
  3107   002168  0E38               	movlw	56
  3108   00216A  6E46               	movwf	lcd_4bit_send_command@command^0,c
  3109   00216C  EC58  F015         	call	_lcd_4bit_send_command	;wreg free
  3110   002170                     
  3111                           ;ECU_Layer/Chr_LCD/ecu_chr_lcd.c: 38:         _delay((unsigned long)((5)*(8000000/4000.0
      +                          )));
  3112   002170  0E0D               	movlw	13
  3113   002172  6E49               	movwf	??_lcd_4bit_intialize^0,c
  3114   002174  0EFC               	movlw	252
  3115   002176                     u6937:
  3116   002176  2EE8               	decfsz	wreg,f,c
  3117   002178  D7FE               	bra	u6937
  3118   00217A  2E49               	decfsz	??_lcd_4bit_intialize^0,f,c
  3119   00217C  D7FC               	bra	u6937
  3120   00217E  C048  F045         	movff	lcd_4bit_intialize@lcd,lcd_4bit_send_command@lcd
  3121   002182  0E38               	movlw	56
  3122   002184  6E46               	movwf	lcd_4bit_send_command@command^0,c
  3123   002186  EC58  F015         	call	_lcd_4bit_send_command	;wreg free
  3124   00218A                     
  3125                           ;ECU_Layer/Chr_LCD/ecu_chr_lcd.c: 40:         _delay((unsigned long)((150)*(8000000/4000
      +                          000.0)));
  3126   00218A  0E64               	movlw	100
  3127   00218C                     u6947:
  3128   00218C  2EE8               	decfsz	wreg,f,c
  3129   00218E  D7FE               	bra	u6947
  3130   002190  C048  F045         	movff	lcd_4bit_intialize@lcd,lcd_4bit_send_command@lcd
  3131   002194  0E38               	movlw	56
  3132   002196  6E46               	movwf	lcd_4bit_send_command@command^0,c
  3133   002198  EC58  F015         	call	_lcd_4bit_send_command	;wreg free
  3134   00219C  C048  F045         	movff	lcd_4bit_intialize@lcd,lcd_4bit_send_command@lcd
  3135   0021A0  0E01               	movlw	1
  3136   0021A2  6E46               	movwf	lcd_4bit_send_command@command^0,c
  3137   0021A4  EC58  F015         	call	_lcd_4bit_send_command	;wreg free
  3138   0021A8  C048  F045         	movff	lcd_4bit_intialize@lcd,lcd_4bit_send_command@lcd
  3139   0021AC  0E02               	movlw	2
  3140   0021AE  6E46               	movwf	lcd_4bit_send_command@command^0,c
  3141   0021B0  EC58  F015         	call	_lcd_4bit_send_command	;wreg free
  3142   0021B4  C048  F045         	movff	lcd_4bit_intialize@lcd,lcd_4bit_send_command@lcd
  3143   0021B8  0E06               	movlw	6
  3144   0021BA  6E46               	movwf	lcd_4bit_send_command@command^0,c
  3145   0021BC  EC58  F015         	call	_lcd_4bit_send_command	;wreg free
  3146   0021C0  C048  F045         	movff	lcd_4bit_intialize@lcd,lcd_4bit_send_command@lcd
  3147   0021C4  0E0C               	movlw	12
  3148   0021C6  6E46               	movwf	lcd_4bit_send_command@command^0,c
  3149   0021C8  EC58  F015         	call	_lcd_4bit_send_command	;wreg free
  3150   0021CC  C048  F045         	movff	lcd_4bit_intialize@lcd,lcd_4bit_send_command@lcd
  3151   0021D0  0E28               	movlw	40
  3152   0021D2  6E46               	movwf	lcd_4bit_send_command@command^0,c
  3153   0021D4  EC58  F015         	call	_lcd_4bit_send_command	;wreg free
  3154   0021D8                     
  3155                           ;ECU_Layer/Chr_LCD/ecu_chr_lcd.c: 48:         ret = lcd_4bit_send_command(lcd, 0x80);
  3156   0021D8  C048  F045         	movff	lcd_4bit_intialize@lcd,lcd_4bit_send_command@lcd
  3157   0021DC  0E80               	movlw	128
  3158   0021DE  6E46               	movwf	lcd_4bit_send_command@command^0,c
  3159   0021E0  EC58  F015         	call	_lcd_4bit_send_command	;wreg free
  3160   0021E4  6E4B               	movwf	lcd_4bit_intialize@ret^0,c
  3161   0021E6                     l5533:
  3162                           
  3163                           ;ECU_Layer/Chr_LCD/ecu_chr_lcd.c: 50:     return ret;
  3164   0021E6  504B               	movf	lcd_4bit_intialize@ret^0,w,c
  3165   0021E8  0012               	return		;funcret
  3166   0021EA                     __end_of_lcd_4bit_intialize:
  3167                           	callstack 0
  3168                           
  3169 ;; *************** function _keypad_initialize *****************
  3170 ;; Defined at:
  3171 ;;		line 25 in file "ECU_Layer/KeyPad/ecu_keypad.c"
  3172 ;; Parameters:    Size  Location     Type
  3173 ;;  _keypad_obj     1   12[COMRAM] PTR const struct .
  3174 ;;		 -> keypad_1(8), 
  3175 ;; Auto vars:     Size  Location     Type
  3176 ;;  columns_coun    1   15[COMRAM] unsigned char 
  3177 ;;  rows_counter    1   14[COMRAM] unsigned char 
  3178 ;;  ret             1   13[COMRAM] unsigned char 
  3179 ;; Return value:  Size  Location     Type
  3180 ;;                  1    wreg      unsigned char 
  3181 ;; Registers used:
  3182 ;;		wreg, fsr2l, fsr2h, status,2, status,0, prodl, prodh, cstack
  3183 ;; Tracked objects:
  3184 ;;		On entry : 0/0
  3185 ;;		On exit  : 0/0
  3186 ;;		Unchanged: 0/0
  3187 ;; Data sizes:     COMRAM   BANK0   BANK1   BANK2   BANK3   BANK4   BANK5   BANK6   BANK7   BANK8   BANK9  BANK10  BANK1
      +1  BANK12  BANK13  BANK14  BANK15
  3188 ;;      Params:         1       0       0       0       0       0       0       0       0       0       0       0       
      +0       0       0       0       0
  3189 ;;      Locals:         3       0       0       0       0       0       0       0       0       0       0       0       
      +0       0       0       0       0
  3190 ;;      Temps:          0       0       0       0       0       0       0       0       0       0       0       0       
      +0       0       0       0       0
  3191 ;;      Totals:         4       0       0       0       0       0       0       0       0       0       0       0       
      +0       0       0       0       0
  3192 ;;Total ram usage:        4 bytes
  3193 ;; Hardware stack levels used: 1
  3194 ;; Hardware stack levels required when called: 4
  3195 ;; This function calls:
  3196 ;;		_gpio_pin_direction_initialize
  3197 ;;		_gpio_pin_initialize
  3198 ;; This function is called by:
  3199 ;;		_ecu_layer_intialize
  3200 ;; This function uses a non-reentrant model
  3201 ;;
  3202                           
  3203                           	psect	text18
  3204   002928                     __ptext18:
  3205                           	callstack 0
  3206   002928                     _keypad_initialize:
  3207                           	callstack 24
  3208   002928                     
  3209                           ;ECU_Layer/KeyPad/ecu_keypad.c: 27:  uint8 rows_counter = 0, columns_counter = 0;
  3210   002928  0E00               	movlw	0
  3211   00292A  6E47               	movwf	keypad_initialize@rows_counter^0,c
  3212   00292C  0E00               	movlw	0
  3213   00292E  6E48               	movwf	keypad_initialize@columns_counter^0,c
  3214                           
  3215                           ;ECU_Layer/KeyPad/ecu_keypad.c: 28:      if(((void*)0) == _keypad_obj){
  3216   002930  5045               	movf	keypad_initialize@_keypad_obj^0,w,c
  3217   002932  A4D8               	btfss	status,2,c
  3218   002934  EF9E  F014         	goto	u4171
  3219   002938  EFA0  F014         	goto	u4170
  3220   00293C                     u4171:
  3221   00293C  EFA4  F014         	goto	l5587
  3222   002940                     u4170:
  3223   002940                     
  3224                           ;ECU_Layer/KeyPad/ecu_keypad.c: 29:         ret = (std_ReturnType) 0x00;
  3225   002940  0E00               	movlw	0
  3226   002942  6E46               	movwf	keypad_initialize@ret^0,c
  3227                           
  3228                           ;ECU_Layer/KeyPad/ecu_keypad.c: 30:     }
  3229   002944  EFC6  F014         	goto	l5611
  3230   002948                     l5587:
  3231                           
  3232                           ;ECU_Layer/KeyPad/ecu_keypad.c: 32:                for(rows_counter=0; rows_counter<4; r
      +                          ows_counter++){
  3233   002948  0E00               	movlw	0
  3234   00294A  6E47               	movwf	keypad_initialize@rows_counter^0,c
  3235   00294C                     l5593:
  3236   00294C  5045               	movf	keypad_initialize@_keypad_obj^0,w,c
  3237   00294E  2447               	addwf	keypad_initialize@rows_counter^0,w,c
  3238   002950  6E42               	movwf	gpio_pin_initialize@_pin_config^0,c
  3239   002952  EC29  F015         	call	_gpio_pin_initialize	;wreg free
  3240   002956                     
  3241                           ;ECU_Layer/KeyPad/ecu_keypad.c: 34:         }
  3242   002956  2A47               	incf	keypad_initialize@rows_counter^0,f,c
  3243   002958  0E03               	movlw	3
  3244   00295A  6447               	cpfsgt	keypad_initialize@rows_counter^0,c
  3245   00295C  EFB2  F014         	goto	u4181
  3246   002960  EFB4  F014         	goto	u4180
  3247   002964                     u4181:
  3248   002964  EFA6  F014         	goto	l5593
  3249   002968                     u4180:
  3250   002968                     
  3251                           ;ECU_Layer/KeyPad/ecu_keypad.c: 35:         for(columns_counter=0; columns_counter<4; co
      +                          lumns_counter++){
  3252   002968  0E00               	movlw	0
  3253   00296A  6E48               	movwf	keypad_initialize@columns_counter^0,c
  3254   00296C                     l5605:
  3255                           
  3256                           ;ECU_Layer/KeyPad/ecu_keypad.c: 36:             ret = gpio_pin_direction_initialize(&(_k
      +                          eypad_obj->keypad_columns_pins[columns_counter]));
  3257   00296C  5045               	movf	keypad_initialize@_keypad_obj^0,w,c
  3258   00296E  2448               	addwf	keypad_initialize@columns_counter^0,w,c
  3259   002970  0F04               	addlw	4
  3260   002972  6E3A               	movwf	gpio_pin_direction_initialize@_pin_config^0,c
  3261   002974  EC6D  F00E         	call	_gpio_pin_direction_initialize	;wreg free
  3262   002978  6E46               	movwf	keypad_initialize@ret^0,c
  3263   00297A                     
  3264                           ;ECU_Layer/KeyPad/ecu_keypad.c: 37:         }
  3265   00297A  2A48               	incf	keypad_initialize@columns_counter^0,f,c
  3266   00297C  0E03               	movlw	3
  3267   00297E  6448               	cpfsgt	keypad_initialize@columns_counter^0,c
  3268   002980  EFC4  F014         	goto	u4191
  3269   002984  EFC6  F014         	goto	u4190
  3270   002988                     u4191:
  3271   002988  EFB6  F014         	goto	l5605
  3272   00298C                     u4190:
  3273   00298C                     l5611:
  3274                           
  3275                           ;ECU_Layer/KeyPad/ecu_keypad.c: 39:  return ret;
  3276   00298C  5046               	movf	keypad_initialize@ret^0,w,c
  3277   00298E  0012               	return		;funcret
  3278   002990                     __end_of_keypad_initialize:
  3279                           	callstack 0
  3280                           
  3281 ;; *************** function _dc_motor_initialize *****************
  3282 ;; Defined at:
  3283 ;;		line 17 in file "ECU_Layer/DC_Motor/ecu_dc_motor.c"
  3284 ;; Parameters:    Size  Location     Type
  3285 ;;  _dc_motor       1   12[COMRAM] PTR const struct .
  3286 ;;		 -> dc_motor_2(2), dc_motor_1(2), 
  3287 ;; Auto vars:     Size  Location     Type
  3288 ;;  ret             1   13[COMRAM] unsigned char 
  3289 ;; Return value:  Size  Location     Type
  3290 ;;                  1    wreg      unsigned char 
  3291 ;; Registers used:
  3292 ;;		wreg, fsr2l, fsr2h, status,2, status,0, prodl, prodh, cstack
  3293 ;; Tracked objects:
  3294 ;;		On entry : 0/0
  3295 ;;		On exit  : 0/0
  3296 ;;		Unchanged: 0/0
  3297 ;; Data sizes:     COMRAM   BANK0   BANK1   BANK2   BANK3   BANK4   BANK5   BANK6   BANK7   BANK8   BANK9  BANK10  BANK1
      +1  BANK12  BANK13  BANK14  BANK15
  3298 ;;      Params:         1       0       0       0       0       0       0       0       0       0       0       0       
      +0       0       0       0       0
  3299 ;;      Locals:         1       0       0       0       0       0       0       0       0       0       0       0       
      +0       0       0       0       0
  3300 ;;      Temps:          0       0       0       0       0       0       0       0       0       0       0       0       
      +0       0       0       0       0
  3301 ;;      Totals:         2       0       0       0       0       0       0       0       0       0       0       0       
      +0       0       0       0       0
  3302 ;;Total ram usage:        2 bytes
  3303 ;; Hardware stack levels used: 1
  3304 ;; Hardware stack levels required when called: 4
  3305 ;; This function calls:
  3306 ;;		_gpio_pin_initialize
  3307 ;; This function is called by:
  3308 ;;		_ecu_layer_intialize
  3309 ;; This function uses a non-reentrant model
  3310 ;;
  3311                           
  3312                           	psect	text19
  3313   002E1E                     __ptext19:
  3314                           	callstack 0
  3315   002E1E                     _dc_motor_initialize:
  3316                           	callstack 24
  3317   002E1E                     
  3318                           ;ECU_Layer/DC_Motor/ecu_dc_motor.c: 18:      std_ReturnType ret = (std_ReturnType) 0x01;
  3319   002E1E  0E01               	movlw	1
  3320   002E20  6E46               	movwf	dc_motor_initialize@ret^0,c
  3321                           
  3322                           ;ECU_Layer/DC_Motor/ecu_dc_motor.c: 19:      if(((void*)0) == _dc_motor){
  3323   002E22  5045               	movf	dc_motor_initialize@_dc_motor^0,w,c
  3324   002E24  A4D8               	btfss	status,2,c
  3325   002E26  EF17  F017         	goto	u4161
  3326   002E2A  EF19  F017         	goto	u4160
  3327   002E2E                     u4161:
  3328   002E2E  EF1D  F017         	goto	l5577
  3329   002E32                     u4160:
  3330   002E32                     
  3331                           ;ECU_Layer/DC_Motor/ecu_dc_motor.c: 20:         ret = (std_ReturnType) 0x00;
  3332   002E32  0E00               	movlw	0
  3333   002E34  6E46               	movwf	dc_motor_initialize@ret^0,c
  3334                           
  3335                           ;ECU_Layer/DC_Motor/ecu_dc_motor.c: 21:     }
  3336   002E36  EF25  F017         	goto	l5579
  3337   002E3A                     l5577:
  3338                           
  3339                           ;ECU_Layer/DC_Motor/ecu_dc_motor.c: 23:         gpio_pin_initialize(&(_dc_motor->dc_moto
      +                          r_pin[0x00U]));
  3340   002E3A  C045  F042         	movff	dc_motor_initialize@_dc_motor,gpio_pin_initialize@_pin_config
  3341   002E3E  EC29  F015         	call	_gpio_pin_initialize	;wreg free
  3342                           
  3343                           ;ECU_Layer/DC_Motor/ecu_dc_motor.c: 24:         gpio_pin_initialize(&(_dc_motor->dc_moto
      +                          r_pin[0x01U]));
  3344   002E42  2845               	incf	dc_motor_initialize@_dc_motor^0,w,c
  3345   002E44  6E42               	movwf	gpio_pin_initialize@_pin_config^0,c
  3346   002E46  EC29  F015         	call	_gpio_pin_initialize	;wreg free
  3347   002E4A                     l5579:
  3348                           
  3349                           ;ECU_Layer/DC_Motor/ecu_dc_motor.c: 26:      return ret;
  3350   002E4A  5046               	movf	dc_motor_initialize@ret^0,w,c
  3351   002E4C  0012               	return		;funcret
  3352   002E4E                     __end_of_dc_motor_initialize:
  3353                           	callstack 0
  3354                           
  3355 ;; *************** function _gpio_pin_initialize *****************
  3356 ;; Defined at:
  3357 ;;		line 149 in file "MCAL_Layer/GPIO/hal_gpio.c"
  3358 ;; Parameters:    Size  Location     Type
  3359 ;;  _pin_config     1    9[COMRAM] PTR const struct .
  3360 ;;		 -> dc_motor_2$dc_motor_pin(2), dc_motor_2(2), dc_motor_1$dc_motor_pin(2), dc_motor_1(2), 
  3361 ;;		 -> keypad_1$keypad_row_pins(4), keypad_1(8), relay_initialize@pin_obj(1), 
  3362 ;; Auto vars:     Size  Location     Type
  3363 ;;  ret             1   11[COMRAM] unsigned char 
  3364 ;; Return value:  Size  Location     Type
  3365 ;;                  1    wreg      unsigned char 
  3366 ;; Registers used:
  3367 ;;		wreg, fsr2l, fsr2h, status,2, status,0, prodl, prodh, cstack
  3368 ;; Tracked objects:
  3369 ;;		On entry : 0/0
  3370 ;;		On exit  : 0/0
  3371 ;;		Unchanged: 0/0
  3372 ;; Data sizes:     COMRAM   BANK0   BANK1   BANK2   BANK3   BANK4   BANK5   BANK6   BANK7   BANK8   BANK9  BANK10  BANK1
      +1  BANK12  BANK13  BANK14  BANK15
  3373 ;;      Params:         1       0       0       0       0       0       0       0       0       0       0       0       
      +0       0       0       0       0
  3374 ;;      Locals:         1       0       0       0       0       0       0       0       0       0       0       0       
      +0       0       0       0       0
  3375 ;;      Temps:          1       0       0       0       0       0       0       0       0       0       0       0       
      +0       0       0       0       0
  3376 ;;      Totals:         3       0       0       0       0       0       0       0       0       0       0       0       
      +0       0       0       0       0
  3377 ;;Total ram usage:        3 bytes
  3378 ;; Hardware stack levels used: 1
  3379 ;; Hardware stack levels required when called: 3
  3380 ;; This function calls:
  3381 ;;		_gpio_pin_direction_initialize
  3382 ;;		_gpio_pin_write_logic
  3383 ;; This function is called by:
  3384 ;;		_dc_motor_initialize
  3385 ;;		_keypad_initialize
  3386 ;;		_seven_segement_intialize
  3387 ;;		_relay_initialize
  3388 ;; This function uses a non-reentrant model
  3389 ;;
  3390                           
  3391                           	psect	text20
  3392   002A52                     __ptext20:
  3393                           	callstack 0
  3394   002A52                     _gpio_pin_initialize:
  3395                           	callstack 24
  3396   002A52                     
  3397                           ;MCAL_Layer/GPIO/hal_gpio.c: 150:     std_ReturnType ret = (std_ReturnType) 0x01 ;
  3398   002A52  0E01               	movlw	1
  3399   002A54  6E44               	movwf	gpio_pin_initialize@ret^0,c
  3400                           
  3401                           ;MCAL_Layer/GPIO/hal_gpio.c: 151:         if (((void*)0) == _pin_config || _pin_config->
      +                          pin > 5 -1){
  3402   002A56  5042               	movf	gpio_pin_initialize@_pin_config^0,w,c
  3403   002A58  B4D8               	btfsc	status,2,c
  3404   002A5A  EF31  F015         	goto	u3961
  3405   002A5E  EF33  F015         	goto	u3960
  3406   002A62                     u3961:
  3407   002A62  EF43  F015         	goto	l5379
  3408   002A66                     u3960:
  3409   002A66  5042               	movf	gpio_pin_initialize@_pin_config^0,w,c
  3410   002A68  6ED9               	movwf	fsr2l,c
  3411   002A6A  6ADA               	clrf	fsr2h,c
  3412   002A6C  30DF               	rrcf	223,w,c
  3413   002A6E  32E8               	rrcf	wreg,f,c
  3414   002A70  32E8               	rrcf	wreg,f,c
  3415   002A72  0B07               	andlw	7
  3416   002A74  6E43               	movwf	??_gpio_pin_initialize^0,c
  3417   002A76  0E04               	movlw	4
  3418   002A78  6443               	cpfsgt	??_gpio_pin_initialize^0,c
  3419   002A7A  EF41  F015         	goto	u3971
  3420   002A7E  EF43  F015         	goto	u3970
  3421   002A82                     u3971:
  3422   002A82  EF47  F015         	goto	l5381
  3423   002A86                     u3970:
  3424   002A86                     l5379:
  3425                           
  3426                           ;MCAL_Layer/GPIO/hal_gpio.c: 152:          ret = (std_ReturnType) 0x00;
  3427   002A86  0E00               	movlw	0
  3428   002A88  6E44               	movwf	gpio_pin_initialize@ret^0,c
  3429                           
  3430                           ;MCAL_Layer/GPIO/hal_gpio.c: 153:     }
  3431   002A8A  EF56  F015         	goto	l5383
  3432   002A8E                     l5381:
  3433                           
  3434                           ;MCAL_Layer/GPIO/hal_gpio.c: 155:                  gpio_pin_direction_initialize(_pin_co
      +                          nfig);
  3435   002A8E  C042  F03A         	movff	gpio_pin_initialize@_pin_config,gpio_pin_direction_initialize@_pin_config
  3436   002A92  EC6D  F00E         	call	_gpio_pin_direction_initialize	;wreg free
  3437                           
  3438                           ;MCAL_Layer/GPIO/hal_gpio.c: 156:                  gpio_pin_write_logic (_pin_config, _p
      +                          in_config->logic);
  3439   002A96  C042  F03A         	movff	gpio_pin_initialize@_pin_config,gpio_pin_write_logic@_pin_config
  3440   002A9A  5042               	movf	gpio_pin_initialize@_pin_config^0,w,c
  3441   002A9C  6ED9               	movwf	fsr2l,c
  3442   002A9E  6ADA               	clrf	fsr2h,c
  3443   002AA0  0E00               	movlw	0
  3444   002AA2  BEDF               	btfsc	indf2,7,c
  3445   002AA4  0E01               	movlw	1
  3446   002AA6  6E3B               	movwf	gpio_pin_write_logic@logic^0,c
  3447   002AA8  EC00  F00F         	call	_gpio_pin_write_logic	;wreg free
  3448   002AAC                     l5383:
  3449                           
  3450                           ;MCAL_Layer/GPIO/hal_gpio.c: 158:     return ret ;
  3451   002AAC  5044               	movf	gpio_pin_initialize@ret^0,w,c
  3452   002AAE  0012               	return		;funcret
  3453   002AB0                     __end_of_gpio_pin_initialize:
  3454                           	callstack 0
  3455                           
  3456 ;; *************** function _gpio_pin_direction_initialize *****************
  3457 ;; Defined at:
  3458 ;;		line 26 in file "MCAL_Layer/GPIO/hal_gpio.c"
  3459 ;; Parameters:    Size  Location     Type
  3460 ;;  _pin_config     1    1[COMRAM] PTR const struct .
  3461 ;;		 -> MSSP_SPI_Slave_Mode_GPIO_PIN_Configurations@SPI_SS(1), MSSP_SPI_Slave_Mode_GPIO_PIN_Configurations@SPI_CLK(1), M
      +SSP_SPI_Slave_Mode_GPIO_PIN_Configurations@SPI_SDI(1), MSSP_SPI_Slave_Mode_GPIO_PIN_Configurations@SPI_SDO(1), 
  3462 ;;		 -> MSSP_SPI_Msster_Mode_GPIO_PIN_Configurations@SPI_CLK(1), MSSP_SPI_Msster_Mode_GPIO_PIN_Configurations@SPI_SDI(1)
      +, MSSP_SPI_Msster_Mode_GPIO_PIN_Configurations@SPI_SDO(1), dc_motor_2$dc_motor_pin(2), 
  3463 ;;		 -> dc_motor_2(2), dc_motor_1$dc_motor_pin(2), dc_motor_1(2), lcd_1$lcd_data(4), 
  3464 ;;		 -> lcd_1(6), keypad_1$keypad_columns_pins(4), keypad_1$keypad_row_pins(4), keypad_1(8), 
  3465 ;;		 -> relay_initialize@pin_obj(1), led_initialize@pin_obj(1), 
  3466 ;; Auto vars:     Size  Location     Type
  3467 ;;  ret             1    7[COMRAM] unsigned char 
  3468 ;; Return value:  Size  Location     Type
  3469 ;;                  1    wreg      unsigned char 
  3470 ;; Registers used:
  3471 ;;		wreg, fsr2l, fsr2h, status,2, status,0, prodl, prodh
  3472 ;; Tracked objects:
  3473 ;;		On entry : 0/0
  3474 ;;		On exit  : 0/0
  3475 ;;		Unchanged: 0/0
  3476 ;; Data sizes:     COMRAM   BANK0   BANK1   BANK2   BANK3   BANK4   BANK5   BANK6   BANK7   BANK8   BANK9  BANK10  BANK1
      +1  BANK12  BANK13  BANK14  BANK15
  3477 ;;      Params:         1       0       0       0       0       0       0       0       0       0       0       0       
      +0       0       0       0       0
  3478 ;;      Locals:         1       0       0       0       0       0       0       0       0       0       0       0       
      +0       0       0       0       0
  3479 ;;      Temps:          5       0       0       0       0       0       0       0       0       0       0       0       
      +0       0       0       0       0
  3480 ;;      Totals:         7       0       0       0       0       0       0       0       0       0       0       0       
      +0       0       0       0       0
  3481 ;;Total ram usage:        7 bytes
  3482 ;; Hardware stack levels used: 1
  3483 ;; Hardware stack levels required when called: 2
  3484 ;; This function calls:
  3485 ;;		Nothing
  3486 ;; This function is called by:
  3487 ;;		_lcd_4bit_intialize
  3488 ;;		_keypad_initialize
  3489 ;;		_gpio_pin_initialize
  3490 ;;		_button_initialize
  3491 ;;		_lcd_8bit_intialize
  3492 ;;		_led_initialize
  3493 ;;		_CCP_Init
  3494 ;;		_Interrupt_RBx_Init
  3495 ;;		_Interrupt_INTx_Pin_Init
  3496 ;;		_MSSP_SPI_Msster_Mode_GPIO_PIN_Configurations
  3497 ;;		_MSSP_SPI_Slave_Mode_GPIO_PIN_Configurations
  3498 ;; This function uses a non-reentrant model
  3499 ;;
  3500                           
  3501                           	psect	text21
  3502   001CDA                     __ptext21:
  3503                           	callstack 0
  3504   001CDA                     _gpio_pin_direction_initialize:
  3505                           	callstack 25
  3506   001CDA                     
  3507                           ;MCAL_Layer/GPIO/hal_gpio.c: 27:     std_ReturnType ret = (std_ReturnType) 0x01;
  3508   001CDA  0E01               	movlw	1
  3509   001CDC  6E40               	movwf	gpio_pin_direction_initialize@ret^0,c
  3510                           
  3511                           ;MCAL_Layer/GPIO/hal_gpio.c: 28:     if (((void*)0) == _pin_config || _pin_config->pin >
      +                          8 -1 ){
  3512   001CDE  503A               	movf	gpio_pin_direction_initialize@_pin_config^0,w,c
  3513   001CE0  B4D8               	btfsc	status,2,c
  3514   001CE2  EF75  F00E         	goto	u3731
  3515   001CE6  EF77  F00E         	goto	u3730
  3516   001CEA                     u3731:
  3517   001CEA  EF87  F00E         	goto	l5235
  3518   001CEE                     u3730:
  3519   001CEE  503A               	movf	gpio_pin_direction_initialize@_pin_config^0,w,c
  3520   001CF0  6ED9               	movwf	fsr2l,c
  3521   001CF2  6ADA               	clrf	fsr2h,c
  3522   001CF4  30DF               	rrcf	223,w,c
  3523   001CF6  32E8               	rrcf	wreg,f,c
  3524   001CF8  32E8               	rrcf	wreg,f,c
  3525   001CFA  0B07               	andlw	7
  3526   001CFC  6E3B               	movwf	??_gpio_pin_direction_initialize^0,c
  3527   001CFE  0E07               	movlw	7
  3528   001D00  643B               	cpfsgt	??_gpio_pin_direction_initialize^0,c
  3529   001D02  EF85  F00E         	goto	u3741
  3530   001D06  EF87  F00E         	goto	u3740
  3531   001D0A                     u3741:
  3532   001D0A  EFDE  F00E         	goto	l5243
  3533   001D0E                     u3740:
  3534   001D0E                     l5235:
  3535                           
  3536                           ;MCAL_Layer/GPIO/hal_gpio.c: 29:         ret = (std_ReturnType) 0x00 ;
  3537   001D0E  0E00               	movlw	0
  3538   001D10  6E40               	movwf	gpio_pin_direction_initialize@ret^0,c
  3539                           
  3540                           ;MCAL_Layer/GPIO/hal_gpio.c: 30:     }
  3541   001D12  EFFE  F00E         	goto	l5245
  3542   001D16                     l5237:
  3543                           
  3544                           ;MCAL_Layer/GPIO/hal_gpio.c: 34:                 (*tris_registers[_pin_config->port] &= 
      +                          ~((uint8)1 << _pin_config->pin));
  3545   001D16  503A               	movf	gpio_pin_direction_initialize@_pin_config^0,w,c
  3546   001D18  6ED9               	movwf	fsr2l,c
  3547   001D1A  6ADA               	clrf	fsr2h,c
  3548   001D1C  30DF               	rrcf	223,w,c
  3549   001D1E  32E8               	rrcf	wreg,f,c
  3550   001D20  32E8               	rrcf	wreg,f,c
  3551   001D22  0B07               	andlw	7
  3552   001D24  6E3B               	movwf	??_gpio_pin_direction_initialize^0,c
  3553   001D26  0E01               	movlw	1
  3554   001D28  6E3C               	movwf	(??_gpio_pin_direction_initialize+1)^0,c
  3555   001D2A  2A3B               	incf	??_gpio_pin_direction_initialize^0,f,c
  3556   001D2C  EF9A  F00E         	goto	u3754
  3557   001D30                     u3755:
  3558   001D30  90D8               	bcf	status,0,c
  3559   001D32  363C               	rlcf	(??_gpio_pin_direction_initialize+1)^0,f,c
  3560   001D34                     u3754:
  3561   001D34  2E3B               	decfsz	??_gpio_pin_direction_initialize^0,f,c
  3562   001D36  EF98  F00E         	goto	u3755
  3563   001D3A  503C               	movf	(??_gpio_pin_direction_initialize+1)^0,w,c
  3564   001D3C  0AFF               	xorlw	255
  3565   001D3E  6E3D               	movwf	(??_gpio_pin_direction_initialize+2)^0,c
  3566   001D40  503A               	movf	gpio_pin_direction_initialize@_pin_config^0,w,c
  3567   001D42  6ED9               	movwf	fsr2l,c
  3568   001D44  6ADA               	clrf	fsr2h,c
  3569   001D46  50DF               	movf	223,w,c
  3570   001D48  0B07               	andlw	7
  3571   001D4A  0D02               	mullw	2
  3572   001D4C  50F3               	movf	243,w,c
  3573   001D4E  0FCF               	addlw	low _tris_registers
  3574   001D50  6ED9               	movwf	fsr2l,c
  3575   001D52  6ADA               	clrf	fsr2h,c
  3576   001D54  CFDE F03E          	movff	postinc2,??_gpio_pin_direction_initialize+3
  3577   001D58  CFDD F03F          	movff	postdec2,??_gpio_pin_direction_initialize+4
  3578   001D5C  C03E  FFD9         	movff	??_gpio_pin_direction_initialize+3,fsr2l
  3579   001D60  C03F  FFDA         	movff	??_gpio_pin_direction_initialize+4,fsr2h
  3580   001D64  503D               	movf	(??_gpio_pin_direction_initialize+2)^0,w,c
  3581   001D66  16DF               	andwf	indf2,f,c
  3582                           
  3583                           ;MCAL_Layer/GPIO/hal_gpio.c: 35:                 break;
  3584   001D68  EFFE  F00E         	goto	l5245
  3585   001D6C                     l5239:
  3586                           
  3587                           ;MCAL_Layer/GPIO/hal_gpio.c: 37:                 (*tris_registers[_pin_config->port] |= 
      +                          ((uint8)1<<_pin_config->pin));
  3588   001D6C  503A               	movf	gpio_pin_direction_initialize@_pin_config^0,w,c
  3589   001D6E  6ED9               	movwf	fsr2l,c
  3590   001D70  6ADA               	clrf	fsr2h,c
  3591   001D72  30DF               	rrcf	223,w,c
  3592   001D74  32E8               	rrcf	wreg,f,c
  3593   001D76  32E8               	rrcf	wreg,f,c
  3594   001D78  0B07               	andlw	7
  3595   001D7A  6E3B               	movwf	??_gpio_pin_direction_initialize^0,c
  3596   001D7C  0E01               	movlw	1
  3597   001D7E  6E3C               	movwf	(??_gpio_pin_direction_initialize+1)^0,c
  3598   001D80  2A3B               	incf	??_gpio_pin_direction_initialize^0,f,c
  3599   001D82  EFC5  F00E         	goto	u3764
  3600   001D86                     u3765:
  3601   001D86  90D8               	bcf	status,0,c
  3602   001D88  363C               	rlcf	(??_gpio_pin_direction_initialize+1)^0,f,c
  3603   001D8A                     u3764:
  3604   001D8A  2E3B               	decfsz	??_gpio_pin_direction_initialize^0,f,c
  3605   001D8C  EFC3  F00E         	goto	u3765
  3606   001D90  503A               	movf	gpio_pin_direction_initialize@_pin_config^0,w,c
  3607   001D92  6ED9               	movwf	fsr2l,c
  3608   001D94  6ADA               	clrf	fsr2h,c
  3609   001D96  50DF               	movf	223,w,c
  3610   001D98  0B07               	andlw	7
  3611   001D9A  0D02               	mullw	2
  3612   001D9C  50F3               	movf	243,w,c
  3613   001D9E  0FCF               	addlw	low _tris_registers
  3614   001DA0  6ED9               	movwf	fsr2l,c
  3615   001DA2  6ADA               	clrf	fsr2h,c
  3616   001DA4  CFDE F03D          	movff	postinc2,??_gpio_pin_direction_initialize+2
  3617   001DA8  CFDD F03E          	movff	postdec2,??_gpio_pin_direction_initialize+3
  3618   001DAC  C03D  FFD9         	movff	??_gpio_pin_direction_initialize+2,fsr2l
  3619   001DB0  C03E  FFDA         	movff	??_gpio_pin_direction_initialize+3,fsr2h
  3620   001DB4  503C               	movf	(??_gpio_pin_direction_initialize+1)^0,w,c
  3621   001DB6  12DF               	iorwf	indf2,f,c
  3622                           
  3623                           ;MCAL_Layer/GPIO/hal_gpio.c: 38:                 break;
  3624   001DB8  EFFE  F00E         	goto	l5245
  3625   001DBC                     l5243:
  3626   001DBC  503A               	movf	gpio_pin_direction_initialize@_pin_config^0,w,c
  3627   001DBE  6ED9               	movwf	fsr2l,c
  3628   001DC0  6ADA               	clrf	fsr2h,c
  3629   001DC2  BCDF               	btfsc	indf2,6,c
  3630   001DC4  EFE6  F00E         	goto	u3771
  3631   001DC8  EFE9  F00E         	goto	u3770
  3632   001DCC                     u3771:
  3633   001DCC  0E01               	movlw	1
  3634   001DCE  EFEA  F00E         	goto	u3780
  3635   001DD2                     u3770:
  3636   001DD2  0E00               	movlw	0
  3637   001DD4                     u3780:
  3638   001DD4  6E3B               	movwf	??_gpio_pin_direction_initialize^0,c
  3639   001DD6  6A3C               	clrf	(??_gpio_pin_direction_initialize+1)^0,c
  3640                           
  3641                           ; Switch on 2 bytes has been partitioned into a top level switch of size 1, and 1 sub-sw
      +                          itches
  3642                           ; Switch size 1, requested type "simple"
  3643                           ; Number of cases is 1, Range of values is 0 to 0
  3644                           ; switch strategies available:
  3645                           ; Name         Instructions Cycles
  3646                           ; simple_byte            4     3 (average)
  3647                           ;	Chosen strategy is simple_byte
  3648   001DD8  503C               	movf	(??_gpio_pin_direction_initialize+1)^0,w,c
  3649   001DDA  0A00               	xorlw	0	; case 0
  3650   001DDC  B4D8               	btfsc	status,2,c
  3651   001DDE  EFF3  F00E         	goto	l7617
  3652   001DE2  EF87  F00E         	goto	l5235
  3653   001DE6                     l7617:
  3654                           
  3655                           ; Switch size 1, requested type "simple"
  3656                           ; Number of cases is 2, Range of values is 0 to 1
  3657                           ; switch strategies available:
  3658                           ; Name         Instructions Cycles
  3659                           ; simple_byte            7     4 (average)
  3660                           ;	Chosen strategy is simple_byte
  3661   001DE6  503B               	movf	??_gpio_pin_direction_initialize^0,w,c
  3662   001DE8  0A00               	xorlw	0	; case 0
  3663   001DEA  B4D8               	btfsc	status,2,c
  3664   001DEC  EF8B  F00E         	goto	l5237
  3665   001DF0  0A01               	xorlw	1	; case 1
  3666   001DF2  B4D8               	btfsc	status,2,c
  3667   001DF4  EFB6  F00E         	goto	l5239
  3668   001DF8  EF87  F00E         	goto	l5235
  3669   001DFC                     l5245:
  3670                           
  3671                           ;MCAL_Layer/GPIO/hal_gpio.c: 42:     return ret ;
  3672   001DFC  5040               	movf	gpio_pin_direction_initialize@ret^0,w,c
  3673   001DFE  0012               	return		;funcret
  3674   001E00                     __end_of_gpio_pin_direction_initialize:
  3675                           	callstack 0
  3676                           
  3677 ;; *************** function _ADC_Init *****************
  3678 ;; Defined at:
  3679 ;;		line 29 in file "MCAL_Layer/ADC/hal_adc.c"
  3680 ;; Parameters:    Size  Location     Type
  3681 ;;  _adc            1    4[COMRAM] PTR const struct .
  3682 ;;		 -> adc_1(7), 
  3683 ;; Auto vars:     Size  Location     Type
  3684 ;;  ret             1    6[COMRAM] unsigned char 
  3685 ;; Return value:  Size  Location     Type
  3686 ;;                  1    wreg      unsigned char 
  3687 ;; Registers used:
  3688 ;;		wreg, fsr2l, fsr2h, status,2, status,0, cstack
  3689 ;; Tracked objects:
  3690 ;;		On entry : 0/0
  3691 ;;		On exit  : 0/0
  3692 ;;		Unchanged: 0/0
  3693 ;; Data sizes:     COMRAM   BANK0   BANK1   BANK2   BANK3   BANK4   BANK5   BANK6   BANK7   BANK8   BANK9  BANK10  BANK1
      +1  BANK12  BANK13  BANK14  BANK15
  3694 ;;      Params:         1       0       0       0       0       0       0       0       0       0       0       0       
      +0       0       0       0       0
  3695 ;;      Locals:         1       0       0       0       0       0       0       0       0       0       0       0       
      +0       0       0       0       0
  3696 ;;      Temps:          1       0       0       0       0       0       0       0       0       0       0       0       
      +0       0       0       0       0
  3697 ;;      Totals:         3       0       0       0       0       0       0       0       0       0       0       0       
      +0       0       0       0       0
  3698 ;;Total ram usage:        3 bytes
  3699 ;; Hardware stack levels used: 1
  3700 ;; Hardware stack levels required when called: 3
  3701 ;; This function calls:
  3702 ;;		_adc_input_channel_port_configure
  3703 ;;		_configure_voltage_reference
  3704 ;;		_select_result_format
  3705 ;; This function is called by:
  3706 ;;		_ecu_layer_intialize
  3707 ;; This function uses a non-reentrant model
  3708 ;;
  3709                           
  3710                           	psect	text22
  3711   0024EE                     __ptext22:
  3712                           	callstack 0
  3713   0024EE                     _ADC_Init:
  3714                           	callstack 25
  3715   0024EE                     
  3716                           ;MCAL_Layer/ADC/hal_adc.c: 31:     if(((void*)0) == _adc){
  3717   0024EE  503D               	movf	ADC_Init@_adc^0,w,c
  3718   0024F0  A4D8               	btfss	status,2,c
  3719   0024F2  EF7D  F012         	goto	u4201
  3720   0024F6  EF7F  F012         	goto	u4200
  3721   0024FA                     u4201:
  3722   0024FA  EF83  F012         	goto	l375
  3723   0024FE                     u4200:
  3724   0024FE                     
  3725                           ;MCAL_Layer/ADC/hal_adc.c: 32:         ret = (std_ReturnType) 0x00;
  3726   0024FE  0E00               	movlw	0
  3727   002500  6E3F               	movwf	ADC_Init@ret^0,c
  3728                           
  3729                           ;MCAL_Layer/ADC/hal_adc.c: 33:     }
  3730   002502  EFCB  F012         	goto	l5641
  3731   002506                     l375:
  3732                           
  3733                           ;MCAL_Layer/ADC/hal_adc.c: 36:         (ADCON0bits.ADON = 0);
  3734   002506  90C2               	bcf	194,0,c	;volatile
  3735   002508                     
  3736                           ;MCAL_Layer/ADC/hal_adc.c: 38:         ADCON2bits.ACQT = _adc->acquisition_time;
  3737   002508  503D               	movf	ADC_Init@_adc^0,w,c
  3738   00250A  6ED9               	movwf	fsr2l,c
  3739   00250C  6ADA               	clrf	fsr2h,c
  3740   00250E  0E03               	movlw	3
  3741   002510  26D9               	addwf	fsr2l,f,c
  3742   002512  50DF               	movf	indf2,w,c
  3743   002514  6E3E               	movwf	??_ADC_Init^0,c
  3744   002516  463E               	rlncf	??_ADC_Init^0,f,c
  3745   002518  463E               	rlncf	??_ADC_Init^0,f,c
  3746   00251A  463E               	rlncf	??_ADC_Init^0,f,c
  3747   00251C  50C0               	movf	192,w,c	;volatile
  3748   00251E  183E               	xorwf	??_ADC_Init^0,w,c
  3749   002520  0BC7               	andlw	-57
  3750   002522  183E               	xorwf	??_ADC_Init^0,w,c
  3751   002524  6EC0               	movwf	192,c	;volatile
  3752                           
  3753                           ;MCAL_Layer/ADC/hal_adc.c: 40:         ADCON2bits.ADCS = _adc->conversion_clock;
  3754   002526  503D               	movf	ADC_Init@_adc^0,w,c
  3755   002528  6ED9               	movwf	fsr2l,c
  3756   00252A  6ADA               	clrf	fsr2h,c
  3757   00252C  0E04               	movlw	4
  3758   00252E  26D9               	addwf	fsr2l,f,c
  3759   002530  50DF               	movf	indf2,w,c
  3760   002532  6E3E               	movwf	??_ADC_Init^0,c
  3761   002534  50C0               	movf	192,w,c	;volatile
  3762   002536  183E               	xorwf	??_ADC_Init^0,w,c
  3763   002538  0BF8               	andlw	-8
  3764   00253A  183E               	xorwf	??_ADC_Init^0,w,c
  3765   00253C  6EC0               	movwf	192,c	;volatile
  3766                           
  3767                           ;MCAL_Layer/ADC/hal_adc.c: 42:         ADCON0bits.CHS = _adc->adc_channel;
  3768   00253E  503D               	movf	ADC_Init@_adc^0,w,c
  3769   002540  6ED9               	movwf	fsr2l,c
  3770   002542  6ADA               	clrf	fsr2h,c
  3771   002544  0E05               	movlw	5
  3772   002546  26D9               	addwf	fsr2l,f,c
  3773   002548  50DF               	movf	indf2,w,c
  3774   00254A  6E3E               	movwf	??_ADC_Init^0,c
  3775   00254C  463E               	rlncf	??_ADC_Init^0,f,c
  3776   00254E  463E               	rlncf	??_ADC_Init^0,f,c
  3777   002550  50C2               	movf	194,w,c	;volatile
  3778   002552  183E               	xorwf	??_ADC_Init^0,w,c
  3779   002554  0BC3               	andlw	-61
  3780   002556  183E               	xorwf	??_ADC_Init^0,w,c
  3781   002558  6EC2               	movwf	194,c	;volatile
  3782   00255A                     
  3783                           ;MCAL_Layer/ADC/hal_adc.c: 43:         adc_input_channel_port_configure(_adc->adc_channe
      +                          l);
  3784   00255A  503D               	movf	ADC_Init@_adc^0,w,c
  3785   00255C  6ED9               	movwf	fsr2l,c
  3786   00255E  6ADA               	clrf	fsr2h,c
  3787   002560  0E05               	movlw	5
  3788   002562  26D9               	addwf	fsr2l,f,c
  3789   002564  50DF               	movf	indf2,w,c
  3790   002566  ECF5  F010         	call	_adc_input_channel_port_configure
  3791   00256A                     
  3792                           ;MCAL_Layer/ADC/hal_adc.c: 46:         (INTCONbits.GIE = 1);
  3793   00256A  8EF2               	bsf	242,7,c	;volatile
  3794   00256C                     
  3795                           ;MCAL_Layer/ADC/hal_adc.c: 47:         (INTCONbits.PEIE = 1);
  3796   00256C  8CF2               	bsf	242,6,c	;volatile
  3797   00256E                     
  3798                           ;MCAL_Layer/ADC/hal_adc.c: 48:         (PIE1bits.ADIE = 1);
  3799   00256E  8C9D               	bsf	157,6,c	;volatile
  3800   002570                     
  3801                           ;MCAL_Layer/ADC/hal_adc.c: 49:         (PIR1bits.ADIF = 0);
  3802   002570  9C9E               	bcf	158,6,c	;volatile
  3803   002572                     
  3804                           ;MCAL_Layer/ADC/hal_adc.c: 61:         ADC_InterruptHandler = _adc->ADC_InterruptHandler
      +                          ;
  3805   002572  503D               	movf	ADC_Init@_adc^0,w,c
  3806   002574  6ED9               	movwf	fsr2l,c
  3807   002576  6ADA               	clrf	fsr2h,c
  3808   002578  CFDE F02B          	movff	postinc2,_ADC_InterruptHandler
  3809   00257C  CFDD F02C          	movff	postdec2,_ADC_InterruptHandler+1
  3810   002580                     
  3811                           ;MCAL_Layer/ADC/hal_adc.c: 64:         select_result_format(_adc);
  3812   002580  C03D  F03A         	movff	ADC_Init@_adc,select_result_format@_adc
  3813   002584  EC15  F016         	call	_select_result_format	;wreg free
  3814   002588                     
  3815                           ;MCAL_Layer/ADC/hal_adc.c: 66:         configure_voltage_reference(_adc);
  3816   002588  C03D  F03A         	movff	ADC_Init@_adc,configure_voltage_reference@_adc
  3817   00258C  ECD2  F015         	call	_configure_voltage_reference	;wreg free
  3818   002590                     
  3819                           ;MCAL_Layer/ADC/hal_adc.c: 68:         (ADCON0bits.ADON = 1);
  3820   002590  80C2               	bsf	194,0,c	;volatile
  3821   002592                     
  3822                           ;MCAL_Layer/ADC/hal_adc.c: 69:         ret = (std_ReturnType) 0x01;
  3823   002592  0E01               	movlw	1
  3824   002594  6E3F               	movwf	ADC_Init@ret^0,c
  3825   002596                     l5641:
  3826                           
  3827                           ;MCAL_Layer/ADC/hal_adc.c: 71:     return ret;
  3828   002596  503F               	movf	ADC_Init@ret^0,w,c
  3829   002598  0012               	return		;funcret
  3830   00259A                     __end_of_ADC_Init:
  3831                           	callstack 0
  3832                           
  3833 ;; *************** function _select_result_format *****************
  3834 ;; Defined at:
  3835 ;;		line 272 in file "MCAL_Layer/ADC/hal_adc.c"
  3836 ;; Parameters:    Size  Location     Type
  3837 ;;  _adc            1    1[COMRAM] PTR const struct .
  3838 ;;		 -> adc_1(7), 
  3839 ;; Auto vars:     Size  Location     Type
  3840 ;;		None
  3841 ;; Return value:  Size  Location     Type
  3842 ;;                  1    wreg      void 
  3843 ;; Registers used:
  3844 ;;		wreg, fsr2l, fsr2h, status,2, status,0
  3845 ;; Tracked objects:
  3846 ;;		On entry : 0/0
  3847 ;;		On exit  : 0/0
  3848 ;;		Unchanged: 0/0
  3849 ;; Data sizes:     COMRAM   BANK0   BANK1   BANK2   BANK3   BANK4   BANK5   BANK6   BANK7   BANK8   BANK9  BANK10  BANK1
      +1  BANK12  BANK13  BANK14  BANK15
  3850 ;;      Params:         1       0       0       0       0       0       0       0       0       0       0       0       
      +0       0       0       0       0
  3851 ;;      Locals:         0       0       0       0       0       0       0       0       0       0       0       0       
      +0       0       0       0       0
  3852 ;;      Temps:          0       0       0       0       0       0       0       0       0       0       0       0       
      +0       0       0       0       0
  3853 ;;      Totals:         1       0       0       0       0       0       0       0       0       0       0       0       
      +0       0       0       0       0
  3854 ;;Total ram usage:        1 bytes
  3855 ;; Hardware stack levels used: 1
  3856 ;; Hardware stack levels required when called: 2
  3857 ;; This function calls:
  3858 ;;		Nothing
  3859 ;; This function is called by:
  3860 ;;		_ADC_Init
  3861 ;; This function uses a non-reentrant model
  3862 ;;
  3863                           
  3864                           	psect	text23
  3865   002C2A                     __ptext23:
  3866                           	callstack 0
  3867   002C2A                     _select_result_format:
  3868                           	callstack 25
  3869   002C2A                     
  3870                           ;MCAL_Layer/ADC/hal_adc.c: 273:     if(0x01U == _adc->result_format){
  3871   002C2A  503A               	movf	select_result_format@_adc^0,w,c
  3872   002C2C  6ED9               	movwf	fsr2l,c
  3873   002C2E  6ADA               	clrf	fsr2h,c
  3874   002C30  0E06               	movlw	6
  3875   002C32  26D9               	addwf	fsr2l,f,c
  3876   002C34  A2DF               	btfss	indf2,1,c
  3877   002C36  EF1F  F016         	goto	u3991
  3878   002C3A  EF21  F016         	goto	u3990
  3879   002C3E                     u3991:
  3880   002C3E  EF24  F016         	goto	l5435
  3881   002C42                     u3990:
  3882   002C42                     
  3883                           ;MCAL_Layer/ADC/hal_adc.c: 274:         (ADCON2bits.ADFM = 1);
  3884   002C42  8EC0               	bsf	192,7,c	;volatile
  3885                           
  3886                           ;MCAL_Layer/ADC/hal_adc.c: 275:     }
  3887   002C44  EF34  F016         	goto	l451
  3888   002C48                     l5435:
  3889   002C48  503A               	movf	select_result_format@_adc^0,w,c
  3890   002C4A  6ED9               	movwf	fsr2l,c
  3891   002C4C  6ADA               	clrf	fsr2h,c
  3892   002C4E  0E06               	movlw	6
  3893   002C50  26D9               	addwf	fsr2l,f,c
  3894   002C52  B2DF               	btfsc	indf2,1,c
  3895   002C54  EF2E  F016         	goto	u4001
  3896   002C58  EF30  F016         	goto	u4000
  3897   002C5C                     u4001:
  3898   002C5C  EF33  F016         	goto	l449
  3899   002C60                     u4000:
  3900   002C60                     
  3901                           ;MCAL_Layer/ADC/hal_adc.c: 277:         (ADCON2bits.ADFM = 0);
  3902   002C60  9EC0               	bcf	192,7,c	;volatile
  3903                           
  3904                           ;MCAL_Layer/ADC/hal_adc.c: 278:     }
  3905   002C62  EF34  F016         	goto	l451
  3906   002C66                     l449:
  3907                           
  3908                           ;MCAL_Layer/ADC/hal_adc.c: 280:         (ADCON2bits.ADFM = 1);
  3909   002C66  8EC0               	bsf	192,7,c	;volatile
  3910   002C68                     l451:
  3911   002C68  0012               	return		;funcret
  3912   002C6A                     __end_of_select_result_format:
  3913                           	callstack 0
  3914                           
  3915 ;; *************** function _configure_voltage_reference *****************
  3916 ;; Defined at:
  3917 ;;		line 284 in file "MCAL_Layer/ADC/hal_adc.c"
  3918 ;; Parameters:    Size  Location     Type
  3919 ;;  _adc            1    1[COMRAM] PTR const struct .
  3920 ;;		 -> adc_1(7), 
  3921 ;; Auto vars:     Size  Location     Type
  3922 ;;		None
  3923 ;; Return value:  Size  Location     Type
  3924 ;;                  1    wreg      void 
  3925 ;; Registers used:
  3926 ;;		wreg, fsr2l, fsr2h, status,2, status,0
  3927 ;; Tracked objects:
  3928 ;;		On entry : 0/0
  3929 ;;		On exit  : 0/0
  3930 ;;		Unchanged: 0/0
  3931 ;; Data sizes:     COMRAM   BANK0   BANK1   BANK2   BANK3   BANK4   BANK5   BANK6   BANK7   BANK8   BANK9  BANK10  BANK1
      +1  BANK12  BANK13  BANK14  BANK15
  3932 ;;      Params:         1       0       0       0       0       0       0       0       0       0       0       0       
      +0       0       0       0       0
  3933 ;;      Locals:         0       0       0       0       0       0       0       0       0       0       0       0       
      +0       0       0       0       0
  3934 ;;      Temps:          0       0       0       0       0       0       0       0       0       0       0       0       
      +0       0       0       0       0
  3935 ;;      Totals:         1       0       0       0       0       0       0       0       0       0       0       0       
      +0       0       0       0       0
  3936 ;;Total ram usage:        1 bytes
  3937 ;; Hardware stack levels used: 1
  3938 ;; Hardware stack levels required when called: 2
  3939 ;; This function calls:
  3940 ;;		Nothing
  3941 ;; This function is called by:
  3942 ;;		_ADC_Init
  3943 ;; This function uses a non-reentrant model
  3944 ;;
  3945                           
  3946                           	psect	text24
  3947   002BA4                     __ptext24:
  3948                           	callstack 0
  3949   002BA4                     _configure_voltage_reference:
  3950                           	callstack 25
  3951   002BA4                     
  3952                           ;MCAL_Layer/ADC/hal_adc.c: 285:     if(0x01U == _adc->voltage_reference){
  3953   002BA4  503A               	movf	configure_voltage_reference@_adc^0,w,c
  3954   002BA6  6ED9               	movwf	fsr2l,c
  3955   002BA8  6ADA               	clrf	fsr2h,c
  3956   002BAA  0E06               	movlw	6
  3957   002BAC  26D9               	addwf	fsr2l,f,c
  3958   002BAE  A0DF               	btfss	indf2,0,c
  3959   002BB0  EFDC  F015         	goto	u4011
  3960   002BB4  EFDE  F015         	goto	u4010
  3961   002BB8                     u4011:
  3962   002BB8  EFE2  F015         	goto	l5441
  3963   002BBC                     u4010:
  3964   002BBC  8AC1               	bsf	193,5,c	;volatile
  3965   002BBE  88C1               	bsf	193,4,c	;volatile
  3966   002BC0  EFF4  F015         	goto	l464
  3967   002BC4                     l5441:
  3968   002BC4  503A               	movf	configure_voltage_reference@_adc^0,w,c
  3969   002BC6  6ED9               	movwf	fsr2l,c
  3970   002BC8  6ADA               	clrf	fsr2h,c
  3971   002BCA  0E06               	movlw	6
  3972   002BCC  26D9               	addwf	fsr2l,f,c
  3973   002BCE  B0DF               	btfsc	indf2,0,c
  3974   002BD0  EFEC  F015         	goto	u4021
  3975   002BD4  EFEE  F015         	goto	u4020
  3976   002BD8                     u4021:
  3977   002BD8  EFF2  F015         	goto	l462
  3978   002BDC                     u4020:
  3979   002BDC  9AC1               	bcf	193,5,c	;volatile
  3980   002BDE  98C1               	bcf	193,4,c	;volatile
  3981   002BE0  EFF4  F015         	goto	l464
  3982   002BE4                     l462:
  3983   002BE4  9AC1               	bcf	193,5,c	;volatile
  3984   002BE6  98C1               	bcf	193,4,c	;volatile
  3985   002BE8                     l464:
  3986   002BE8  0012               	return		;funcret
  3987   002BEA                     __end_of_configure_voltage_reference:
  3988                           	callstack 0
  3989                           
  3990 ;; *************** function ___xxtofl *****************
  3991 ;; Defined at:
  3992 ;;		line 10 in file "C:\Program Files\Microchip\xc8\v2.45\pic\sources\c99\common\xxtofl.c"
  3993 ;; Parameters:    Size  Location     Type
  3994 ;;  sign            1    wreg     unsigned char 
  3995 ;;  val             4    1[COMRAM] long 
  3996 ;; Auto vars:     Size  Location     Type
  3997 ;;  sign            1    9[COMRAM] unsigned char 
  3998 ;;  arg             4   11[COMRAM] unsigned long 
  3999 ;;  exp             1   10[COMRAM] unsigned char 
  4000 ;; Return value:  Size  Location     Type
  4001 ;;                  4    1[COMRAM] unsigned char 
  4002 ;; Registers used:
  4003 ;;		wreg, status,2, status,0
  4004 ;; Tracked objects:
  4005 ;;		On entry : 0/0
  4006 ;;		On exit  : 0/0
  4007 ;;		Unchanged: 0/0
  4008 ;; Data sizes:     COMRAM   BANK0   BANK1   BANK2   BANK3   BANK4   BANK5   BANK6   BANK7   BANK8   BANK9  BANK10  BANK1
      +1  BANK12  BANK13  BANK14  BANK15
  4009 ;;      Params:         4       0       0       0       0       0       0       0       0       0       0       0       
      +0       0       0       0       0
  4010 ;;      Locals:         6       0       0       0       0       0       0       0       0       0       0       0       
      +0       0       0       0       0
  4011 ;;      Temps:          4       0       0       0       0       0       0       0       0       0       0       0       
      +0       0       0       0       0
  4012 ;;      Totals:        14       0       0       0       0       0       0       0       0       0       0       0       
      +0       0       0       0       0
  4013 ;;Total ram usage:       14 bytes
  4014 ;; Hardware stack levels used: 1
  4015 ;; Hardware stack levels required when called: 2
  4016 ;; This function calls:
  4017 ;;		Nothing
  4018 ;; This function is called by:
  4019 ;;		_main
  4020 ;;		_CCP_PWM_Set_Duty
  4021 ;;		_CCP_PWM_Mode_Config
  4022 ;;		_EUSART_Baud_Rate_Calculation
  4023 ;; This function uses a non-reentrant model
  4024 ;;
  4025                           
  4026                           	psect	text25
  4027   0019E4                     __ptext25:
  4028                           	callstack 0
  4029   0019E4                     ___xxtofl:
  4030                           	callstack 28
  4031                           
  4032                           ;incstack = 0
  4033                           ;___xxtofl@sign stored from wreg
  4034   0019E4  6E42               	movwf	___xxtofl@sign^0,c
  4035   0019E6  5042               	movf	___xxtofl@sign^0,w,c
  4036   0019E8  B4D8               	btfsc	status,2,c
  4037   0019EA  EFF9  F00C         	goto	u4911
  4038   0019EE  EFFB  F00C         	goto	u4910
  4039   0019F2                     u4911:
  4040   0019F2  EF1D  F00D         	goto	l2226
  4041   0019F6                     u4910:
  4042   0019F6  BE3D               	btfsc	(___xxtofl@val+3)^0,7,c
  4043   0019F8  EF02  F00D         	goto	u4920
  4044   0019FC  EF00  F00D         	goto	u4921
  4045   001A00                     u4921:
  4046   001A00  EF1D  F00D         	goto	l2226
  4047   001A04                     u4920:
  4048   001A04  C03A  F03E         	movff	___xxtofl@val,??___xxtofl
  4049   001A08  C03B  F03F         	movff	___xxtofl@val+1,??___xxtofl+1
  4050   001A0C  C03C  F040         	movff	___xxtofl@val+2,??___xxtofl+2
  4051   001A10  C03D  F041         	movff	___xxtofl@val+3,??___xxtofl+3
  4052   001A14  1E3E               	comf	??___xxtofl^0,f,c
  4053   001A16  1E3F               	comf	(??___xxtofl+1)^0,f,c
  4054   001A18  1E40               	comf	(??___xxtofl+2)^0,f,c
  4055   001A1A  1E41               	comf	(??___xxtofl+3)^0,f,c
  4056   001A1C  2A3E               	incf	??___xxtofl^0,f,c
  4057   001A1E  0E00               	movlw	0
  4058   001A20  223F               	addwfc	(??___xxtofl+1)^0,f,c
  4059   001A22  2240               	addwfc	(??___xxtofl+2)^0,f,c
  4060   001A24  2241               	addwfc	(??___xxtofl+3)^0,f,c
  4061   001A26  C03E  F044         	movff	??___xxtofl,___xxtofl@arg
  4062   001A2A  C03F  F045         	movff	??___xxtofl+1,___xxtofl@arg+1
  4063   001A2E  C040  F046         	movff	??___xxtofl+2,___xxtofl@arg+2
  4064   001A32  C041  F047         	movff	??___xxtofl+3,___xxtofl@arg+3
  4065   001A36  EF25  F00D         	goto	l6217
  4066   001A3A                     l2226:
  4067   001A3A  C03A  F044         	movff	___xxtofl@val,___xxtofl@arg
  4068   001A3E  C03B  F045         	movff	___xxtofl@val+1,___xxtofl@arg+1
  4069   001A42  C03C  F046         	movff	___xxtofl@val+2,___xxtofl@arg+2
  4070   001A46  C03D  F047         	movff	___xxtofl@val+3,___xxtofl@arg+3
  4071   001A4A                     l6217:
  4072   001A4A  503A               	movf	___xxtofl@val^0,w,c
  4073   001A4C  103B               	iorwf	(___xxtofl@val+1)^0,w,c
  4074   001A4E  103C               	iorwf	(___xxtofl@val+2)^0,w,c
  4075   001A50  103D               	iorwf	(___xxtofl@val+3)^0,w,c
  4076   001A52  A4D8               	btfss	status,2,c
  4077   001A54  EF2E  F00D         	goto	u4931
  4078   001A58  EF30  F00D         	goto	u4930
  4079   001A5C                     u4931:
  4080   001A5C  EF3A  F00D         	goto	l6223
  4081   001A60                     u4930:
  4082   001A60  0E00               	movlw	0
  4083   001A62  6E3A               	movwf	?___xxtofl^0,c
  4084   001A64  0E00               	movlw	0
  4085   001A66  6E3B               	movwf	(?___xxtofl+1)^0,c
  4086   001A68  0E00               	movlw	0
  4087   001A6A  6E3C               	movwf	(?___xxtofl+2)^0,c
  4088   001A6C  0E00               	movlw	0
  4089   001A6E  6E3D               	movwf	(?___xxtofl+3)^0,c
  4090   001A70  EFCB  F00D         	goto	l2229
  4091   001A74                     l6223:
  4092   001A74  0E96               	movlw	150
  4093   001A76  6E43               	movwf	___xxtofl@exp^0,c
  4094   001A78  EF44  F00D         	goto	l6227
  4095   001A7C                     l6225:
  4096   001A7C  2A43               	incf	___xxtofl@exp^0,f,c
  4097   001A7E  90D8               	bcf	status,0,c
  4098   001A80  3247               	rrcf	(___xxtofl@arg+3)^0,f,c
  4099   001A82  3246               	rrcf	(___xxtofl@arg+2)^0,f,c
  4100   001A84  3245               	rrcf	(___xxtofl@arg+1)^0,f,c
  4101   001A86  3244               	rrcf	___xxtofl@arg^0,f,c
  4102   001A88                     l6227:
  4103   001A88  0E00               	movlw	0
  4104   001A8A  1444               	andwf	___xxtofl@arg^0,w,c
  4105   001A8C  6E3E               	movwf	??___xxtofl^0,c
  4106   001A8E  0E00               	movlw	0
  4107   001A90  1445               	andwf	(___xxtofl@arg+1)^0,w,c
  4108   001A92  6E3F               	movwf	(??___xxtofl+1)^0,c
  4109   001A94  0E00               	movlw	0
  4110   001A96  1446               	andwf	(___xxtofl@arg+2)^0,w,c
  4111   001A98  6E40               	movwf	(??___xxtofl+2)^0,c
  4112   001A9A  0EFE               	movlw	254
  4113   001A9C  1447               	andwf	(___xxtofl@arg+3)^0,w,c
  4114   001A9E  6E41               	movwf	(??___xxtofl+3)^0,c
  4115   001AA0  503E               	movf	??___xxtofl^0,w,c
  4116   001AA2  103F               	iorwf	(??___xxtofl+1)^0,w,c
  4117   001AA4  1040               	iorwf	(??___xxtofl+2)^0,w,c
  4118   001AA6  1041               	iorwf	(??___xxtofl+3)^0,w,c
  4119   001AA8  A4D8               	btfss	status,2,c
  4120   001AAA  EF59  F00D         	goto	u4941
  4121   001AAE  EF5B  F00D         	goto	u4940
  4122   001AB2                     u4941:
  4123   001AB2  EF3E  F00D         	goto	l6225
  4124   001AB6                     u4940:
  4125   001AB6  EF69  F00D         	goto	l2233
  4126   001ABA                     l6229:
  4127   001ABA  2A43               	incf	___xxtofl@exp^0,f,c
  4128   001ABC  0E01               	movlw	1
  4129   001ABE  2644               	addwf	___xxtofl@arg^0,f,c
  4130   001AC0  0E00               	movlw	0
  4131   001AC2  2245               	addwfc	(___xxtofl@arg+1)^0,f,c
  4132   001AC4  2246               	addwfc	(___xxtofl@arg+2)^0,f,c
  4133   001AC6  2247               	addwfc	(___xxtofl@arg+3)^0,f,c
  4134   001AC8  90D8               	bcf	status,0,c
  4135   001ACA  3247               	rrcf	(___xxtofl@arg+3)^0,f,c
  4136   001ACC  3246               	rrcf	(___xxtofl@arg+2)^0,f,c
  4137   001ACE  3245               	rrcf	(___xxtofl@arg+1)^0,f,c
  4138   001AD0  3244               	rrcf	___xxtofl@arg^0,f,c
  4139   001AD2                     l2233:
  4140   001AD2  0E00               	movlw	0
  4141   001AD4  1444               	andwf	___xxtofl@arg^0,w,c
  4142   001AD6  6E3E               	movwf	??___xxtofl^0,c
  4143   001AD8  0E00               	movlw	0
  4144   001ADA  1445               	andwf	(___xxtofl@arg+1)^0,w,c
  4145   001ADC  6E3F               	movwf	(??___xxtofl+1)^0,c
  4146   001ADE  0E00               	movlw	0
  4147   001AE0  1446               	andwf	(___xxtofl@arg+2)^0,w,c
  4148   001AE2  6E40               	movwf	(??___xxtofl+2)^0,c
  4149   001AE4  0EFF               	movlw	255
  4150   001AE6  1447               	andwf	(___xxtofl@arg+3)^0,w,c
  4151   001AE8  6E41               	movwf	(??___xxtofl+3)^0,c
  4152   001AEA  503E               	movf	??___xxtofl^0,w,c
  4153   001AEC  103F               	iorwf	(??___xxtofl+1)^0,w,c
  4154   001AEE  1040               	iorwf	(??___xxtofl+2)^0,w,c
  4155   001AF0  1041               	iorwf	(??___xxtofl+3)^0,w,c
  4156   001AF2  A4D8               	btfss	status,2,c
  4157   001AF4  EF7E  F00D         	goto	u4951
  4158   001AF8  EF80  F00D         	goto	u4950
  4159   001AFC                     u4951:
  4160   001AFC  EF5D  F00D         	goto	l6229
  4161   001B00                     u4950:
  4162   001B00  EF88  F00D         	goto	l6237
  4163   001B04                     l6235:
  4164   001B04  0643               	decf	___xxtofl@exp^0,f,c
  4165   001B06  90D8               	bcf	status,0,c
  4166   001B08  3644               	rlcf	___xxtofl@arg^0,f,c
  4167   001B0A  3645               	rlcf	(___xxtofl@arg+1)^0,f,c
  4168   001B0C  3646               	rlcf	(___xxtofl@arg+2)^0,f,c
  4169   001B0E  3647               	rlcf	(___xxtofl@arg+3)^0,f,c
  4170   001B10                     l6237:
  4171   001B10  BE46               	btfsc	(___xxtofl@arg+2)^0,7,c
  4172   001B12  EF8D  F00D         	goto	u4961
  4173   001B16  EF8F  F00D         	goto	u4960
  4174   001B1A                     u4961:
  4175   001B1A  EF97  F00D         	goto	l2240
  4176   001B1E                     u4960:
  4177   001B1E  0E02               	movlw	2
  4178   001B20  6043               	cpfslt	___xxtofl@exp^0,c
  4179   001B22  EF95  F00D         	goto	u4971
  4180   001B26  EF97  F00D         	goto	u4970
  4181   001B2A                     u4971:
  4182   001B2A  EF82  F00D         	goto	l6235
  4183   001B2E                     u4970:
  4184   001B2E                     l2240:
  4185   001B2E  B043               	btfsc	___xxtofl@exp^0,0,c
  4186   001B30  EF9C  F00D         	goto	u4981
  4187   001B34  EF9E  F00D         	goto	u4980
  4188   001B38                     u4981:
  4189   001B38  EF9F  F00D         	goto	l6243
  4190   001B3C                     u4980:
  4191   001B3C  9E46               	bcf	(___xxtofl@arg+2)^0,7,c
  4192   001B3E                     l6243:
  4193   001B3E  90D8               	bcf	status,0,c
  4194   001B40  3243               	rrcf	___xxtofl@exp^0,f,c
  4195   001B42  C043  F03E         	movff	___xxtofl@exp,??___xxtofl
  4196   001B46  6A3F               	clrf	(??___xxtofl+1)^0,c
  4197   001B48  6A40               	clrf	(??___xxtofl+2)^0,c
  4198   001B4A  6A41               	clrf	(??___xxtofl+3)^0,c
  4199   001B4C  C03E  F041         	movff	??___xxtofl,??___xxtofl+3
  4200   001B50  6A40               	clrf	(??___xxtofl+2)^0,c
  4201   001B52  6A3F               	clrf	(??___xxtofl+1)^0,c
  4202   001B54  6A3E               	clrf	??___xxtofl^0,c
  4203   001B56  503E               	movf	??___xxtofl^0,w,c
  4204   001B58  1244               	iorwf	___xxtofl@arg^0,f,c
  4205   001B5A  503F               	movf	(??___xxtofl+1)^0,w,c
  4206   001B5C  1245               	iorwf	(___xxtofl@arg+1)^0,f,c
  4207   001B5E  5040               	movf	(??___xxtofl+2)^0,w,c
  4208   001B60  1246               	iorwf	(___xxtofl@arg+2)^0,f,c
  4209   001B62  5041               	movf	(??___xxtofl+3)^0,w,c
  4210   001B64  1247               	iorwf	(___xxtofl@arg+3)^0,f,c
  4211   001B66  5042               	movf	___xxtofl@sign^0,w,c
  4212   001B68  B4D8               	btfsc	status,2,c
  4213   001B6A  EFB9  F00D         	goto	u4991
  4214   001B6E  EFBB  F00D         	goto	u4990
  4215   001B72                     u4991:
  4216   001B72  EFC3  F00D         	goto	l6253
  4217   001B76                     u4990:
  4218   001B76  BE3D               	btfsc	(___xxtofl@val+3)^0,7,c
  4219   001B78  EFC2  F00D         	goto	u5000
  4220   001B7C  EFC0  F00D         	goto	u5001
  4221   001B80                     u5001:
  4222   001B80  EFC3  F00D         	goto	l6253
  4223   001B84                     u5000:
  4224   001B84  8E47               	bsf	(___xxtofl@arg+3)^0,7,c
  4225   001B86                     l6253:
  4226   001B86  C044  F03A         	movff	___xxtofl@arg,?___xxtofl
  4227   001B8A  C045  F03B         	movff	___xxtofl@arg+1,?___xxtofl+1
  4228   001B8E  C046  F03C         	movff	___xxtofl@arg+2,?___xxtofl+2
  4229   001B92  C047  F03D         	movff	___xxtofl@arg+3,?___xxtofl+3
  4230   001B96                     l2229:
  4231   001B96  0012               	return		;funcret
  4232   001B98                     __end_of___xxtofl:
  4233                           	callstack 0
  4234                           
  4235 ;; *************** function ___lwdiv *****************
  4236 ;; Defined at:
  4237 ;;		line 7 in file "C:\Program Files\Microchip\xc8\v2.45\pic\sources\c99\common\lwdiv.c"
  4238 ;; Parameters:    Size  Location     Type
  4239 ;;  dividend        2    1[COMRAM] unsigned int 
  4240 ;;  divisor         2    3[COMRAM] unsigned int 
  4241 ;; Auto vars:     Size  Location     Type
  4242 ;;  quotient        2    5[COMRAM] unsigned int 
  4243 ;;  counter         1    7[COMRAM] unsigned char 
  4244 ;; Return value:  Size  Location     Type
  4245 ;;                  2    1[COMRAM] unsigned int 
  4246 ;; Registers used:
  4247 ;;		wreg, status,2, status,0
  4248 ;; Tracked objects:
  4249 ;;		On entry : 0/0
  4250 ;;		On exit  : 0/0
  4251 ;;		Unchanged: 0/0
  4252 ;; Data sizes:     COMRAM   BANK0   BANK1   BANK2   BANK3   BANK4   BANK5   BANK6   BANK7   BANK8   BANK9  BANK10  BANK1
      +1  BANK12  BANK13  BANK14  BANK15
  4253 ;;      Params:         4       0       0       0       0       0       0       0       0       0       0       0       
      +0       0       0       0       0
  4254 ;;      Locals:         3       0       0       0       0       0       0       0       0       0       0       0       
      +0       0       0       0       0
  4255 ;;      Temps:          0       0       0       0       0       0       0       0       0       0       0       0       
      +0       0       0       0       0
  4256 ;;      Totals:         7       0       0       0       0       0       0       0       0       0       0       0       
      +0       0       0       0       0
  4257 ;;Total ram usage:        7 bytes
  4258 ;; Hardware stack levels used: 1
  4259 ;; Hardware stack levels required when called: 2
  4260 ;; This function calls:
  4261 ;;		Nothing
  4262 ;; This function is called by:
  4263 ;;		_main
  4264 ;; This function uses a non-reentrant model
  4265 ;;
  4266                           
  4267                           	psect	text26
  4268   0028B4                     __ptext26:
  4269                           	callstack 0
  4270   0028B4                     ___lwdiv:
  4271                           	callstack 28
  4272   0028B4  0E00               	movlw	0
  4273   0028B6  6E3F               	movwf	(___lwdiv@quotient+1)^0,c
  4274   0028B8  0E00               	movlw	0
  4275   0028BA  6E3E               	movwf	___lwdiv@quotient^0,c
  4276   0028BC  503C               	movf	___lwdiv@divisor^0,w,c
  4277   0028BE  103D               	iorwf	(___lwdiv@divisor+1)^0,w,c
  4278   0028C0  B4D8               	btfsc	status,2,c
  4279   0028C2  EF65  F014         	goto	u4881
  4280   0028C6  EF67  F014         	goto	u4880
  4281   0028CA                     u4881:
  4282   0028CA  EF8F  F014         	goto	l2062
  4283   0028CE                     u4880:
  4284   0028CE  0E01               	movlw	1
  4285   0028D0  6E40               	movwf	___lwdiv@counter^0,c
  4286   0028D2  EF6F  F014         	goto	l6197
  4287   0028D6                     l6195:
  4288   0028D6  90D8               	bcf	status,0,c
  4289   0028D8  363C               	rlcf	___lwdiv@divisor^0,f,c
  4290   0028DA  363D               	rlcf	(___lwdiv@divisor+1)^0,f,c
  4291   0028DC  2A40               	incf	___lwdiv@counter^0,f,c
  4292   0028DE                     l6197:
  4293   0028DE  AE3D               	btfss	(___lwdiv@divisor+1)^0,7,c
  4294   0028E0  EF74  F014         	goto	u4891
  4295   0028E4  EF76  F014         	goto	u4890
  4296   0028E8                     u4891:
  4297   0028E8  EF6B  F014         	goto	l6195
  4298   0028EC                     u4890:
  4299   0028EC                     l6199:
  4300   0028EC  90D8               	bcf	status,0,c
  4301   0028EE  363E               	rlcf	___lwdiv@quotient^0,f,c
  4302   0028F0  363F               	rlcf	(___lwdiv@quotient+1)^0,f,c
  4303   0028F2  503C               	movf	___lwdiv@divisor^0,w,c
  4304   0028F4  5C3A               	subwf	___lwdiv@dividend^0,w,c
  4305   0028F6  503D               	movf	(___lwdiv@divisor+1)^0,w,c
  4306   0028F8  583B               	subwfb	(___lwdiv@dividend+1)^0,w,c
  4307   0028FA  A0D8               	btfss	status,0,c
  4308   0028FC  EF82  F014         	goto	u4901
  4309   002900  EF84  F014         	goto	u4900
  4310   002904                     u4901:
  4311   002904  EF89  F014         	goto	l6207
  4312   002908                     u4900:
  4313   002908  503C               	movf	___lwdiv@divisor^0,w,c
  4314   00290A  5E3A               	subwf	___lwdiv@dividend^0,f,c
  4315   00290C  503D               	movf	(___lwdiv@divisor+1)^0,w,c
  4316   00290E  5A3B               	subwfb	(___lwdiv@dividend+1)^0,f,c
  4317   002910  803E               	bsf	___lwdiv@quotient^0,0,c
  4318   002912                     l6207:
  4319   002912  90D8               	bcf	status,0,c
  4320   002914  323D               	rrcf	(___lwdiv@divisor+1)^0,f,c
  4321   002916  323C               	rrcf	___lwdiv@divisor^0,f,c
  4322   002918  2E40               	decfsz	___lwdiv@counter^0,f,c
  4323   00291A  EF76  F014         	goto	l6199
  4324   00291E                     l2062:
  4325   00291E  C03E  F03A         	movff	___lwdiv@quotient,?___lwdiv
  4326   002922  C03F  F03B         	movff	___lwdiv@quotient+1,?___lwdiv+1
  4327   002926  0012               	return		;funcret
  4328   002928                     __end_of___lwdiv:
  4329                           	callstack 0
  4330                           
  4331 ;; *************** function ___fltol *****************
  4332 ;; Defined at:
  4333 ;;		line 43 in file "C:\Program Files\Microchip\xc8\v2.45\pic\sources\c99\common\fltol.c"
  4334 ;; Parameters:    Size  Location     Type
  4335 ;;  f1              4   40[COMRAM] unsigned int 
  4336 ;; Auto vars:     Size  Location     Type
  4337 ;;  exp1            1   49[COMRAM] unsigned char 
  4338 ;;  sign1           1   48[COMRAM] unsigned char 
  4339 ;; Return value:  Size  Location     Type
  4340 ;;                  4   40[COMRAM] long 
  4341 ;; Registers used:
  4342 ;;		wreg, status,2, status,0
  4343 ;; Tracked objects:
  4344 ;;		On entry : 0/0
  4345 ;;		On exit  : 0/0
  4346 ;;		Unchanged: 0/0
  4347 ;; Data sizes:     COMRAM   BANK0   BANK1   BANK2   BANK3   BANK4   BANK5   BANK6   BANK7   BANK8   BANK9  BANK10  BANK1
      +1  BANK12  BANK13  BANK14  BANK15
  4348 ;;      Params:         4       0       0       0       0       0       0       0       0       0       0       0       
      +0       0       0       0       0
  4349 ;;      Locals:         2       0       0       0       0       0       0       0       0       0       0       0       
      +0       0       0       0       0
  4350 ;;      Temps:          4       0       0       0       0       0       0       0       0       0       0       0       
      +0       0       0       0       0
  4351 ;;      Totals:        10       0       0       0       0       0       0       0       0       0       0       0       
      +0       0       0       0       0
  4352 ;;Total ram usage:       10 bytes
  4353 ;; Hardware stack levels used: 1
  4354 ;; Hardware stack levels required when called: 2
  4355 ;; This function calls:
  4356 ;;		Nothing
  4357 ;; This function is called by:
  4358 ;;		_main
  4359 ;;		_CCP_PWM_Set_Duty
  4360 ;;		_CCP_PWM_Mode_Config
  4361 ;;		_EUSART_Baud_Rate_Calculation
  4362 ;; This function uses a non-reentrant model
  4363 ;;
  4364                           
  4365                           	psect	text27
  4366   001F10                     __ptext27:
  4367                           	callstack 0
  4368   001F10                     ___fltol:
  4369                           	callstack 28
  4370   001F10  3463               	rlcf	(___fltol@f1+2)^0,w,c
  4371   001F12  3464               	rlcf	(___fltol@f1+3)^0,w,c
  4372   001F14  6E6A               	movwf	___fltol@exp1^0,c
  4373   001F16  506A               	movf	___fltol@exp1^0,w,c
  4374   001F18  A4D8               	btfss	status,2,c
  4375   001F1A  EF91  F00F         	goto	u4811
  4376   001F1E  EF93  F00F         	goto	u4810
  4377   001F22                     u4811:
  4378   001F22  EF9D  F00F         	goto	l6151
  4379   001F26                     u4810:
  4380   001F26                     l6147:
  4381   001F26  0E00               	movlw	0
  4382   001F28  6E61               	movwf	?___fltol^0,c
  4383   001F2A  0E00               	movlw	0
  4384   001F2C  6E62               	movwf	(?___fltol+1)^0,c
  4385   001F2E  0E00               	movlw	0
  4386   001F30  6E63               	movwf	(?___fltol+2)^0,c
  4387   001F32  0E00               	movlw	0
  4388   001F34  6E64               	movwf	(?___fltol+3)^0,c
  4389   001F36  EF0A  F010         	goto	l1868
  4390   001F3A                     l6151:
  4391   001F3A  C061  F065         	movff	___fltol@f1,??___fltol
  4392   001F3E  C062  F066         	movff	___fltol@f1+1,??___fltol+1
  4393   001F42  C063  F067         	movff	___fltol@f1+2,??___fltol+2
  4394   001F46  C064  F068         	movff	___fltol@f1+3,??___fltol+3
  4395   001F4A  0E20               	movlw	32
  4396   001F4C  EFAD  F00F         	goto	u4820
  4397   001F50                     u4825:
  4398   001F50  90D8               	bcf	status,0,c
  4399   001F52  3268               	rrcf	(??___fltol+3)^0,f,c
  4400   001F54  3267               	rrcf	(??___fltol+2)^0,f,c
  4401   001F56  3266               	rrcf	(??___fltol+1)^0,f,c
  4402   001F58  3265               	rrcf	??___fltol^0,f,c
  4403   001F5A                     u4820:
  4404   001F5A  2EE8               	decfsz	wreg,f,c
  4405   001F5C  EFA8  F00F         	goto	u4825
  4406   001F60  5065               	movf	??___fltol^0,w,c
  4407   001F62  6E69               	movwf	___fltol@sign1^0,c
  4408   001F64  8E63               	bsf	(___fltol@f1+2)^0,7,c
  4409   001F66  0EFF               	movlw	255
  4410   001F68  1661               	andwf	___fltol@f1^0,f,c
  4411   001F6A  0EFF               	movlw	255
  4412   001F6C  1662               	andwf	(___fltol@f1+1)^0,f,c
  4413   001F6E  0EFF               	movlw	255
  4414   001F70  1663               	andwf	(___fltol@f1+2)^0,f,c
  4415   001F72  0E00               	movlw	0
  4416   001F74  1664               	andwf	(___fltol@f1+3)^0,f,c
  4417   001F76  0E96               	movlw	150
  4418   001F78  5E6A               	subwf	___fltol@exp1^0,f,c
  4419   001F7A  BE6A               	btfsc	___fltol@exp1^0,7,c
  4420   001F7C  EFC4  F00F         	goto	u4830
  4421   001F80  EFC2  F00F         	goto	u4831
  4422   001F84                     u4831:
  4423   001F84  EFDA  F00F         	goto	l6171
  4424   001F88                     u4830:
  4425   001F88  506A               	movf	___fltol@exp1^0,w,c
  4426   001F8A  0A80               	xorlw	128
  4427   001F8C  0F97               	addlw	151
  4428   001F8E  B0D8               	btfsc	status,0,c
  4429   001F90  EFCC  F00F         	goto	u4841
  4430   001F94  EFCE  F00F         	goto	u4840
  4431   001F98                     u4841:
  4432   001F98  EFD0  F00F         	goto	l6167
  4433   001F9C                     u4840:
  4434   001F9C  EF93  F00F         	goto	l6147
  4435   001FA0                     l6167:
  4436   001FA0  90D8               	bcf	status,0,c
  4437   001FA2  3264               	rrcf	(___fltol@f1+3)^0,f,c
  4438   001FA4  3263               	rrcf	(___fltol@f1+2)^0,f,c
  4439   001FA6  3262               	rrcf	(___fltol@f1+1)^0,f,c
  4440   001FA8  3261               	rrcf	___fltol@f1^0,f,c
  4441   001FAA  3E6A               	incfsz	___fltol@exp1^0,f,c
  4442   001FAC  EFD0  F00F         	goto	l6167
  4443   001FB0  EFF2  F00F         	goto	l6181
  4444   001FB4                     l6171:
  4445   001FB4  0E1F               	movlw	31
  4446   001FB6  646A               	cpfsgt	___fltol@exp1^0,c
  4447   001FB8  EFE0  F00F         	goto	u4851
  4448   001FBC  EFE2  F00F         	goto	u4850
  4449   001FC0                     u4851:
  4450   001FC0  EFEA  F00F         	goto	l6179
  4451   001FC4                     u4850:
  4452   001FC4  EF93  F00F         	goto	l6147
  4453   001FC8                     l6177:
  4454   001FC8  90D8               	bcf	status,0,c
  4455   001FCA  3661               	rlcf	___fltol@f1^0,f,c
  4456   001FCC  3662               	rlcf	(___fltol@f1+1)^0,f,c
  4457   001FCE  3663               	rlcf	(___fltol@f1+2)^0,f,c
  4458   001FD0  3664               	rlcf	(___fltol@f1+3)^0,f,c
  4459   001FD2  066A               	decf	___fltol@exp1^0,f,c
  4460   001FD4                     l6179:
  4461   001FD4  506A               	movf	___fltol@exp1^0,w,c
  4462   001FD6  A4D8               	btfss	status,2,c
  4463   001FD8  EFF0  F00F         	goto	u4861
  4464   001FDC  EFF2  F00F         	goto	u4860
  4465   001FE0                     u4861:
  4466   001FE0  EFE4  F00F         	goto	l6177
  4467   001FE4                     u4860:
  4468   001FE4                     l6181:
  4469   001FE4  5069               	movf	___fltol@sign1^0,w,c
  4470   001FE6  B4D8               	btfsc	status,2,c
  4471   001FE8  EFF8  F00F         	goto	u4871
  4472   001FEC  EFFA  F00F         	goto	u4870
  4473   001FF0                     u4871:
  4474   001FF0  EF02  F010         	goto	l6185
  4475   001FF4                     u4870:
  4476   001FF4  1E64               	comf	(___fltol@f1+3)^0,f,c
  4477   001FF6  1E63               	comf	(___fltol@f1+2)^0,f,c
  4478   001FF8  1E62               	comf	(___fltol@f1+1)^0,f,c
  4479   001FFA  6C61               	negf	___fltol@f1^0,c
  4480   001FFC  0E00               	movlw	0
  4481   001FFE  2262               	addwfc	(___fltol@f1+1)^0,f,c
  4482   002000  2263               	addwfc	(___fltol@f1+2)^0,f,c
  4483   002002  2264               	addwfc	(___fltol@f1+3)^0,f,c
  4484   002004                     l6185:
  4485   002004  C061  F061         	movff	___fltol@f1,?___fltol
  4486   002008  C062  F062         	movff	___fltol@f1+1,?___fltol+1
  4487   00200C  C063  F063         	movff	___fltol@f1+2,?___fltol+2
  4488   002010  C064  F064         	movff	___fltol@f1+3,?___fltol+3
  4489   002014                     l1868:
  4490   002014  0012               	return		;funcret
  4491   002016                     __end_of___fltol:
  4492                           	callstack 0
  4493                           
  4494 ;; *************** function ___flmul *****************
  4495 ;; Defined at:
  4496 ;;		line 8 in file "C:\Program Files\Microchip\xc8\v2.45\pic\sources\c99\common\sprcmul.c"
  4497 ;; Parameters:    Size  Location     Type
  4498 ;;  b               4   15[COMRAM] long 
  4499 ;;  a               4   19[COMRAM] long 
  4500 ;; Auto vars:     Size  Location     Type
  4501 ;;  prod            4   34[COMRAM] struct .
  4502 ;;  grs             4   28[COMRAM] unsigned long 
  4503 ;;  temp            2   38[COMRAM] struct .
  4504 ;;  bexp            1   33[COMRAM] unsigned char 
  4505 ;;  aexp            1   32[COMRAM] unsigned char 
  4506 ;;  sign            1   27[COMRAM] unsigned char 
  4507 ;; Return value:  Size  Location     Type
  4508 ;;                  4   15[COMRAM] unsigned char 
  4509 ;; Registers used:
  4510 ;;		wreg, status,2, status,0, prodl, prodh
  4511 ;; Tracked objects:
  4512 ;;		On entry : 0/0
  4513 ;;		On exit  : 0/0
  4514 ;;		Unchanged: 0/0
  4515 ;; Data sizes:     COMRAM   BANK0   BANK1   BANK2   BANK3   BANK4   BANK5   BANK6   BANK7   BANK8   BANK9  BANK10  BANK1
      +1  BANK12  BANK13  BANK14  BANK15
  4516 ;;      Params:         8       0       0       0       0       0       0       0       0       0       0       0       
      +0       0       0       0       0
  4517 ;;      Locals:        13       0       0       0       0       0       0       0       0       0       0       0       
      +0       0       0       0       0
  4518 ;;      Temps:          4       0       0       0       0       0       0       0       0       0       0       0       
      +0       0       0       0       0
  4519 ;;      Totals:        25       0       0       0       0       0       0       0       0       0       0       0       
      +0       0       0       0       0
  4520 ;;Total ram usage:       25 bytes
  4521 ;; Hardware stack levels used: 1
  4522 ;; Hardware stack levels required when called: 2
  4523 ;; This function calls:
  4524 ;;		Nothing
  4525 ;; This function is called by:
  4526 ;;		_main
  4527 ;;		_CCP_PWM_Set_Duty
  4528 ;;		_CCP_PWM_Mode_Config
  4529 ;; This function uses a non-reentrant model
  4530 ;;
  4531                           
  4532                           	psect	text28
  4533   001032                     __ptext28:
  4534                           	callstack 0
  4535   001032                     ___flmul:
  4536                           	callstack 28
  4537   001032  504B               	movf	(___flmul@b+3)^0,w,c
  4538   001034  0B80               	andlw	128
  4539   001036  6E54               	movwf	___flmul@sign^0,c
  4540   001038  504B               	movf	(___flmul@b+3)^0,w,c
  4541   00103A  244B               	addwf	(___flmul@b+3)^0,w,c
  4542   00103C  6E5A               	movwf	___flmul@bexp^0,c
  4543   00103E  AE4A               	btfss	(___flmul@b+2)^0,7,c
  4544   001040  EF24  F008         	goto	u4621
  4545   001044  EF26  F008         	goto	u4620
  4546   001048                     u4621:
  4547   001048  EF27  F008         	goto	l6021
  4548   00104C                     u4620:
  4549   00104C  805A               	bsf	___flmul@bexp^0,0,c
  4550   00104E                     l6021:
  4551   00104E  505A               	movf	___flmul@bexp^0,w,c
  4552   001050  B4D8               	btfsc	status,2,c
  4553   001052  EF2D  F008         	goto	u4631
  4554   001056  EF2F  F008         	goto	u4630
  4555   00105A                     u4631:
  4556   00105A  EF42  F008         	goto	l6029
  4557   00105E                     u4630:
  4558   00105E  285A               	incf	___flmul@bexp^0,w,c
  4559   001060  A4D8               	btfss	status,2,c
  4560   001062  EF35  F008         	goto	u4641
  4561   001066  EF37  F008         	goto	u4640
  4562   00106A                     u4641:
  4563   00106A  EF3F  F008         	goto	l6027
  4564   00106E                     u4640:
  4565   00106E  0E00               	movlw	0
  4566   001070  6E48               	movwf	___flmul@b^0,c
  4567   001072  0E00               	movlw	0
  4568   001074  6E49               	movwf	(___flmul@b+1)^0,c
  4569   001076  0E00               	movlw	0
  4570   001078  6E4A               	movwf	(___flmul@b+2)^0,c
  4571   00107A  0E00               	movlw	0
  4572   00107C  6E4B               	movwf	(___flmul@b+3)^0,c
  4573   00107E                     l6027:
  4574   00107E  8E4A               	bsf	(___flmul@b+2)^0,7,c
  4575   001080  EF4A  F008         	goto	l6031
  4576   001084                     l6029:
  4577   001084  0E00               	movlw	0
  4578   001086  6E48               	movwf	___flmul@b^0,c
  4579   001088  0E00               	movlw	0
  4580   00108A  6E49               	movwf	(___flmul@b+1)^0,c
  4581   00108C  0E00               	movlw	0
  4582   00108E  6E4A               	movwf	(___flmul@b+2)^0,c
  4583   001090  0E00               	movlw	0
  4584   001092  6E4B               	movwf	(___flmul@b+3)^0,c
  4585   001094                     l6031:
  4586   001094  504F               	movf	(___flmul@a+3)^0,w,c
  4587   001096  0B80               	andlw	128
  4588   001098  1A54               	xorwf	___flmul@sign^0,f,c
  4589   00109A  504F               	movf	(___flmul@a+3)^0,w,c
  4590   00109C  244F               	addwf	(___flmul@a+3)^0,w,c
  4591   00109E  6E59               	movwf	___flmul@aexp^0,c
  4592   0010A0  AE4E               	btfss	(___flmul@a+2)^0,7,c
  4593   0010A2  EF55  F008         	goto	u4651
  4594   0010A6  EF57  F008         	goto	u4650
  4595   0010AA                     u4651:
  4596   0010AA  EF58  F008         	goto	l6039
  4597   0010AE                     u4650:
  4598   0010AE  8059               	bsf	___flmul@aexp^0,0,c
  4599   0010B0                     l6039:
  4600   0010B0  5059               	movf	___flmul@aexp^0,w,c
  4601   0010B2  B4D8               	btfsc	status,2,c
  4602   0010B4  EF5E  F008         	goto	u4661
  4603   0010B8  EF60  F008         	goto	u4660
  4604   0010BC                     u4661:
  4605   0010BC  EF73  F008         	goto	l6047
  4606   0010C0                     u4660:
  4607   0010C0  2859               	incf	___flmul@aexp^0,w,c
  4608   0010C2  A4D8               	btfss	status,2,c
  4609   0010C4  EF66  F008         	goto	u4671
  4610   0010C8  EF68  F008         	goto	u4670
  4611   0010CC                     u4671:
  4612   0010CC  EF70  F008         	goto	l6045
  4613   0010D0                     u4670:
  4614   0010D0  0E00               	movlw	0
  4615   0010D2  6E4C               	movwf	___flmul@a^0,c
  4616   0010D4  0E00               	movlw	0
  4617   0010D6  6E4D               	movwf	(___flmul@a+1)^0,c
  4618   0010D8  0E00               	movlw	0
  4619   0010DA  6E4E               	movwf	(___flmul@a+2)^0,c
  4620   0010DC  0E00               	movlw	0
  4621   0010DE  6E4F               	movwf	(___flmul@a+3)^0,c
  4622   0010E0                     l6045:
  4623   0010E0  8E4E               	bsf	(___flmul@a+2)^0,7,c
  4624   0010E2  EF7B  F008         	goto	l2185
  4625   0010E6                     l6047:
  4626   0010E6  0E00               	movlw	0
  4627   0010E8  6E4C               	movwf	___flmul@a^0,c
  4628   0010EA  0E00               	movlw	0
  4629   0010EC  6E4D               	movwf	(___flmul@a+1)^0,c
  4630   0010EE  0E00               	movlw	0
  4631   0010F0  6E4E               	movwf	(___flmul@a+2)^0,c
  4632   0010F2  0E00               	movlw	0
  4633   0010F4  6E4F               	movwf	(___flmul@a+3)^0,c
  4634   0010F6                     l2185:
  4635   0010F6  5059               	movf	___flmul@aexp^0,w,c
  4636   0010F8  B4D8               	btfsc	status,2,c
  4637   0010FA  EF81  F008         	goto	u4681
  4638   0010FE  EF83  F008         	goto	u4680
  4639   001102                     u4681:
  4640   001102  EF8B  F008         	goto	l6051
  4641   001106                     u4680:
  4642   001106  505A               	movf	___flmul@bexp^0,w,c
  4643   001108  A4D8               	btfss	status,2,c
  4644   00110A  EF89  F008         	goto	u4691
  4645   00110E  EF8B  F008         	goto	u4690
  4646   001112                     u4691:
  4647   001112  EF95  F008         	goto	l6055
  4648   001116                     u4690:
  4649   001116                     l6051:
  4650   001116  0E00               	movlw	0
  4651   001118  6E48               	movwf	?___flmul^0,c
  4652   00111A  0E00               	movlw	0
  4653   00111C  6E49               	movwf	(?___flmul+1)^0,c
  4654   00111E  0E00               	movlw	0
  4655   001120  6E4A               	movwf	(?___flmul+2)^0,c
  4656   001122  0E00               	movlw	0
  4657   001124  6E4B               	movwf	(?___flmul+3)^0,c
  4658   001126  EF2D  F00A         	goto	l2189
  4659   00112A                     l6055:
  4660   00112A  504E               	movf	(___flmul@a+2)^0,w,c
  4661   00112C  0248               	mulwf	___flmul@b^0,c
  4662   00112E  CFF3 F05F          	movff	prodl,___flmul@temp
  4663   001132  CFF4 F060          	movff	prodh,___flmul@temp+1
  4664   001136  505F               	movf	___flmul@temp^0,w,c
  4665   001138  6E55               	movwf	___flmul@grs^0,c
  4666   00113A  6A56               	clrf	(___flmul@grs+1)^0,c
  4667   00113C  6A57               	clrf	(___flmul@grs+2)^0,c
  4668   00113E  6A58               	clrf	(___flmul@grs+3)^0,c
  4669   001140  5060               	movf	(___flmul@temp+1)^0,w,c
  4670   001142  6E5B               	movwf	___flmul@prod^0,c
  4671   001144  6A5C               	clrf	(___flmul@prod+1)^0,c
  4672   001146  6A5D               	clrf	(___flmul@prod+2)^0,c
  4673   001148  6A5E               	clrf	(___flmul@prod+3)^0,c
  4674   00114A  504D               	movf	(___flmul@a+1)^0,w,c
  4675   00114C  0249               	mulwf	(___flmul@b+1)^0,c
  4676   00114E  CFF3 F05F          	movff	prodl,___flmul@temp
  4677   001152  CFF4 F060          	movff	prodh,___flmul@temp+1
  4678   001156  505F               	movf	___flmul@temp^0,w,c
  4679   001158  2655               	addwf	___flmul@grs^0,f,c
  4680   00115A  0E00               	movlw	0
  4681   00115C  2256               	addwfc	(___flmul@grs+1)^0,f,c
  4682   00115E  2257               	addwfc	(___flmul@grs+2)^0,f,c
  4683   001160  2258               	addwfc	(___flmul@grs+3)^0,f,c
  4684   001162  5060               	movf	(___flmul@temp+1)^0,w,c
  4685   001164  265B               	addwf	___flmul@prod^0,f,c
  4686   001166  0E00               	movlw	0
  4687   001168  225C               	addwfc	(___flmul@prod+1)^0,f,c
  4688   00116A  225D               	addwfc	(___flmul@prod+2)^0,f,c
  4689   00116C  225E               	addwfc	(___flmul@prod+3)^0,f,c
  4690   00116E  504C               	movf	___flmul@a^0,w,c
  4691   001170  024A               	mulwf	(___flmul@b+2)^0,c
  4692   001172  CFF3 F05F          	movff	prodl,___flmul@temp
  4693   001176  CFF4 F060          	movff	prodh,___flmul@temp+1
  4694   00117A  505F               	movf	___flmul@temp^0,w,c
  4695   00117C  2655               	addwf	___flmul@grs^0,f,c
  4696   00117E  0E00               	movlw	0
  4697   001180  2256               	addwfc	(___flmul@grs+1)^0,f,c
  4698   001182  2257               	addwfc	(___flmul@grs+2)^0,f,c
  4699   001184  2258               	addwfc	(___flmul@grs+3)^0,f,c
  4700   001186  5060               	movf	(___flmul@temp+1)^0,w,c
  4701   001188  265B               	addwf	___flmul@prod^0,f,c
  4702   00118A  0E00               	movlw	0
  4703   00118C  225C               	addwfc	(___flmul@prod+1)^0,f,c
  4704   00118E  225D               	addwfc	(___flmul@prod+2)^0,f,c
  4705   001190  225E               	addwfc	(___flmul@prod+3)^0,f,c
  4706   001192  C057  F058         	movff	___flmul@grs+2,___flmul@grs+3
  4707   001196  C056  F057         	movff	___flmul@grs+1,___flmul@grs+2
  4708   00119A  C055  F056         	movff	___flmul@grs,___flmul@grs+1
  4709   00119E  6A55               	clrf	___flmul@grs^0,c
  4710   0011A0  504C               	movf	___flmul@a^0,w,c
  4711   0011A2  0249               	mulwf	(___flmul@b+1)^0,c
  4712   0011A4  CFF3 F05F          	movff	prodl,___flmul@temp
  4713   0011A8  CFF4 F060          	movff	prodh,___flmul@temp+1
  4714   0011AC  505F               	movf	___flmul@temp^0,w,c
  4715   0011AE  2655               	addwf	___flmul@grs^0,f,c
  4716   0011B0  5060               	movf	(___flmul@temp+1)^0,w,c
  4717   0011B2  2256               	addwfc	(___flmul@grs+1)^0,f,c
  4718   0011B4  0E00               	movlw	0
  4719   0011B6  2257               	addwfc	(___flmul@grs+2)^0,f,c
  4720   0011B8  0E00               	movlw	0
  4721   0011BA  2258               	addwfc	(___flmul@grs+3)^0,f,c
  4722   0011BC  504D               	movf	(___flmul@a+1)^0,w,c
  4723   0011BE  0248               	mulwf	___flmul@b^0,c
  4724   0011C0  CFF3 F05F          	movff	prodl,___flmul@temp
  4725   0011C4  CFF4 F060          	movff	prodh,___flmul@temp+1
  4726   0011C8  505F               	movf	___flmul@temp^0,w,c
  4727   0011CA  2655               	addwf	___flmul@grs^0,f,c
  4728   0011CC  5060               	movf	(___flmul@temp+1)^0,w,c
  4729   0011CE  2256               	addwfc	(___flmul@grs+1)^0,f,c
  4730   0011D0  0E00               	movlw	0
  4731   0011D2  2257               	addwfc	(___flmul@grs+2)^0,f,c
  4732   0011D4  0E00               	movlw	0
  4733   0011D6  2258               	addwfc	(___flmul@grs+3)^0,f,c
  4734   0011D8  C057  F058         	movff	___flmul@grs+2,___flmul@grs+3
  4735   0011DC  C056  F057         	movff	___flmul@grs+1,___flmul@grs+2
  4736   0011E0  C055  F056         	movff	___flmul@grs,___flmul@grs+1
  4737   0011E4  6A55               	clrf	___flmul@grs^0,c
  4738   0011E6  504C               	movf	___flmul@a^0,w,c
  4739   0011E8  0248               	mulwf	___flmul@b^0,c
  4740   0011EA  CFF3 F05F          	movff	prodl,___flmul@temp
  4741   0011EE  CFF4 F060          	movff	prodh,___flmul@temp+1
  4742   0011F2  505F               	movf	___flmul@temp^0,w,c
  4743   0011F4  2655               	addwf	___flmul@grs^0,f,c
  4744   0011F6  5060               	movf	(___flmul@temp+1)^0,w,c
  4745   0011F8  2256               	addwfc	(___flmul@grs+1)^0,f,c
  4746   0011FA  0E00               	movlw	0
  4747   0011FC  2257               	addwfc	(___flmul@grs+2)^0,f,c
  4748   0011FE  0E00               	movlw	0
  4749   001200  2258               	addwfc	(___flmul@grs+3)^0,f,c
  4750   001202  504E               	movf	(___flmul@a+2)^0,w,c
  4751   001204  0249               	mulwf	(___flmul@b+1)^0,c
  4752   001206  CFF3 F05F          	movff	prodl,___flmul@temp
  4753   00120A  CFF4 F060          	movff	prodh,___flmul@temp+1
  4754   00120E  505F               	movf	___flmul@temp^0,w,c
  4755   001210  265B               	addwf	___flmul@prod^0,f,c
  4756   001212  5060               	movf	(___flmul@temp+1)^0,w,c
  4757   001214  225C               	addwfc	(___flmul@prod+1)^0,f,c
  4758   001216  0E00               	movlw	0
  4759   001218  225D               	addwfc	(___flmul@prod+2)^0,f,c
  4760   00121A  0E00               	movlw	0
  4761   00121C  225E               	addwfc	(___flmul@prod+3)^0,f,c
  4762   00121E  504D               	movf	(___flmul@a+1)^0,w,c
  4763   001220  024A               	mulwf	(___flmul@b+2)^0,c
  4764   001222  CFF3 F05F          	movff	prodl,___flmul@temp
  4765   001226  CFF4 F060          	movff	prodh,___flmul@temp+1
  4766   00122A  505F               	movf	___flmul@temp^0,w,c
  4767   00122C  265B               	addwf	___flmul@prod^0,f,c
  4768   00122E  5060               	movf	(___flmul@temp+1)^0,w,c
  4769   001230  225C               	addwfc	(___flmul@prod+1)^0,f,c
  4770   001232  0E00               	movlw	0
  4771   001234  225D               	addwfc	(___flmul@prod+2)^0,f,c
  4772   001236  0E00               	movlw	0
  4773   001238  225E               	addwfc	(___flmul@prod+3)^0,f,c
  4774   00123A  504E               	movf	(___flmul@a+2)^0,w,c
  4775   00123C  024A               	mulwf	(___flmul@b+2)^0,c
  4776   00123E  CFF3 F05F          	movff	prodl,___flmul@temp
  4777   001242  CFF4 F060          	movff	prodh,___flmul@temp+1
  4778   001246  505F               	movf	___flmul@temp^0,w,c
  4779   001248  6E50               	movwf	??___flmul^0,c
  4780   00124A  5060               	movf	(___flmul@temp+1)^0,w,c
  4781   00124C  6E51               	movwf	(??___flmul+1)^0,c
  4782   00124E  6A52               	clrf	(??___flmul+2)^0,c
  4783   001250  6A53               	clrf	(??___flmul+3)^0,c
  4784   001252  C052  F053         	movff	??___flmul+2,??___flmul+3
  4785   001256  C051  F052         	movff	??___flmul+1,??___flmul+2
  4786   00125A  C050  F051         	movff	??___flmul,??___flmul+1
  4787   00125E  6A50               	clrf	??___flmul^0,c
  4788   001260  5050               	movf	??___flmul^0,w,c
  4789   001262  265B               	addwf	___flmul@prod^0,f,c
  4790   001264  5051               	movf	(??___flmul+1)^0,w,c
  4791   001266  225C               	addwfc	(___flmul@prod+1)^0,f,c
  4792   001268  5052               	movf	(??___flmul+2)^0,w,c
  4793   00126A  225D               	addwfc	(___flmul@prod+2)^0,f,c
  4794   00126C  5053               	movf	(??___flmul+3)^0,w,c
  4795   00126E  225E               	addwfc	(___flmul@prod+3)^0,f,c
  4796   001270  C055  F050         	movff	___flmul@grs,??___flmul
  4797   001274  C056  F051         	movff	___flmul@grs+1,??___flmul+1
  4798   001278  C057  F052         	movff	___flmul@grs+2,??___flmul+2
  4799   00127C  C058  F053         	movff	___flmul@grs+3,??___flmul+3
  4800   001280  0E19               	movlw	25
  4801   001282  EF48  F009         	goto	u4700
  4802   001286                     u4705:
  4803   001286  90D8               	bcf	status,0,c
  4804   001288  3253               	rrcf	(??___flmul+3)^0,f,c
  4805   00128A  3252               	rrcf	(??___flmul+2)^0,f,c
  4806   00128C  3251               	rrcf	(??___flmul+1)^0,f,c
  4807   00128E  3250               	rrcf	??___flmul^0,f,c
  4808   001290                     u4700:
  4809   001290  2EE8               	decfsz	wreg,f,c
  4810   001292  EF43  F009         	goto	u4705
  4811   001296  5050               	movf	??___flmul^0,w,c
  4812   001298  265B               	addwf	___flmul@prod^0,f,c
  4813   00129A  5051               	movf	(??___flmul+1)^0,w,c
  4814   00129C  225C               	addwfc	(___flmul@prod+1)^0,f,c
  4815   00129E  5052               	movf	(??___flmul+2)^0,w,c
  4816   0012A0  225D               	addwfc	(___flmul@prod+2)^0,f,c
  4817   0012A2  5053               	movf	(??___flmul+3)^0,w,c
  4818   0012A4  225E               	addwfc	(___flmul@prod+3)^0,f,c
  4819   0012A6  C057  F058         	movff	___flmul@grs+2,___flmul@grs+3
  4820   0012AA  C056  F057         	movff	___flmul@grs+1,___flmul@grs+2
  4821   0012AE  C055  F056         	movff	___flmul@grs,___flmul@grs+1
  4822   0012B2  6A55               	clrf	___flmul@grs^0,c
  4823   0012B4  5059               	movf	___flmul@aexp^0,w,c
  4824   0012B6  C05A  F050         	movff	___flmul@bexp,??___flmul
  4825   0012BA  6A51               	clrf	(??___flmul+1)^0,c
  4826   0012BC  2650               	addwf	??___flmul^0,f,c
  4827   0012BE  0E00               	movlw	0
  4828   0012C0  2251               	addwfc	(??___flmul+1)^0,f,c
  4829   0012C2  0E82               	movlw	130
  4830   0012C4  2450               	addwf	??___flmul^0,w,c
  4831   0012C6  6E5F               	movwf	___flmul@temp^0,c
  4832   0012C8  0EFF               	movlw	255
  4833   0012CA  2051               	addwfc	(??___flmul+1)^0,w,c
  4834   0012CC  6E60               	movwf	(___flmul@temp+1)^0,c
  4835   0012CE  EF7E  F009         	goto	l6103
  4836   0012D2                     l6097:
  4837   0012D2  90D8               	bcf	status,0,c
  4838   0012D4  365B               	rlcf	___flmul@prod^0,f,c
  4839   0012D6  365C               	rlcf	(___flmul@prod+1)^0,f,c
  4840   0012D8  365D               	rlcf	(___flmul@prod+2)^0,f,c
  4841   0012DA  365E               	rlcf	(___flmul@prod+3)^0,f,c
  4842   0012DC  AE58               	btfss	(___flmul@grs+3)^0,7,c
  4843   0012DE  EF73  F009         	goto	u4711
  4844   0012E2  EF75  F009         	goto	u4710
  4845   0012E6                     u4711:
  4846   0012E6  EF76  F009         	goto	l2192
  4847   0012EA                     u4710:
  4848   0012EA  805B               	bsf	___flmul@prod^0,0,c
  4849   0012EC                     l2192:
  4850   0012EC  90D8               	bcf	status,0,c
  4851   0012EE  3655               	rlcf	___flmul@grs^0,f,c
  4852   0012F0  3656               	rlcf	(___flmul@grs+1)^0,f,c
  4853   0012F2  3657               	rlcf	(___flmul@grs+2)^0,f,c
  4854   0012F4  3658               	rlcf	(___flmul@grs+3)^0,f,c
  4855   0012F6  065F               	decf	___flmul@temp^0,f,c
  4856   0012F8  A0D8               	btfss	status,0,c
  4857   0012FA  0660               	decf	(___flmul@temp+1)^0,f,c
  4858   0012FC                     l6103:
  4859   0012FC  AE5D               	btfss	(___flmul@prod+2)^0,7,c
  4860   0012FE  EF83  F009         	goto	u4721
  4861   001302  EF85  F009         	goto	u4720
  4862   001306                     u4721:
  4863   001306  EF69  F009         	goto	l6097
  4864   00130A                     u4720:
  4865   00130A  0E00               	movlw	0
  4866   00130C  6E59               	movwf	___flmul@aexp^0,c
  4867   00130E  AE58               	btfss	(___flmul@grs+3)^0,7,c
  4868   001310  EF8C  F009         	goto	u4731
  4869   001314  EF8E  F009         	goto	u4730
  4870   001318                     u4731:
  4871   001318  EFB2  F009         	goto	l2194
  4872   00131C                     u4730:
  4873   00131C  0EFF               	movlw	255
  4874   00131E  1455               	andwf	___flmul@grs^0,w,c
  4875   001320  6E50               	movwf	??___flmul^0,c
  4876   001322  0EFF               	movlw	255
  4877   001324  1456               	andwf	(___flmul@grs+1)^0,w,c
  4878   001326  6E51               	movwf	(??___flmul+1)^0,c
  4879   001328  0EFF               	movlw	255
  4880   00132A  1457               	andwf	(___flmul@grs+2)^0,w,c
  4881   00132C  6E52               	movwf	(??___flmul+2)^0,c
  4882   00132E  0E7F               	movlw	127
  4883   001330  1458               	andwf	(___flmul@grs+3)^0,w,c
  4884   001332  6E53               	movwf	(??___flmul+3)^0,c
  4885   001334  5050               	movf	??___flmul^0,w,c
  4886   001336  1051               	iorwf	(??___flmul+1)^0,w,c
  4887   001338  1052               	iorwf	(??___flmul+2)^0,w,c
  4888   00133A  1053               	iorwf	(??___flmul+3)^0,w,c
  4889   00133C  B4D8               	btfsc	status,2,c
  4890   00133E  EFA3  F009         	goto	u4741
  4891   001342  EFA5  F009         	goto	u4740
  4892   001346                     u4741:
  4893   001346  EFA9  F009         	goto	l2195
  4894   00134A                     u4740:
  4895   00134A                     l6111:
  4896   00134A  0E01               	movlw	1
  4897   00134C  6E59               	movwf	___flmul@aexp^0,c
  4898   00134E  EFB2  F009         	goto	l2194
  4899   001352                     l2195:
  4900   001352  A05B               	btfss	___flmul@prod^0,0,c
  4901   001354  EFAE  F009         	goto	u4751
  4902   001358  EFB0  F009         	goto	u4750
  4903   00135C                     u4751:
  4904   00135C  EFB2  F009         	goto	l2194
  4905   001360                     u4750:
  4906   001360  EFA5  F009         	goto	l6111
  4907   001364                     l2194:
  4908   001364  5059               	movf	___flmul@aexp^0,w,c
  4909   001366  B4D8               	btfsc	status,2,c
  4910   001368  EFB8  F009         	goto	u4761
  4911   00136C  EFBA  F009         	goto	u4760
  4912   001370                     u4761:
  4913   001370  EFDE  F009         	goto	l6123
  4914   001374                     u4760:
  4915   001374  0E01               	movlw	1
  4916   001376  265B               	addwf	___flmul@prod^0,f,c
  4917   001378  0E00               	movlw	0
  4918   00137A  225C               	addwfc	(___flmul@prod+1)^0,f,c
  4919   00137C  225D               	addwfc	(___flmul@prod+2)^0,f,c
  4920   00137E  225E               	addwfc	(___flmul@prod+3)^0,f,c
  4921   001380  A05E               	btfss	(___flmul@prod+3)^0,0,c
  4922   001382  EFC5  F009         	goto	u4771
  4923   001386  EFC7  F009         	goto	u4770
  4924   00138A                     u4771:
  4925   00138A  EFDE  F009         	goto	l6123
  4926   00138E                     u4770:
  4927   00138E  C05B  F050         	movff	___flmul@prod,??___flmul
  4928   001392  C05C  F051         	movff	___flmul@prod+1,??___flmul+1
  4929   001396  C05D  F052         	movff	___flmul@prod+2,??___flmul+2
  4930   00139A  C05E  F053         	movff	___flmul@prod+3,??___flmul+3
  4931   00139E  3453               	rlcf	(??___flmul+3)^0,w,c
  4932   0013A0  3253               	rrcf	(??___flmul+3)^0,f,c
  4933   0013A2  3252               	rrcf	(??___flmul+2)^0,f,c
  4934   0013A4  3251               	rrcf	(??___flmul+1)^0,f,c
  4935   0013A6  3250               	rrcf	??___flmul^0,f,c
  4936   0013A8  C050  F05B         	movff	??___flmul,___flmul@prod
  4937   0013AC  C051  F05C         	movff	??___flmul+1,___flmul@prod+1
  4938   0013B0  C052  F05D         	movff	??___flmul+2,___flmul@prod+2
  4939   0013B4  C053  F05E         	movff	??___flmul+3,___flmul@prod+3
  4940   0013B8  4A5F               	infsnz	___flmul@temp^0,f,c
  4941   0013BA  2A60               	incf	(___flmul@temp+1)^0,f,c
  4942   0013BC                     l6123:
  4943   0013BC  BE60               	btfsc	(___flmul@temp+1)^0,7,c
  4944   0013BE  EFE9  F009         	goto	u4781
  4945   0013C2  5060               	movf	(___flmul@temp+1)^0,w,c
  4946   0013C4  E108               	bnz	u4780
  4947   0013C6  285F               	incf	___flmul@temp^0,w,c
  4948   0013C8  A0D8               	btfss	status,0,c
  4949   0013CA  EFE9  F009         	goto	u4781
  4950   0013CE  EFEB  F009         	goto	u4780
  4951   0013D2                     u4781:
  4952   0013D2  EFF5  F009         	goto	l6127
  4953   0013D6                     u4780:
  4954   0013D6  0E00               	movlw	0
  4955   0013D8  6E5B               	movwf	___flmul@prod^0,c
  4956   0013DA  0E00               	movlw	0
  4957   0013DC  6E5C               	movwf	(___flmul@prod+1)^0,c
  4958   0013DE  0E80               	movlw	128
  4959   0013E0  6E5D               	movwf	(___flmul@prod+2)^0,c
  4960   0013E2  0E7F               	movlw	127
  4961   0013E4  6E5E               	movwf	(___flmul@prod+3)^0,c
  4962   0013E6  EF23  F00A         	goto	l6139
  4963   0013EA                     l6127:
  4964   0013EA  BE60               	btfsc	(___flmul@temp+1)^0,7,c
  4965   0013EC  EF02  F00A         	goto	u4790
  4966   0013F0  5060               	movf	(___flmul@temp+1)^0,w,c
  4967   0013F2  E106               	bnz	u4791
  4968   0013F4  045F               	decf	___flmul@temp^0,w,c
  4969   0013F6  B0D8               	btfsc	status,0,c
  4970   0013F8  EF00  F00A         	goto	u4791
  4971   0013FC  EF02  F00A         	goto	u4790
  4972   001400                     u4791:
  4973   001400  EF0E  F00A         	goto	l2202
  4974   001404                     u4790:
  4975   001404  0E00               	movlw	0
  4976   001406  6E5B               	movwf	___flmul@prod^0,c
  4977   001408  0E00               	movlw	0
  4978   00140A  6E5C               	movwf	(___flmul@prod+1)^0,c
  4979   00140C  0E00               	movlw	0
  4980   00140E  6E5D               	movwf	(___flmul@prod+2)^0,c
  4981   001410  0E00               	movlw	0
  4982   001412  6E5E               	movwf	(___flmul@prod+3)^0,c
  4983   001414  0E00               	movlw	0
  4984   001416  6E54               	movwf	___flmul@sign^0,c
  4985   001418  EF23  F00A         	goto	l6139
  4986   00141C                     l2202:
  4987   00141C  C05F  F05A         	movff	___flmul@temp,___flmul@bexp
  4988   001420  0EFF               	movlw	255
  4989   001422  165B               	andwf	___flmul@prod^0,f,c
  4990   001424  0EFF               	movlw	255
  4991   001426  165C               	andwf	(___flmul@prod+1)^0,f,c
  4992   001428  0E7F               	movlw	127
  4993   00142A  165D               	andwf	(___flmul@prod+2)^0,f,c
  4994   00142C  0E00               	movlw	0
  4995   00142E  165E               	andwf	(___flmul@prod+3)^0,f,c
  4996   001430  A05A               	btfss	___flmul@bexp^0,0,c
  4997   001432  EF1D  F00A         	goto	u4801
  4998   001436  EF1F  F00A         	goto	u4800
  4999   00143A                     u4801:
  5000   00143A  EF20  F00A         	goto	l6137
  5001   00143E                     u4800:
  5002   00143E  8E5D               	bsf	(___flmul@prod+2)^0,7,c
  5003   001440                     l6137:
  5004   001440  90D8               	bcf	status,0,c
  5005   001442  305A               	rrcf	___flmul@bexp^0,w,c
  5006   001444  6E5E               	movwf	(___flmul@prod+3)^0,c
  5007   001446                     l6139:
  5008   001446  5054               	movf	___flmul@sign^0,w,c
  5009   001448  125E               	iorwf	(___flmul@prod+3)^0,f,c
  5010   00144A  C05B  F048         	movff	___flmul@prod,?___flmul
  5011   00144E  C05C  F049         	movff	___flmul@prod+1,?___flmul+1
  5012   001452  C05D  F04A         	movff	___flmul@prod+2,?___flmul+2
  5013   001456  C05E  F04B         	movff	___flmul@prod+3,?___flmul+3
  5014   00145A                     l2189:
  5015   00145A  0012               	return		;funcret
  5016   00145C                     __end_of___flmul:
  5017                           	callstack 0
  5018                           
  5019 ;; *************** function _Air_Conditioning_On *****************
  5020 ;; Defined at:
  5021 ;;		line 55 in file "app1.c"
  5022 ;; Parameters:    Size  Location     Type
  5023 ;;		None
  5024 ;; Auto vars:     Size  Location     Type
  5025 ;;  ret             1    0        unsigned char 
  5026 ;; Return value:  Size  Location     Type
  5027 ;;                  1    wreg      void 
  5028 ;; Registers used:
  5029 ;;		wreg, fsr0l, fsr0h, fsr2l, fsr2h, status,2, status,0, tblptrl, tblptrh, tblptru, prodl, prodh, cstack
  5030 ;; Tracked objects:
  5031 ;;		On entry : 0/0
  5032 ;;		On exit  : 0/0
  5033 ;;		Unchanged: 0/0
  5034 ;; Data sizes:     COMRAM   BANK0   BANK1   BANK2   BANK3   BANK4   BANK5   BANK6   BANK7   BANK8   BANK9  BANK10  BANK1
      +1  BANK12  BANK13  BANK14  BANK15
  5035 ;;      Params:         0       0       0       0       0       0       0       0       0       0       0       0       
      +0       0       0       0       0
  5036 ;;      Locals:         0       0       0       0       0       0       0       0       0       0       0       0       
      +0       0       0       0       0
  5037 ;;      Temps:          2       0       0       0       0       0       0       0       0       0       0       0       
      +0       0       0       0       0
  5038 ;;      Totals:         2       0       0       0       0       0       0       0       0       0       0       0       
      +0       0       0       0       0
  5039 ;;Total ram usage:        2 bytes
  5040 ;; Hardware stack levels used: 1
  5041 ;; Hardware stack levels required when called: 7
  5042 ;; This function calls:
  5043 ;;		_lcd_4bit_send_command
  5044 ;;		_lcd_4bit_send_string_pos
  5045 ;; This function is called by:
  5046 ;;		_main
  5047 ;; This function uses a non-reentrant model
  5048 ;;
  5049                           
  5050                           	psect	text29
  5051   002C6A                     __ptext29:
  5052                           	callstack 0
  5053   002C6A                     _Air_Conditioning_On:
  5054                           	callstack 23
  5055   002C6A  0EE8               	movlw	low _lcd_1
  5056   002C6C  6E4E               	movwf	lcd_4bit_send_string_pos@lcd^0,c
  5057   002C6E  0E01               	movlw	1
  5058   002C70  6E4F               	movwf	lcd_4bit_send_string_pos@row^0,c
  5059   002C72  0E05               	movlw	5
  5060   002C74  6E50               	movwf	lcd_4bit_send_string_pos@column^0,c
  5061   002C76  0E11               	movlw	low STR_5
  5062   002C78  6E51               	movwf	lcd_4bit_send_string_pos@str^0,c
  5063   002C7A  5051               	movf	lcd_4bit_send_string_pos@str^0,w,c
  5064   002C7C  A4D8               	btfss	status,2,c
  5065   002C7E  0E10               	movlw	high __smallconst
  5066   002C80  6E52               	movwf	(lcd_4bit_send_string_pos@str+1)^0,c
  5067   002C82  EC0F  F014         	call	_lcd_4bit_send_string_pos	;wreg free
  5068   002C86                     
  5069                           ;app1.c: 58:     _delay((unsigned long)((500)*(8000000/4000.0)));
  5070   002C86  0E06               	movlw	6
  5071   002C88  6E55               	movwf	(??_Air_Conditioning_On+1)^0,c
  5072   002C8A  0E13               	movlw	19
  5073   002C8C  6E54               	movwf	??_Air_Conditioning_On^0,c
  5074   002C8E  0EAE               	movlw	174
  5075   002C90                     u6957:
  5076   002C90  2EE8               	decfsz	wreg,f,c
  5077   002C92  D7FE               	bra	u6957
  5078   002C94  2E54               	decfsz	??_Air_Conditioning_On^0,f,c
  5079   002C96  D7FC               	bra	u6957
  5080   002C98  2E55               	decfsz	(??_Air_Conditioning_On+1)^0,f,c
  5081   002C9A  D7FA               	bra	u6957
  5082   002C9C  0EE8               	movlw	low _lcd_1
  5083   002C9E  6E45               	movwf	lcd_4bit_send_command@lcd^0,c
  5084   002CA0  0E01               	movlw	1
  5085   002CA2  6E46               	movwf	lcd_4bit_send_command@command^0,c
  5086   002CA4  EC58  F015         	call	_lcd_4bit_send_command	;wreg free
  5087   002CA8  0012               	return		;funcret
  5088   002CAA                     __end_of_Air_Conditioning_On:
  5089                           	callstack 0
  5090                           
  5091 ;; *************** function _lcd_4bit_send_string_pos *****************
  5092 ;; Defined at:
  5093 ;;		line 159 in file "ECU_Layer/Chr_LCD/ecu_chr_lcd.c"
  5094 ;; Parameters:    Size  Location     Type
  5095 ;;  lcd             1   21[COMRAM] PTR const struct .
  5096 ;;		 -> lcd_1(6), 
  5097 ;;  row             1   22[COMRAM] unsigned char 
  5098 ;;  column          1   23[COMRAM] unsigned char 
  5099 ;;  str             2   24[COMRAM] PTR unsigned char 
  5100 ;;		 -> STR_5(20), STR_4(8), lm35_res_1_txt(7), 
  5101 ;; Auto vars:     Size  Location     Type
  5102 ;;  ret             1   26[COMRAM] unsigned char 
  5103 ;; Return value:  Size  Location     Type
  5104 ;;                  1    wreg      unsigned char 
  5105 ;; Registers used:
  5106 ;;		wreg, fsr0l, fsr0h, fsr2l, fsr2h, status,2, status,0, tblptrl, tblptrh, tblptru, prodl, prodh, cstack
  5107 ;; Tracked objects:
  5108 ;;		On entry : 0/0
  5109 ;;		On exit  : 0/0
  5110 ;;		Unchanged: 0/0
  5111 ;; Data sizes:     COMRAM   BANK0   BANK1   BANK2   BANK3   BANK4   BANK5   BANK6   BANK7   BANK8   BANK9  BANK10  BANK1
      +1  BANK12  BANK13  BANK14  BANK15
  5112 ;;      Params:         5       0       0       0       0       0       0       0       0       0       0       0       
      +0       0       0       0       0
  5113 ;;      Locals:         1       0       0       0       0       0       0       0       0       0       0       0       
      +0       0       0       0       0
  5114 ;;      Temps:          0       0       0       0       0       0       0       0       0       0       0       0       
      +0       0       0       0       0
  5115 ;;      Totals:         6       0       0       0       0       0       0       0       0       0       0       0       
      +0       0       0       0       0
  5116 ;;Total ram usage:        6 bytes
  5117 ;; Hardware stack levels used: 1
  5118 ;; Hardware stack levels required when called: 6
  5119 ;; This function calls:
  5120 ;;		_lcd_4bit_send_char_data
  5121 ;;		_lcd_4bit_set_cursor
  5122 ;; This function is called by:
  5123 ;;		_main
  5124 ;;		_Air_Conditioning_On
  5125 ;; This function uses a non-reentrant model
  5126 ;;
  5127                           
  5128                           	psect	text30
  5129   00281E                     __ptext30:
  5130                           	callstack 0
  5131   00281E                     _lcd_4bit_send_string_pos:
  5132                           	callstack 24
  5133   00281E                     
  5134                           ;ECU_Layer/Chr_LCD/ecu_chr_lcd.c: 161:     if(((void*)0) == lcd){
  5135   00281E  504E               	movf	lcd_4bit_send_string_pos@lcd^0,w,c
  5136   002820  A4D8               	btfss	status,2,c
  5137   002822  EF15  F014         	goto	u4261
  5138   002826  EF17  F014         	goto	u4260
  5139   00282A                     u4261:
  5140   00282A  EF1B  F014         	goto	l5673
  5141   00282E                     u4260:
  5142   00282E                     
  5143                           ;ECU_Layer/Chr_LCD/ecu_chr_lcd.c: 162:         ret = (std_ReturnType) 0x00;
  5144   00282E  0E00               	movlw	0
  5145   002830  6E53               	movwf	lcd_4bit_send_string_pos@ret^0,c
  5146                           
  5147                           ;ECU_Layer/Chr_LCD/ecu_chr_lcd.c: 163:     }
  5148   002832  EF58  F014         	goto	l5681
  5149   002836                     l5673:
  5150                           
  5151                           ;ECU_Layer/Chr_LCD/ecu_chr_lcd.c: 165:         ret = lcd_4bit_set_cursor(lcd, row, colum
      +                          n);
  5152   002836  C04E  F048         	movff	lcd_4bit_send_string_pos@lcd,lcd_4bit_set_cursor@lcd
  5153   00283A  C04F  F049         	movff	lcd_4bit_send_string_pos@row,lcd_4bit_set_cursor@row
  5154   00283E  C050  F04A         	movff	lcd_4bit_send_string_pos@column,lcd_4bit_set_cursor@coulmn
  5155   002842  ECC3  F013         	call	_lcd_4bit_set_cursor	;wreg free
  5156   002846  6E53               	movwf	lcd_4bit_send_string_pos@ret^0,c
  5157                           
  5158                           ;ECU_Layer/Chr_LCD/ecu_chr_lcd.c: 166:         while(*str){
  5159   002848  EF3F  F014         	goto	l5679
  5160   00284C                     l5675:
  5161                           
  5162                           ;ECU_Layer/Chr_LCD/ecu_chr_lcd.c: 167:             ret = lcd_4bit_send_char_data(lcd, *s
      +                          tr++);
  5163   00284C  C04E  F045         	movff	lcd_4bit_send_string_pos@lcd,lcd_4bit_send_char_data@lcd
  5164   002850  C051  FFF6         	movff	lcd_4bit_send_string_pos@str,tblptrl
  5165   002854  C052  FFF7         	movff	lcd_4bit_send_string_pos@str+1,tblptrh
  5166   002858  0E00               	movlw	low (__smallconst shr (0+16))
  5167   00285A  6EF8               	movwf	tblptru,c
  5168   00285C  0E0F               	movlw	(high __ramtop+-1)
  5169   00285E  64F7               	cpfsgt	tblptrh,c
  5170   002860  D003               	bra	u4277
  5171   002862  0008               	tblrd		*
  5172   002864  50F5               	movf	tablat,w,c
  5173   002866  D005               	bra	u4270
  5174   002868                     u4277:
  5175   002868  CFF6 FFE9          	movff	tblptrl,fsr0l
  5176   00286C  CFF7 FFEA          	movff	tblptrh,fsr0h
  5177   002870  50EF               	movf	indf0,w,c
  5178   002872                     u4270:
  5179   002872  6E46               	movwf	lcd_4bit_send_char_data@data^0,c
  5180   002874  ECAE  F015         	call	_lcd_4bit_send_char_data	;wreg free
  5181   002878  6E53               	movwf	lcd_4bit_send_string_pos@ret^0,c
  5182   00287A  4A51               	infsnz	lcd_4bit_send_string_pos@str^0,f,c
  5183   00287C  2A52               	incf	(lcd_4bit_send_string_pos@str+1)^0,f,c
  5184   00287E                     l5679:
  5185                           
  5186                           ;ECU_Layer/Chr_LCD/ecu_chr_lcd.c: 166:         while(*str){
  5187   00287E  C051  FFF6         	movff	lcd_4bit_send_string_pos@str,tblptrl
  5188   002882  C052  FFF7         	movff	lcd_4bit_send_string_pos@str+1,tblptrh
  5189   002886  0E00               	movlw	low (__smallconst shr (0+16))
  5190   002888  6EF8               	movwf	tblptru,c
  5191   00288A  0E0F               	movlw	(high __ramtop+-1)
  5192   00288C  64F7               	cpfsgt	tblptrh,c
  5193   00288E  D003               	bra	u4287
  5194   002890  0008               	tblrd		*
  5195   002892  50F5               	movf	tablat,w,c
  5196   002894  D005               	bra	u4280
  5197   002896                     u4287:
  5198   002896  CFF6 FFE9          	movff	tblptrl,fsr0l
  5199   00289A  CFF7 FFEA          	movff	tblptrh,fsr0h
  5200   00289E  50EF               	movf	indf0,w,c
  5201   0028A0                     u4280:
  5202   0028A0  0900               	iorlw	0
  5203   0028A2  A4D8               	btfss	status,2,c
  5204   0028A4  EF56  F014         	goto	u4291
  5205   0028A8  EF58  F014         	goto	u4290
  5206   0028AC                     u4291:
  5207   0028AC  EF26  F014         	goto	l5675
  5208   0028B0                     u4290:
  5209   0028B0                     l5681:
  5210                           
  5211                           ;ECU_Layer/Chr_LCD/ecu_chr_lcd.c: 170:     return ret;
  5212   0028B0  5053               	movf	lcd_4bit_send_string_pos@ret^0,w,c
  5213   0028B2  0012               	return		;funcret
  5214   0028B4                     __end_of_lcd_4bit_send_string_pos:
  5215                           	callstack 0
  5216                           
  5217 ;; *************** function _lcd_4bit_set_cursor *****************
  5218 ;; Defined at:
  5219 ;;		line 521 in file "ECU_Layer/Chr_LCD/ecu_chr_lcd.c"
  5220 ;; Parameters:    Size  Location     Type
  5221 ;;  lcd             1   15[COMRAM] PTR const struct .
  5222 ;;		 -> lcd_1(6), 
  5223 ;;  row             1   16[COMRAM] unsigned char 
  5224 ;;  coulmn          1   17[COMRAM] unsigned char 
  5225 ;; Auto vars:     Size  Location     Type
  5226 ;;  ret             1   20[COMRAM] unsigned char 
  5227 ;; Return value:  Size  Location     Type
  5228 ;;                  1    wreg      unsigned char 
  5229 ;; Registers used:
  5230 ;;		wreg, fsr2l, fsr2h, status,2, status,0, prodl, prodh, cstack
  5231 ;; Tracked objects:
  5232 ;;		On entry : 0/0
  5233 ;;		On exit  : 0/0
  5234 ;;		Unchanged: 0/0
  5235 ;; Data sizes:     COMRAM   BANK0   BANK1   BANK2   BANK3   BANK4   BANK5   BANK6   BANK7   BANK8   BANK9  BANK10  BANK1
      +1  BANK12  BANK13  BANK14  BANK15
  5236 ;;      Params:         3       0       0       0       0       0       0       0       0       0       0       0       
      +0       0       0       0       0
  5237 ;;      Locals:         1       0       0       0       0       0       0       0       0       0       0       0       
      +0       0       0       0       0
  5238 ;;      Temps:          2       0       0       0       0       0       0       0       0       0       0       0       
      +0       0       0       0       0
  5239 ;;      Totals:         6       0       0       0       0       0       0       0       0       0       0       0       
      +0       0       0       0       0
  5240 ;;Total ram usage:        6 bytes
  5241 ;; Hardware stack levels used: 1
  5242 ;; Hardware stack levels required when called: 5
  5243 ;; This function calls:
  5244 ;;		_lcd_4bit_send_command
  5245 ;; This function is called by:
  5246 ;;		_lcd_4bit_send_string_pos
  5247 ;;		_lcd_4bit_send_char_data_pos
  5248 ;; This function uses a non-reentrant model
  5249 ;;
  5250                           
  5251                           	psect	text31
  5252   002786                     __ptext31:
  5253                           	callstack 0
  5254   002786                     _lcd_4bit_set_cursor:
  5255                           	callstack 24
  5256   002786                     
  5257                           ;ECU_Layer/Chr_LCD/ecu_chr_lcd.c: 522:     Std_ReturnType ret = (std_ReturnType) 0x01;
  5258   002786  0E01               	movlw	1
  5259   002788  6E4D               	movwf	lcd_4bit_set_cursor@ret^0,c
  5260   00278A                     
  5261                           ;ECU_Layer/Chr_LCD/ecu_chr_lcd.c: 523:     coulmn--;
  5262   00278A  064A               	decf	lcd_4bit_set_cursor@coulmn^0,f,c
  5263                           
  5264                           ;ECU_Layer/Chr_LCD/ecu_chr_lcd.c: 524:     switch(row){
  5265   00278C  EFF0  F013         	goto	l5563
  5266   002790                     l5555:
  5267   002790  C048  F045         	movff	lcd_4bit_set_cursor@lcd,lcd_4bit_send_command@lcd
  5268   002794  504A               	movf	lcd_4bit_set_cursor@coulmn^0,w,c
  5269   002796  0F80               	addlw	128
  5270   002798  6E46               	movwf	lcd_4bit_send_command@command^0,c
  5271   00279A  EC58  F015         	call	_lcd_4bit_send_command	;wreg free
  5272   00279E  6E4D               	movwf	lcd_4bit_set_cursor@ret^0,c
  5273   0027A0  EF0D  F014         	goto	l5565
  5274   0027A4                     l5557:
  5275   0027A4  C048  F045         	movff	lcd_4bit_set_cursor@lcd,lcd_4bit_send_command@lcd
  5276   0027A8  504A               	movf	lcd_4bit_set_cursor@coulmn^0,w,c
  5277   0027AA  0FC0               	addlw	192
  5278   0027AC  6E46               	movwf	lcd_4bit_send_command@command^0,c
  5279   0027AE  EC58  F015         	call	_lcd_4bit_send_command	;wreg free
  5280   0027B2  6E4D               	movwf	lcd_4bit_set_cursor@ret^0,c
  5281   0027B4  EF0D  F014         	goto	l5565
  5282   0027B8                     l5559:
  5283   0027B8  C048  F045         	movff	lcd_4bit_set_cursor@lcd,lcd_4bit_send_command@lcd
  5284   0027BC  504A               	movf	lcd_4bit_set_cursor@coulmn^0,w,c
  5285   0027BE  0F94               	addlw	148
  5286   0027C0  6E46               	movwf	lcd_4bit_send_command@command^0,c
  5287   0027C2  EC58  F015         	call	_lcd_4bit_send_command	;wreg free
  5288   0027C6  6E4D               	movwf	lcd_4bit_set_cursor@ret^0,c
  5289   0027C8  EF0D  F014         	goto	l5565
  5290   0027CC                     l5561:
  5291   0027CC  C048  F045         	movff	lcd_4bit_set_cursor@lcd,lcd_4bit_send_command@lcd
  5292   0027D0  504A               	movf	lcd_4bit_set_cursor@coulmn^0,w,c
  5293   0027D2  0FD4               	addlw	212
  5294   0027D4  6E46               	movwf	lcd_4bit_send_command@command^0,c
  5295   0027D6  EC58  F015         	call	_lcd_4bit_send_command	;wreg free
  5296   0027DA  6E4D               	movwf	lcd_4bit_set_cursor@ret^0,c
  5297   0027DC  EF0D  F014         	goto	l5565
  5298   0027E0                     l5563:
  5299   0027E0  5049               	movf	lcd_4bit_set_cursor@row^0,w,c
  5300   0027E2  6E4B               	movwf	??_lcd_4bit_set_cursor^0,c
  5301   0027E4  6A4C               	clrf	(??_lcd_4bit_set_cursor+1)^0,c
  5302                           
  5303                           ; Switch on 2 bytes has been partitioned into a top level switch of size 1, and 1 sub-sw
      +                          itches
  5304                           ; Switch size 1, requested type "simple"
  5305                           ; Number of cases is 1, Range of values is 0 to 0
  5306                           ; switch strategies available:
  5307                           ; Name         Instructions Cycles
  5308                           ; simple_byte            4     3 (average)
  5309                           ;	Chosen strategy is simple_byte
  5310   0027E6  504C               	movf	(??_lcd_4bit_set_cursor+1)^0,w,c
  5311   0027E8  0A00               	xorlw	0	; case 0
  5312   0027EA  B4D8               	btfsc	status,2,c
  5313   0027EC  EFFA  F013         	goto	l7619
  5314   0027F0  EF0D  F014         	goto	l5565
  5315   0027F4                     l7619:
  5316                           
  5317                           ; Switch size 1, requested type "simple"
  5318                           ; Number of cases is 4, Range of values is 1 to 4
  5319                           ; switch strategies available:
  5320                           ; Name         Instructions Cycles
  5321                           ; simple_byte           13     7 (average)
  5322                           ;	Chosen strategy is simple_byte
  5323   0027F4  504B               	movf	??_lcd_4bit_set_cursor^0,w,c
  5324   0027F6  0A01               	xorlw	1	; case 1
  5325   0027F8  B4D8               	btfsc	status,2,c
  5326   0027FA  EFC8  F013         	goto	l5555
  5327   0027FE  0A03               	xorlw	3	; case 2
  5328   002800  B4D8               	btfsc	status,2,c
  5329   002802  EFD2  F013         	goto	l5557
  5330   002806  0A01               	xorlw	1	; case 3
  5331   002808  B4D8               	btfsc	status,2,c
  5332   00280A  EFDC  F013         	goto	l5559
  5333   00280E  0A07               	xorlw	7	; case 4
  5334   002810  B4D8               	btfsc	status,2,c
  5335   002812  EFE6  F013         	goto	l5561
  5336   002816  EF0D  F014         	goto	l5565
  5337   00281A                     l5565:
  5338                           
  5339                           ;ECU_Layer/Chr_LCD/ecu_chr_lcd.c: 531:     return ret;
  5340   00281A  504D               	movf	lcd_4bit_set_cursor@ret^0,w,c
  5341   00281C  0012               	return		;funcret
  5342   00281E                     __end_of_lcd_4bit_set_cursor:
  5343                           	callstack 0
  5344                           
  5345 ;; *************** function _lcd_4bit_send_command *****************
  5346 ;; Defined at:
  5347 ;;		line 61 in file "ECU_Layer/Chr_LCD/ecu_chr_lcd.c"
  5348 ;; Parameters:    Size  Location     Type
  5349 ;;  lcd             1   12[COMRAM] PTR const struct .
  5350 ;;		 -> lcd_1(6), 
  5351 ;;  command         1   13[COMRAM] unsigned char 
  5352 ;; Auto vars:     Size  Location     Type
  5353 ;;  ret             1   14[COMRAM] unsigned char 
  5354 ;; Return value:  Size  Location     Type
  5355 ;;                  1    wreg      unsigned char 
  5356 ;; Registers used:
  5357 ;;		wreg, fsr2l, fsr2h, status,2, status,0, prodl, prodh, cstack
  5358 ;; Tracked objects:
  5359 ;;		On entry : 0/0
  5360 ;;		On exit  : 0/0
  5361 ;;		Unchanged: 0/0
  5362 ;; Data sizes:     COMRAM   BANK0   BANK1   BANK2   BANK3   BANK4   BANK5   BANK6   BANK7   BANK8   BANK9  BANK10  BANK1
      +1  BANK12  BANK13  BANK14  BANK15
  5363 ;;      Params:         2       0       0       0       0       0       0       0       0       0       0       0       
      +0       0       0       0       0
  5364 ;;      Locals:         1       0       0       0       0       0       0       0       0       0       0       0       
      +0       0       0       0       0
  5365 ;;      Temps:          0       0       0       0       0       0       0       0       0       0       0       0       
      +0       0       0       0       0
  5366 ;;      Totals:         3       0       0       0       0       0       0       0       0       0       0       0       
      +0       0       0       0       0
  5367 ;;Total ram usage:        3 bytes
  5368 ;; Hardware stack levels used: 1
  5369 ;; Hardware stack levels required when called: 4
  5370 ;; This function calls:
  5371 ;;		_gpio_pin_write_logic
  5372 ;;		_lcd_4bit_send_enable_signal
  5373 ;;		_lcd_send_4bits
  5374 ;; This function is called by:
  5375 ;;		_lcd_4bit_intialize
  5376 ;;		_lcd_4bit_set_cursor
  5377 ;;		_Air_Conditioning_On
  5378 ;;		_lcd_4bit_send_custom_char
  5379 ;; This function uses a non-reentrant model
  5380 ;;
  5381                           
  5382                           	psect	text32
  5383   002AB0                     __ptext32:
  5384                           	callstack 0
  5385   002AB0                     _lcd_4bit_send_command:
  5386                           	callstack 24
  5387   002AB0                     
  5388                           ;ECU_Layer/Chr_LCD/ecu_chr_lcd.c: 63:     if(((void*)0) == lcd){
  5389   002AB0  5045               	movf	lcd_4bit_send_command@lcd^0,w,c
  5390   002AB2  A4D8               	btfss	status,2,c
  5391   002AB4  EF5E  F015         	goto	u3981
  5392   002AB8  EF60  F015         	goto	u3980
  5393   002ABC                     u3981:
  5394   002ABC  EF64  F015         	goto	l5391
  5395   002AC0                     u3980:
  5396   002AC0                     
  5397                           ;ECU_Layer/Chr_LCD/ecu_chr_lcd.c: 64:         ret = (std_ReturnType) 0x00;
  5398   002AC0  0E00               	movlw	0
  5399   002AC2  6E47               	movwf	lcd_4bit_send_command@ret^0,c
  5400                           
  5401                           ;ECU_Layer/Chr_LCD/ecu_chr_lcd.c: 65:     }
  5402   002AC4  EF84  F015         	goto	l5393
  5403   002AC8                     l5391:
  5404                           
  5405                           ;ECU_Layer/Chr_LCD/ecu_chr_lcd.c: 69:         ret = gpio_pin_write_logic(&(lcd->lcd_rs),
      +                           0x00);
  5406   002AC8  C045  F03A         	movff	lcd_4bit_send_command@lcd,gpio_pin_write_logic@_pin_config
  5407   002ACC  0E00               	movlw	0
  5408   002ACE  6E3B               	movwf	gpio_pin_write_logic@logic^0,c
  5409   002AD0  EC00  F00F         	call	_gpio_pin_write_logic	;wreg free
  5410   002AD4  6E47               	movwf	lcd_4bit_send_command@ret^0,c
  5411                           
  5412                           ;ECU_Layer/Chr_LCD/ecu_chr_lcd.c: 71:         ret = lcd_send_4bits(lcd, command >> 4);
  5413   002AD6  C045  F042         	movff	lcd_4bit_send_command@lcd,lcd_send_4bits@lcd
  5414   002ADA  3846               	swapf	lcd_4bit_send_command@command^0,w,c
  5415   002ADC  0B0F               	andlw	15
  5416   002ADE  6E43               	movwf	lcd_send_4bits@_data_command^0,c
  5417   002AE0  EC86  F015         	call	_lcd_send_4bits	;wreg free
  5418   002AE4  6E47               	movwf	lcd_4bit_send_command@ret^0,c
  5419                           
  5420                           ;ECU_Layer/Chr_LCD/ecu_chr_lcd.c: 73:         ret = lcd_4bit_send_enable_signal(lcd);
  5421   002AE6  C045  F042         	movff	lcd_4bit_send_command@lcd,lcd_4bit_send_enable_signal@lcd
  5422   002AEA  EC3C  F017         	call	_lcd_4bit_send_enable_signal	;wreg free
  5423   002AEE  6E47               	movwf	lcd_4bit_send_command@ret^0,c
  5424                           
  5425                           ;ECU_Layer/Chr_LCD/ecu_chr_lcd.c: 75:         ret = lcd_send_4bits(lcd, command);
  5426   002AF0  C045  F042         	movff	lcd_4bit_send_command@lcd,lcd_send_4bits@lcd
  5427   002AF4  C046  F043         	movff	lcd_4bit_send_command@command,lcd_send_4bits@_data_command
  5428   002AF8  EC86  F015         	call	_lcd_send_4bits	;wreg free
  5429   002AFC  6E47               	movwf	lcd_4bit_send_command@ret^0,c
  5430                           
  5431                           ;ECU_Layer/Chr_LCD/ecu_chr_lcd.c: 77:         ret = lcd_4bit_send_enable_signal(lcd);
  5432   002AFE  C045  F042         	movff	lcd_4bit_send_command@lcd,lcd_4bit_send_enable_signal@lcd
  5433   002B02  EC3C  F017         	call	_lcd_4bit_send_enable_signal	;wreg free
  5434   002B06  6E47               	movwf	lcd_4bit_send_command@ret^0,c
  5435   002B08                     l5393:
  5436                           
  5437                           ;ECU_Layer/Chr_LCD/ecu_chr_lcd.c: 79:     return ret;
  5438   002B08  5047               	movf	lcd_4bit_send_command@ret^0,w,c
  5439   002B0A  0012               	return		;funcret
  5440   002B0C                     __end_of_lcd_4bit_send_command:
  5441                           	callstack 0
  5442                           
  5443 ;; *************** function _lcd_4bit_send_char_data *****************
  5444 ;; Defined at:
  5445 ;;		line 90 in file "ECU_Layer/Chr_LCD/ecu_chr_lcd.c"
  5446 ;; Parameters:    Size  Location     Type
  5447 ;;  lcd             1   12[COMRAM] PTR const struct .
  5448 ;;		 -> lcd_1(6), 
  5449 ;;  data            1   13[COMRAM] unsigned char 
  5450 ;; Auto vars:     Size  Location     Type
  5451 ;;  ret             1    0        unsigned char 
  5452 ;; Return value:  Size  Location     Type
  5453 ;;                  1    wreg      unsigned char 
  5454 ;; Registers used:
  5455 ;;		wreg, fsr2l, fsr2h, status,2, status,0, prodl, prodh, cstack
  5456 ;; Tracked objects:
  5457 ;;		On entry : 0/0
  5458 ;;		On exit  : 0/0
  5459 ;;		Unchanged: 0/0
  5460 ;; Data sizes:     COMRAM   BANK0   BANK1   BANK2   BANK3   BANK4   BANK5   BANK6   BANK7   BANK8   BANK9  BANK10  BANK1
      +1  BANK12  BANK13  BANK14  BANK15
  5461 ;;      Params:         2       0       0       0       0       0       0       0       0       0       0       0       
      +0       0       0       0       0
  5462 ;;      Locals:         0       0       0       0       0       0       0       0       0       0       0       0       
      +0       0       0       0       0
  5463 ;;      Temps:          0       0       0       0       0       0       0       0       0       0       0       0       
      +0       0       0       0       0
  5464 ;;      Totals:         2       0       0       0       0       0       0       0       0       0       0       0       
      +0       0       0       0       0
  5465 ;;Total ram usage:        2 bytes
  5466 ;; Hardware stack levels used: 1
  5467 ;; Hardware stack levels required when called: 4
  5468 ;; This function calls:
  5469 ;;		_gpio_pin_write_logic
  5470 ;;		_lcd_4bit_send_enable_signal
  5471 ;;		_lcd_send_4bits
  5472 ;; This function is called by:
  5473 ;;		_lcd_4bit_send_string_pos
  5474 ;;		_lcd_4bit_send_char_data_pos
  5475 ;;		_lcd_4bit_send_string
  5476 ;;		_lcd_4bit_send_custom_char
  5477 ;; This function uses a non-reentrant model
  5478 ;;
  5479                           
  5480                           	psect	text33
  5481   002B5C                     __ptext33:
  5482                           	callstack 0
  5483   002B5C                     _lcd_4bit_send_char_data:
  5484                           	callstack 25
  5485   002B5C                     
  5486                           ;ECU_Layer/Chr_LCD/ecu_chr_lcd.c: 92:     if(((void*)0) == lcd){
  5487   002B5C  5045               	movf	lcd_4bit_send_char_data@lcd^0,w,c
  5488   002B5E  A4D8               	btfss	status,2,c
  5489   002B60  EFB4  F015         	goto	u4151
  5490   002B64  EFB6  F015         	goto	u4150
  5491   002B68                     u4151:
  5492   002B68  EFB6  F015         	goto	l5541
  5493   002B6C                     u4150:
  5494   002B6C                     l5541:
  5495   002B6C  C045  F03A         	movff	lcd_4bit_send_char_data@lcd,gpio_pin_write_logic@_pin_config
  5496   002B70  0E01               	movlw	1
  5497   002B72  6E3B               	movwf	gpio_pin_write_logic@logic^0,c
  5498   002B74  EC00  F00F         	call	_gpio_pin_write_logic	;wreg free
  5499   002B78  C045  F042         	movff	lcd_4bit_send_char_data@lcd,lcd_send_4bits@lcd
  5500   002B7C  3846               	swapf	lcd_4bit_send_char_data@data^0,w,c
  5501   002B7E  0B0F               	andlw	15
  5502   002B80  6E43               	movwf	lcd_send_4bits@_data_command^0,c
  5503   002B82  EC86  F015         	call	_lcd_send_4bits	;wreg free
  5504   002B86  C045  F042         	movff	lcd_4bit_send_char_data@lcd,lcd_4bit_send_enable_signal@lcd
  5505   002B8A  EC3C  F017         	call	_lcd_4bit_send_enable_signal	;wreg free
  5506   002B8E  C045  F042         	movff	lcd_4bit_send_char_data@lcd,lcd_send_4bits@lcd
  5507   002B92  C046  F043         	movff	lcd_4bit_send_char_data@data,lcd_send_4bits@_data_command
  5508   002B96  EC86  F015         	call	_lcd_send_4bits	;wreg free
  5509   002B9A  C045  F042         	movff	lcd_4bit_send_char_data@lcd,lcd_4bit_send_enable_signal@lcd
  5510   002B9E  EC3C  F017         	call	_lcd_4bit_send_enable_signal	;wreg free
  5511   002BA2  0012               	return		;funcret
  5512   002BA4                     __end_of_lcd_4bit_send_char_data:
  5513                           	callstack 0
  5514                           
  5515 ;; *************** function _lcd_send_4bits *****************
  5516 ;; Defined at:
  5517 ;;		line 451 in file "ECU_Layer/Chr_LCD/ecu_chr_lcd.c"
  5518 ;; Parameters:    Size  Location     Type
  5519 ;;  lcd             1    9[COMRAM] PTR const struct .
  5520 ;;		 -> lcd_1(6), 
  5521 ;;  _data_comman    1   10[COMRAM] unsigned char 
  5522 ;; Auto vars:     Size  Location     Type
  5523 ;;  ret             1   11[COMRAM] unsigned char 
  5524 ;; Return value:  Size  Location     Type
  5525 ;;                  1    wreg      unsigned char 
  5526 ;; Registers used:
  5527 ;;		wreg, fsr2l, fsr2h, status,2, status,0, prodl, prodh, cstack
  5528 ;; Tracked objects:
  5529 ;;		On entry : 0/0
  5530 ;;		On exit  : 0/0
  5531 ;;		Unchanged: 0/0
  5532 ;; Data sizes:     COMRAM   BANK0   BANK1   BANK2   BANK3   BANK4   BANK5   BANK6   BANK7   BANK8   BANK9  BANK10  BANK1
      +1  BANK12  BANK13  BANK14  BANK15
  5533 ;;      Params:         2       0       0       0       0       0       0       0       0       0       0       0       
      +0       0       0       0       0
  5534 ;;      Locals:         1       0       0       0       0       0       0       0       0       0       0       0       
      +0       0       0       0       0
  5535 ;;      Temps:          0       0       0       0       0       0       0       0       0       0       0       0       
      +0       0       0       0       0
  5536 ;;      Totals:         3       0       0       0       0       0       0       0       0       0       0       0       
      +0       0       0       0       0
  5537 ;;Total ram usage:        3 bytes
  5538 ;; Hardware stack levels used: 1
  5539 ;; Hardware stack levels required when called: 3
  5540 ;; This function calls:
  5541 ;;		_gpio_pin_write_logic
  5542 ;; This function is called by:
  5543 ;;		_lcd_4bit_send_command
  5544 ;;		_lcd_4bit_send_char_data
  5545 ;; This function uses a non-reentrant model
  5546 ;;
  5547                           
  5548                           	psect	text34
  5549   002B0C                     __ptext34:
  5550                           	callstack 0
  5551   002B0C                     _lcd_send_4bits:
  5552                           	callstack 24
  5553   002B0C  5042               	movf	lcd_send_4bits@lcd^0,w,c
  5554   002B0E  0F02               	addlw	2
  5555   002B10  6E3A               	movwf	gpio_pin_write_logic@_pin_config^0,c
  5556   002B12  5043               	movf	lcd_send_4bits@_data_command^0,w,c
  5557   002B14  0B01               	andlw	1
  5558   002B16  6E3B               	movwf	gpio_pin_write_logic@logic^0,c
  5559   002B18  EC00  F00F         	call	_gpio_pin_write_logic	;wreg free
  5560   002B1C  5042               	movf	lcd_send_4bits@lcd^0,w,c
  5561   002B1E  0F03               	addlw	3
  5562   002B20  6E3A               	movwf	gpio_pin_write_logic@_pin_config^0,c
  5563   002B22  90D8               	bcf	status,0,c
  5564   002B24  3043               	rrcf	lcd_send_4bits@_data_command^0,w,c
  5565   002B26  0B01               	andlw	1
  5566   002B28  6E3B               	movwf	gpio_pin_write_logic@logic^0,c
  5567   002B2A  EC00  F00F         	call	_gpio_pin_write_logic	;wreg free
  5568   002B2E  5042               	movf	lcd_send_4bits@lcd^0,w,c
  5569   002B30  0F04               	addlw	4
  5570   002B32  6E3A               	movwf	gpio_pin_write_logic@_pin_config^0,c
  5571   002B34  4043               	rrncf	lcd_send_4bits@_data_command^0,w,c
  5572   002B36  42E8               	rrncf	wreg,f,c
  5573   002B38  0B3F               	andlw	63
  5574   002B3A  0B01               	andlw	1
  5575   002B3C  6E3B               	movwf	gpio_pin_write_logic@logic^0,c
  5576   002B3E  EC00  F00F         	call	_gpio_pin_write_logic	;wreg free
  5577   002B42                     
  5578                           ;ECU_Layer/Chr_LCD/ecu_chr_lcd.c: 456:     ret = gpio_pin_write_logic(&(lcd->lcd_data[3]
      +                          ), (_data_command >> 3) & (uint8)0x01);
  5579   002B42  5042               	movf	lcd_send_4bits@lcd^0,w,c
  5580   002B44  0F05               	addlw	5
  5581   002B46  6E3A               	movwf	gpio_pin_write_logic@_pin_config^0,c
  5582   002B48  3843               	swapf	lcd_send_4bits@_data_command^0,w,c
  5583   002B4A  46E8               	rlncf	wreg,f,c
  5584   002B4C  0B1F               	andlw	31
  5585   002B4E  0B01               	andlw	1
  5586   002B50  6E3B               	movwf	gpio_pin_write_logic@logic^0,c
  5587   002B52  EC00  F00F         	call	_gpio_pin_write_logic	;wreg free
  5588   002B56  6E44               	movwf	lcd_send_4bits@ret^0,c
  5589                           
  5590                           ;ECU_Layer/Chr_LCD/ecu_chr_lcd.c: 457:     return ret;
  5591   002B58  5044               	movf	lcd_send_4bits@ret^0,w,c
  5592   002B5A  0012               	return		;funcret
  5593   002B5C                     __end_of_lcd_send_4bits:
  5594                           	callstack 0
  5595                           
  5596 ;; *************** function _lcd_4bit_send_enable_signal *****************
  5597 ;; Defined at:
  5598 ;;		line 467 in file "ECU_Layer/Chr_LCD/ecu_chr_lcd.c"
  5599 ;; Parameters:    Size  Location     Type
  5600 ;;  lcd             1    9[COMRAM] PTR const struct .
  5601 ;;		 -> lcd_1(6), 
  5602 ;; Auto vars:     Size  Location     Type
  5603 ;;  ret             1   10[COMRAM] unsigned char 
  5604 ;; Return value:  Size  Location     Type
  5605 ;;                  1    wreg      unsigned char 
  5606 ;; Registers used:
  5607 ;;		wreg, fsr2l, fsr2h, status,2, status,0, prodl, prodh, cstack
  5608 ;; Tracked objects:
  5609 ;;		On entry : 0/0
  5610 ;;		On exit  : 0/0
  5611 ;;		Unchanged: 0/0
  5612 ;; Data sizes:     COMRAM   BANK0   BANK1   BANK2   BANK3   BANK4   BANK5   BANK6   BANK7   BANK8   BANK9  BANK10  BANK1
      +1  BANK12  BANK13  BANK14  BANK15
  5613 ;;      Params:         1       0       0       0       0       0       0       0       0       0       0       0       
      +0       0       0       0       0
  5614 ;;      Locals:         1       0       0       0       0       0       0       0       0       0       0       0       
      +0       0       0       0       0
  5615 ;;      Temps:          0       0       0       0       0       0       0       0       0       0       0       0       
      +0       0       0       0       0
  5616 ;;      Totals:         2       0       0       0       0       0       0       0       0       0       0       0       
      +0       0       0       0       0
  5617 ;;Total ram usage:        2 bytes
  5618 ;; Hardware stack levels used: 1
  5619 ;; Hardware stack levels required when called: 3
  5620 ;; This function calls:
  5621 ;;		_gpio_pin_write_logic
  5622 ;; This function is called by:
  5623 ;;		_lcd_4bit_send_command
  5624 ;;		_lcd_4bit_send_char_data
  5625 ;; This function uses a non-reentrant model
  5626 ;;
  5627                           
  5628                           	psect	text35
  5629   002E78                     __ptext35:
  5630                           	callstack 0
  5631   002E78                     _lcd_4bit_send_enable_signal:
  5632                           	callstack 24
  5633   002E78  2842               	incf	lcd_4bit_send_enable_signal@lcd^0,w,c
  5634   002E7A  6E3A               	movwf	gpio_pin_write_logic@_pin_config^0,c
  5635   002E7C  0E01               	movlw	1
  5636   002E7E  6E3B               	movwf	gpio_pin_write_logic@logic^0,c
  5637   002E80  EC00  F00F         	call	_gpio_pin_write_logic	;wreg free
  5638   002E84                     
  5639                           ;ECU_Layer/Chr_LCD/ecu_chr_lcd.c: 470:     _delay((unsigned long)((5)*(8000000/4000000.0
      +                          )));
  5640   002E84  0E03               	movlw	3
  5641   002E86                     u6967:
  5642   002E86  2EE8               	decfsz	wreg,f,c
  5643   002E88  D7FE               	bra	u6967
  5644   002E8A  0000               	nop	
  5645   002E8C                     
  5646                           ;ECU_Layer/Chr_LCD/ecu_chr_lcd.c: 471:     ret = gpio_pin_write_logic(&(lcd->lcd_en), 0x
      +                          00);
  5647   002E8C  2842               	incf	lcd_4bit_send_enable_signal@lcd^0,w,c
  5648   002E8E  6E3A               	movwf	gpio_pin_write_logic@_pin_config^0,c
  5649   002E90  0E00               	movlw	0
  5650   002E92  6E3B               	movwf	gpio_pin_write_logic@logic^0,c
  5651   002E94  EC00  F00F         	call	_gpio_pin_write_logic	;wreg free
  5652   002E98  6E43               	movwf	lcd_4bit_send_enable_signal@ret^0,c
  5653   002E9A                     
  5654                           ;ECU_Layer/Chr_LCD/ecu_chr_lcd.c: 472:     return ret;
  5655   002E9A  5043               	movf	lcd_4bit_send_enable_signal@ret^0,w,c
  5656   002E9C  0012               	return		;funcret
  5657   002E9E                     __end_of_lcd_4bit_send_enable_signal:
  5658                           	callstack 0
  5659                           
  5660 ;; *************** function _gpio_pin_write_logic *****************
  5661 ;; Defined at:
  5662 ;;		line 78 in file "MCAL_Layer/GPIO/hal_gpio.c"
  5663 ;; Parameters:    Size  Location     Type
  5664 ;;  _pin_config     1    1[COMRAM] PTR const struct .
  5665 ;;		 -> dc_motor_2$dc_motor_pin(2), dc_motor_2(2), dc_motor_1$dc_motor_pin(2), dc_motor_1(2), 
  5666 ;;		 -> lcd_1$lcd_data(4), lcd_1(6), keypad_1$keypad_row_pins(4), keypad_1(8), 
  5667 ;;		 -> relay_turn_off@pin_obj(1), relay_turn_on@pin_obj(1), relay_initialize@pin_obj(1), led_turn_off@pin_obj(1), 
  5668 ;;		 -> led_turn_on@pin_obj(1), 
  5669 ;;  logic           1    2[COMRAM] enum E2983
  5670 ;; Auto vars:     Size  Location     Type
  5671 ;;  ret             1    8[COMRAM] unsigned char 
  5672 ;; Return value:  Size  Location     Type
  5673 ;;                  1    wreg      unsigned char 
  5674 ;; Registers used:
  5675 ;;		wreg, fsr2l, fsr2h, status,2, status,0, prodl, prodh
  5676 ;; Tracked objects:
  5677 ;;		On entry : 0/0
  5678 ;;		On exit  : 0/0
  5679 ;;		Unchanged: 0/0
  5680 ;; Data sizes:     COMRAM   BANK0   BANK1   BANK2   BANK3   BANK4   BANK5   BANK6   BANK7   BANK8   BANK9  BANK10  BANK1
      +1  BANK12  BANK13  BANK14  BANK15
  5681 ;;      Params:         2       0       0       0       0       0       0       0       0       0       0       0       
      +0       0       0       0       0
  5682 ;;      Locals:         1       0       0       0       0       0       0       0       0       0       0       0       
      +0       0       0       0       0
  5683 ;;      Temps:          5       0       0       0       0       0       0       0       0       0       0       0       
      +0       0       0       0       0
  5684 ;;      Totals:         8       0       0       0       0       0       0       0       0       0       0       0       
      +0       0       0       0       0
  5685 ;;Total ram usage:        8 bytes
  5686 ;; Hardware stack levels used: 1
  5687 ;; Hardware stack levels required when called: 2
  5688 ;; This function calls:
  5689 ;;		Nothing
  5690 ;; This function is called by:
  5691 ;;		_lcd_4bit_send_command
  5692 ;;		_lcd_4bit_send_char_data
  5693 ;;		_lcd_send_4bits
  5694 ;;		_lcd_4bit_send_enable_signal
  5695 ;;		_dc_motor_move_right
  5696 ;;		_dc_motor_stop
  5697 ;;		_keypad_get_value
  5698 ;;		_gpio_pin_initialize
  5699 ;;		_seven_segement_write_number
  5700 ;;		_lcd_8bit_send_command
  5701 ;;		_lcd_8bit_send_char_data
  5702 ;;		_lcd_8bit_send_enable_signal
  5703 ;;		_dc_motor_move_left
  5704 ;;		_led_turn_on
  5705 ;;		_led_turn_off
  5706 ;;		_relay_turn_on
  5707 ;;		_relay_turn_off
  5708 ;; This function uses a non-reentrant model
  5709 ;;
  5710                           
  5711                           	psect	text36
  5712   001E00                     __ptext36:
  5713                           	callstack 0
  5714   001E00                     _gpio_pin_write_logic:
  5715                           	callstack 24
  5716   001E00                     
  5717                           ;MCAL_Layer/GPIO/hal_gpio.c: 79:     std_ReturnType ret = (std_ReturnType) 0x01;
  5718   001E00  0E01               	movlw	1
  5719   001E02  6E41               	movwf	gpio_pin_write_logic@ret^0,c
  5720                           
  5721                           ;MCAL_Layer/GPIO/hal_gpio.c: 80:     if(((void*)0) == _pin_config || _pin_config->pin > 
      +                          8 -1){
  5722   001E04  503A               	movf	gpio_pin_write_logic@_pin_config^0,w,c
  5723   001E06  B4D8               	btfsc	status,2,c
  5724   001E08  EF08  F00F         	goto	u3691
  5725   001E0C  EF0A  F00F         	goto	u3690
  5726   001E10                     u3691:
  5727   001E10  EF1A  F00F         	goto	l5213
  5728   001E14                     u3690:
  5729   001E14  503A               	movf	gpio_pin_write_logic@_pin_config^0,w,c
  5730   001E16  6ED9               	movwf	fsr2l,c
  5731   001E18  6ADA               	clrf	fsr2h,c
  5732   001E1A  30DF               	rrcf	223,w,c
  5733   001E1C  32E8               	rrcf	wreg,f,c
  5734   001E1E  32E8               	rrcf	wreg,f,c
  5735   001E20  0B07               	andlw	7
  5736   001E22  6E3C               	movwf	??_gpio_pin_write_logic^0,c
  5737   001E24  0E07               	movlw	7
  5738   001E26  643C               	cpfsgt	??_gpio_pin_write_logic^0,c
  5739   001E28  EF18  F00F         	goto	u3701
  5740   001E2C  EF1A  F00F         	goto	u3700
  5741   001E30                     u3701:
  5742   001E30  EF71  F00F         	goto	l5221
  5743   001E34                     u3700:
  5744   001E34                     l5213:
  5745                           
  5746                           ;MCAL_Layer/GPIO/hal_gpio.c: 81:         ret = (std_ReturnType) 0x00;
  5747   001E34  0E00               	movlw	0
  5748   001E36  6E41               	movwf	gpio_pin_write_logic@ret^0,c
  5749                           
  5750                           ;MCAL_Layer/GPIO/hal_gpio.c: 82:     }
  5751   001E38  EF86  F00F         	goto	l5223
  5752   001E3C                     l5215:
  5753                           
  5754                           ;MCAL_Layer/GPIO/hal_gpio.c: 86:                 (*lat_registers[_pin_config->port] &= ~
      +                          ((uint8)1 << _pin_config->pin));
  5755   001E3C  503A               	movf	gpio_pin_write_logic@_pin_config^0,w,c
  5756   001E3E  6ED9               	movwf	fsr2l,c
  5757   001E40  6ADA               	clrf	fsr2h,c
  5758   001E42  30DF               	rrcf	223,w,c
  5759   001E44  32E8               	rrcf	wreg,f,c
  5760   001E46  32E8               	rrcf	wreg,f,c
  5761   001E48  0B07               	andlw	7
  5762   001E4A  6E3C               	movwf	??_gpio_pin_write_logic^0,c
  5763   001E4C  0E01               	movlw	1
  5764   001E4E  6E3D               	movwf	(??_gpio_pin_write_logic+1)^0,c
  5765   001E50  2A3C               	incf	??_gpio_pin_write_logic^0,f,c
  5766   001E52  EF2D  F00F         	goto	u3714
  5767   001E56                     u3715:
  5768   001E56  90D8               	bcf	status,0,c
  5769   001E58  363D               	rlcf	(??_gpio_pin_write_logic+1)^0,f,c
  5770   001E5A                     u3714:
  5771   001E5A  2E3C               	decfsz	??_gpio_pin_write_logic^0,f,c
  5772   001E5C  EF2B  F00F         	goto	u3715
  5773   001E60  503D               	movf	(??_gpio_pin_write_logic+1)^0,w,c
  5774   001E62  0AFF               	xorlw	255
  5775   001E64  6E3E               	movwf	(??_gpio_pin_write_logic+2)^0,c
  5776   001E66  503A               	movf	gpio_pin_write_logic@_pin_config^0,w,c
  5777   001E68  6ED9               	movwf	fsr2l,c
  5778   001E6A  6ADA               	clrf	fsr2h,c
  5779   001E6C  50DF               	movf	223,w,c
  5780   001E6E  0B07               	andlw	7
  5781   001E70  0D02               	mullw	2
  5782   001E72  50F3               	movf	243,w,c
  5783   001E74  0FC5               	addlw	low _lat_registers
  5784   001E76  6ED9               	movwf	fsr2l,c
  5785   001E78  6ADA               	clrf	fsr2h,c
  5786   001E7A  CFDE F03F          	movff	postinc2,??_gpio_pin_write_logic+3
  5787   001E7E  CFDD F040          	movff	postdec2,??_gpio_pin_write_logic+4
  5788   001E82  C03F  FFD9         	movff	??_gpio_pin_write_logic+3,fsr2l
  5789   001E86  C040  FFDA         	movff	??_gpio_pin_write_logic+4,fsr2h
  5790   001E8A  503E               	movf	(??_gpio_pin_write_logic+2)^0,w,c
  5791   001E8C  16DF               	andwf	indf2,f,c
  5792                           
  5793                           ;MCAL_Layer/GPIO/hal_gpio.c: 87:                 break;
  5794   001E8E  EF86  F00F         	goto	l5223
  5795   001E92                     l5217:
  5796                           
  5797                           ;MCAL_Layer/GPIO/hal_gpio.c: 89:                 (*lat_registers[_pin_config->port] |= (
      +                          (uint8)1<<_pin_config->pin));
  5798   001E92  503A               	movf	gpio_pin_write_logic@_pin_config^0,w,c
  5799   001E94  6ED9               	movwf	fsr2l,c
  5800   001E96  6ADA               	clrf	fsr2h,c
  5801   001E98  30DF               	rrcf	223,w,c
  5802   001E9A  32E8               	rrcf	wreg,f,c
  5803   001E9C  32E8               	rrcf	wreg,f,c
  5804   001E9E  0B07               	andlw	7
  5805   001EA0  6E3C               	movwf	??_gpio_pin_write_logic^0,c
  5806   001EA2  0E01               	movlw	1
  5807   001EA4  6E3D               	movwf	(??_gpio_pin_write_logic+1)^0,c
  5808   001EA6  2A3C               	incf	??_gpio_pin_write_logic^0,f,c
  5809   001EA8  EF58  F00F         	goto	u3724
  5810   001EAC                     u3725:
  5811   001EAC  90D8               	bcf	status,0,c
  5812   001EAE  363D               	rlcf	(??_gpio_pin_write_logic+1)^0,f,c
  5813   001EB0                     u3724:
  5814   001EB0  2E3C               	decfsz	??_gpio_pin_write_logic^0,f,c
  5815   001EB2  EF56  F00F         	goto	u3725
  5816   001EB6  503A               	movf	gpio_pin_write_logic@_pin_config^0,w,c
  5817   001EB8  6ED9               	movwf	fsr2l,c
  5818   001EBA  6ADA               	clrf	fsr2h,c
  5819   001EBC  50DF               	movf	223,w,c
  5820   001EBE  0B07               	andlw	7
  5821   001EC0  0D02               	mullw	2
  5822   001EC2  50F3               	movf	243,w,c
  5823   001EC4  0FC5               	addlw	low _lat_registers
  5824   001EC6  6ED9               	movwf	fsr2l,c
  5825   001EC8  6ADA               	clrf	fsr2h,c
  5826   001ECA  CFDE F03E          	movff	postinc2,??_gpio_pin_write_logic+2
  5827   001ECE  CFDD F03F          	movff	postdec2,??_gpio_pin_write_logic+3
  5828   001ED2  C03E  FFD9         	movff	??_gpio_pin_write_logic+2,fsr2l
  5829   001ED6  C03F  FFDA         	movff	??_gpio_pin_write_logic+3,fsr2h
  5830   001EDA  503D               	movf	(??_gpio_pin_write_logic+1)^0,w,c
  5831   001EDC  12DF               	iorwf	indf2,f,c
  5832                           
  5833                           ;MCAL_Layer/GPIO/hal_gpio.c: 90:                 break;
  5834   001EDE  EF86  F00F         	goto	l5223
  5835   001EE2                     l5221:
  5836   001EE2  503B               	movf	gpio_pin_write_logic@logic^0,w,c
  5837   001EE4  6E3C               	movwf	??_gpio_pin_write_logic^0,c
  5838   001EE6  6A3D               	clrf	(??_gpio_pin_write_logic+1)^0,c
  5839                           
  5840                           ; Switch on 2 bytes has been partitioned into a top level switch of size 1, and 1 sub-sw
      +                          itches
  5841                           ; Switch size 1, requested type "simple"
  5842                           ; Number of cases is 1, Range of values is 0 to 0
  5843                           ; switch strategies available:
  5844                           ; Name         Instructions Cycles
  5845                           ; simple_byte            4     3 (average)
  5846                           ;	Chosen strategy is simple_byte
  5847   001EE8  503D               	movf	(??_gpio_pin_write_logic+1)^0,w,c
  5848   001EEA  0A00               	xorlw	0	; case 0
  5849   001EEC  B4D8               	btfsc	status,2,c
  5850   001EEE  EF7B  F00F         	goto	l7621
  5851   001EF2  EF1A  F00F         	goto	l5213
  5852   001EF6                     l7621:
  5853                           
  5854                           ; Switch size 1, requested type "simple"
  5855                           ; Number of cases is 2, Range of values is 0 to 1
  5856                           ; switch strategies available:
  5857                           ; Name         Instructions Cycles
  5858                           ; simple_byte            7     4 (average)
  5859                           ;	Chosen strategy is simple_byte
  5860   001EF6  503C               	movf	??_gpio_pin_write_logic^0,w,c
  5861   001EF8  0A00               	xorlw	0	; case 0
  5862   001EFA  B4D8               	btfsc	status,2,c
  5863   001EFC  EF1E  F00F         	goto	l5215
  5864   001F00  0A01               	xorlw	1	; case 1
  5865   001F02  B4D8               	btfsc	status,2,c
  5866   001F04  EF49  F00F         	goto	l5217
  5867   001F08  EF1A  F00F         	goto	l5213
  5868   001F0C                     l5223:
  5869                           
  5870                           ;MCAL_Layer/GPIO/hal_gpio.c: 94:     return ret;
  5871   001F0C  5041               	movf	gpio_pin_write_logic@ret^0,w,c
  5872   001F0E  0012               	return		;funcret
  5873   001F10                     __end_of_gpio_pin_write_logic:
  5874                           	callstack 0
  5875                           
  5876 ;; *************** function _ADC_GetConversion_Blocking *****************
  5877 ;; Defined at:
  5878 ;;		line 213 in file "MCAL_Layer/ADC/hal_adc.c"
  5879 ;; Parameters:    Size  Location     Type
  5880 ;;  _adc            1    8[COMRAM] PTR const struct .
  5881 ;;		 -> adc_1(7), 
  5882 ;;  channel         1    9[COMRAM] enum E3047
  5883 ;;  conversion_r    1   10[COMRAM] PTR unsigned short 
  5884 ;;		 -> lm35_res_1(2), 
  5885 ;; Auto vars:     Size  Location     Type
  5886 ;;  ret             1   11[COMRAM] unsigned char 
  5887 ;; Return value:  Size  Location     Type
  5888 ;;                  1    wreg      unsigned char 
  5889 ;; Registers used:
  5890 ;;		wreg, fsr2l, fsr2h, status,2, status,0, cstack
  5891 ;; Tracked objects:
  5892 ;;		On entry : 0/0
  5893 ;;		On exit  : 0/0
  5894 ;;		Unchanged: 0/0
  5895 ;; Data sizes:     COMRAM   BANK0   BANK1   BANK2   BANK3   BANK4   BANK5   BANK6   BANK7   BANK8   BANK9  BANK10  BANK1
      +1  BANK12  BANK13  BANK14  BANK15
  5896 ;;      Params:         3       0       0       0       0       0       0       0       0       0       0       0       
      +0       0       0       0       0
  5897 ;;      Locals:         1       0       0       0       0       0       0       0       0       0       0       0       
      +0       0       0       0       0
  5898 ;;      Temps:          0       0       0       0       0       0       0       0       0       0       0       0       
      +0       0       0       0       0
  5899 ;;      Totals:         4       0       0       0       0       0       0       0       0       0       0       0       
      +0       0       0       0       0
  5900 ;;Total ram usage:        4 bytes
  5901 ;; Hardware stack levels used: 1
  5902 ;; Hardware stack levels required when called: 4
  5903 ;; This function calls:
  5904 ;;		_ADC_GetConversionResult
  5905 ;;		_ADC_SelectChannel
  5906 ;;		_ADC_StartConversion
  5907 ;; This function is called by:
  5908 ;;		_main
  5909 ;; This function uses a non-reentrant model
  5910 ;;
  5911                           
  5912                           	psect	text37
  5913   0029F2                     __ptext37:
  5914                           	callstack 0
  5915   0029F2                     _ADC_GetConversion_Blocking:
  5916                           	callstack 26
  5917   0029F2                     
  5918                           ;MCAL_Layer/ADC/hal_adc.c: 216:     if((((void*)0) == _adc) || (((void*)0) == conversion
      +                          _result)){
  5919   0029F2  5041               	movf	ADC_GetConversion_Blocking@_adc^0,w,c
  5920   0029F4  B4D8               	btfsc	status,2,c
  5921   0029F6  EFFF  F014         	goto	u4591
  5922   0029FA  EF01  F015         	goto	u4590
  5923   0029FE                     u4591:
  5924   0029FE  EF09  F015         	goto	l5967
  5925   002A02                     u4590:
  5926   002A02  5043               	movf	ADC_GetConversion_Blocking@conversion_result^0,w,c
  5927   002A04  A4D8               	btfss	status,2,c
  5928   002A06  EF07  F015         	goto	u4601
  5929   002A0A  EF09  F015         	goto	u4600
  5930   002A0E                     u4601:
  5931   002A0E  EF0D  F015         	goto	l5969
  5932   002A12                     u4600:
  5933   002A12                     l5967:
  5934                           
  5935                           ;MCAL_Layer/ADC/hal_adc.c: 217:         ret = (std_ReturnType) 0x00;
  5936   002A12  0E00               	movlw	0
  5937   002A14  6E44               	movwf	ADC_GetConversion_Blocking@ret^0,c
  5938                           
  5939                           ;MCAL_Layer/ADC/hal_adc.c: 218:     }
  5940   002A16  EF27  F015         	goto	l5973
  5941   002A1A                     l5969:
  5942                           
  5943                           ;MCAL_Layer/ADC/hal_adc.c: 221:         ret = ADC_SelectChannel(_adc, channel);
  5944   002A1A  C041  F03D         	movff	ADC_GetConversion_Blocking@_adc,ADC_SelectChannel@_adc
  5945   002A1E  C042  F03E         	movff	ADC_GetConversion_Blocking@channel,ADC_SelectChannel@channel
  5946   002A22  EC8D  F016         	call	_ADC_SelectChannel	;wreg free
  5947   002A26  6E44               	movwf	ADC_GetConversion_Blocking@ret^0,c
  5948                           
  5949                           ;MCAL_Layer/ADC/hal_adc.c: 223:         ret = ADC_StartConversion(_adc);
  5950   002A28  C041  F03A         	movff	ADC_GetConversion_Blocking@_adc,ADC_StartConversion@_adc
  5951   002A2C  EC4F  F017         	call	_ADC_StartConversion	;wreg free
  5952   002A30  6E44               	movwf	ADC_GetConversion_Blocking@ret^0,c
  5953   002A32                     l417:
  5954   002A32  B2C2               	btfsc	194,1,c	;volatile
  5955   002A34  EF1E  F015         	goto	u4611
  5956   002A38  EF20  F015         	goto	u4610
  5957   002A3C                     u4611:
  5958   002A3C  EF19  F015         	goto	l417
  5959   002A40                     u4610:
  5960   002A40                     
  5961                           ;MCAL_Layer/ADC/hal_adc.c: 226:         ret = ADC_GetConversionResult(_adc, conversion_r
      +                          esult);
  5962   002A40  C041  F03A         	movff	ADC_GetConversion_Blocking@_adc,ADC_GetConversionResult@_adc
  5963   002A44  C043  F03B         	movff	ADC_GetConversion_Blocking@conversion_result,ADC_GetConversionResult@conversion_r
      +                          esult
  5964   002A48  ECC3  F011         	call	_ADC_GetConversionResult	;wreg free
  5965   002A4C  6E44               	movwf	ADC_GetConversion_Blocking@ret^0,c
  5966   002A4E                     l5973:
  5967                           
  5968                           ;MCAL_Layer/ADC/hal_adc.c: 228:     return ret;
  5969   002A4E  5044               	movf	ADC_GetConversion_Blocking@ret^0,w,c
  5970   002A50  0012               	return		;funcret
  5971   002A52                     __end_of_ADC_GetConversion_Blocking:
  5972                           	callstack 0
  5973                           
  5974 ;; *************** function _ADC_StartConversion *****************
  5975 ;; Defined at:
  5976 ;;		line 131 in file "MCAL_Layer/ADC/hal_adc.c"
  5977 ;; Parameters:    Size  Location     Type
  5978 ;;  _adc            1    1[COMRAM] PTR const struct .
  5979 ;;		 -> adc_1(7), 
  5980 ;; Auto vars:     Size  Location     Type
  5981 ;;  ret             1    2[COMRAM] unsigned char 
  5982 ;; Return value:  Size  Location     Type
  5983 ;;                  1    wreg      unsigned char 
  5984 ;; Registers used:
  5985 ;;		wreg, status,2
  5986 ;; Tracked objects:
  5987 ;;		On entry : 0/0
  5988 ;;		On exit  : 0/0
  5989 ;;		Unchanged: 0/0
  5990 ;; Data sizes:     COMRAM   BANK0   BANK1   BANK2   BANK3   BANK4   BANK5   BANK6   BANK7   BANK8   BANK9  BANK10  BANK1
      +1  BANK12  BANK13  BANK14  BANK15
  5991 ;;      Params:         1       0       0       0       0       0       0       0       0       0       0       0       
      +0       0       0       0       0
  5992 ;;      Locals:         1       0       0       0       0       0       0       0       0       0       0       0       
      +0       0       0       0       0
  5993 ;;      Temps:          0       0       0       0       0       0       0       0       0       0       0       0       
      +0       0       0       0       0
  5994 ;;      Totals:         2       0       0       0       0       0       0       0       0       0       0       0       
      +0       0       0       0       0
  5995 ;;Total ram usage:        2 bytes
  5996 ;; Hardware stack levels used: 1
  5997 ;; Hardware stack levels required when called: 2
  5998 ;; This function calls:
  5999 ;;		Nothing
  6000 ;; This function is called by:
  6001 ;;		_ADC_GetConversion_Blocking
  6002 ;;		_ADC_StartConversion_Interrupt
  6003 ;; This function uses a non-reentrant model
  6004 ;;
  6005                           
  6006                           	psect	text38
  6007   002E9E                     __ptext38:
  6008                           	callstack 0
  6009   002E9E                     _ADC_StartConversion:
  6010                           	callstack 27
  6011   002E9E                     
  6012                           ;MCAL_Layer/ADC/hal_adc.c: 133:     if(((void*)0) == _adc){
  6013   002E9E  503A               	movf	ADC_StartConversion@_adc^0,w,c
  6014   002EA0  A4D8               	btfss	status,2,c
  6015   002EA2  EF55  F017         	goto	u4351
  6016   002EA6  EF57  F017         	goto	u4350
  6017   002EAA                     u4351:
  6018   002EAA  EF5B  F017         	goto	l390
  6019   002EAE                     u4350:
  6020   002EAE                     
  6021                           ;MCAL_Layer/ADC/hal_adc.c: 134:         ret = (std_ReturnType) 0x00;
  6022   002EAE  0E00               	movlw	0
  6023   002EB0  6E3B               	movwf	ADC_StartConversion@ret^0,c
  6024                           
  6025                           ;MCAL_Layer/ADC/hal_adc.c: 135:     }
  6026   002EB2  EF5E  F017         	goto	l391
  6027   002EB6                     l390:
  6028                           
  6029                           ;MCAL_Layer/ADC/hal_adc.c: 137:         (ADCON0bits.GODONE = 1);
  6030   002EB6  82C2               	bsf	194,1,c	;volatile
  6031   002EB8                     
  6032                           ;MCAL_Layer/ADC/hal_adc.c: 138:         ret = (std_ReturnType) 0x01;
  6033   002EB8  0E01               	movlw	1
  6034   002EBA  6E3B               	movwf	ADC_StartConversion@ret^0,c
  6035   002EBC                     l391:
  6036                           
  6037                           ;MCAL_Layer/ADC/hal_adc.c: 140:     return ret;
  6038   002EBC  503B               	movf	ADC_StartConversion@ret^0,w,c
  6039   002EBE  0012               	return		;funcret
  6040   002EC0                     __end_of_ADC_StartConversion:
  6041                           	callstack 0
  6042                           
  6043 ;; *************** function _ADC_SelectChannel *****************
  6044 ;; Defined at:
  6045 ;;		line 108 in file "MCAL_Layer/ADC/hal_adc.c"
  6046 ;; Parameters:    Size  Location     Type
  6047 ;;  _adc            1    4[COMRAM] PTR const struct .
  6048 ;;		 -> adc_1(7), 
  6049 ;;  channel         1    5[COMRAM] enum E3047
  6050 ;; Auto vars:     Size  Location     Type
  6051 ;;  ret             1    7[COMRAM] unsigned char 
  6052 ;; Return value:  Size  Location     Type
  6053 ;;                  1    wreg      unsigned char 
  6054 ;; Registers used:
  6055 ;;		wreg, status,2, status,0, cstack
  6056 ;; Tracked objects:
  6057 ;;		On entry : 0/0
  6058 ;;		On exit  : 0/0
  6059 ;;		Unchanged: 0/0
  6060 ;; Data sizes:     COMRAM   BANK0   BANK1   BANK2   BANK3   BANK4   BANK5   BANK6   BANK7   BANK8   BANK9  BANK10  BANK1
      +1  BANK12  BANK13  BANK14  BANK15
  6061 ;;      Params:         2       0       0       0       0       0       0       0       0       0       0       0       
      +0       0       0       0       0
  6062 ;;      Locals:         1       0       0       0       0       0       0       0       0       0       0       0       
      +0       0       0       0       0
  6063 ;;      Temps:          1       0       0       0       0       0       0       0       0       0       0       0       
      +0       0       0       0       0
  6064 ;;      Totals:         4       0       0       0       0       0       0       0       0       0       0       0       
      +0       0       0       0       0
  6065 ;;Total ram usage:        4 bytes
  6066 ;; Hardware stack levels used: 1
  6067 ;; Hardware stack levels required when called: 3
  6068 ;; This function calls:
  6069 ;;		_adc_input_channel_port_configure
  6070 ;; This function is called by:
  6071 ;;		_ADC_GetConversion_Blocking
  6072 ;;		_ADC_StartConversion_Interrupt
  6073 ;; This function uses a non-reentrant model
  6074 ;;
  6075                           
  6076                           	psect	text39
  6077   002D1A                     __ptext39:
  6078                           	callstack 0
  6079   002D1A                     _ADC_SelectChannel:
  6080                           	callstack 26
  6081   002D1A                     
  6082                           ;MCAL_Layer/ADC/hal_adc.c: 110:     if(((void*)0) == _adc){
  6083   002D1A  503D               	movf	ADC_SelectChannel@_adc^0,w,c
  6084   002D1C  A4D8               	btfss	status,2,c
  6085   002D1E  EF93  F016         	goto	u4341
  6086   002D22  EF95  F016         	goto	u4340
  6087   002D26                     u4341:
  6088   002D26  EF99  F016         	goto	l5759
  6089   002D2A                     u4340:
  6090   002D2A                     
  6091                           ;MCAL_Layer/ADC/hal_adc.c: 111:         ret = (std_ReturnType) 0x00;
  6092   002D2A  0E00               	movlw	0
  6093   002D2C  6E40               	movwf	ADC_SelectChannel@ret^0,c
  6094                           
  6095                           ;MCAL_Layer/ADC/hal_adc.c: 112:     }
  6096   002D2E  EFA7  F016         	goto	l5765
  6097   002D32                     l5759:
  6098                           
  6099                           ;MCAL_Layer/ADC/hal_adc.c: 115:         ADCON0bits.CHS = channel;
  6100   002D32  C03E  F03F         	movff	ADC_SelectChannel@channel,??_ADC_SelectChannel
  6101   002D36  463F               	rlncf	??_ADC_SelectChannel^0,f,c
  6102   002D38  463F               	rlncf	??_ADC_SelectChannel^0,f,c
  6103   002D3A  50C2               	movf	194,w,c	;volatile
  6104   002D3C  183F               	xorwf	??_ADC_SelectChannel^0,w,c
  6105   002D3E  0BC3               	andlw	-61
  6106   002D40  183F               	xorwf	??_ADC_SelectChannel^0,w,c
  6107   002D42  6EC2               	movwf	194,c	;volatile
  6108   002D44                     
  6109                           ;MCAL_Layer/ADC/hal_adc.c: 116:         adc_input_channel_port_configure(channel);
  6110   002D44  503E               	movf	ADC_SelectChannel@channel^0,w,c
  6111   002D46  ECF5  F010         	call	_adc_input_channel_port_configure
  6112   002D4A                     
  6113                           ;MCAL_Layer/ADC/hal_adc.c: 117:         ret = (std_ReturnType) 0x01;
  6114   002D4A  0E01               	movlw	1
  6115   002D4C  6E40               	movwf	ADC_SelectChannel@ret^0,c
  6116   002D4E                     l5765:
  6117                           
  6118                           ;MCAL_Layer/ADC/hal_adc.c: 119:     return ret;
  6119   002D4E  5040               	movf	ADC_SelectChannel@ret^0,w,c
  6120   002D50  0012               	return		;funcret
  6121   002D52                     __end_of_ADC_SelectChannel:
  6122                           	callstack 0
  6123                           
  6124 ;; *************** function _adc_input_channel_port_configure *****************
  6125 ;; Defined at:
  6126 ;;		line 253 in file "MCAL_Layer/ADC/hal_adc.c"
  6127 ;; Parameters:    Size  Location     Type
  6128 ;;  channel         1    wreg     enum E3047
  6129 ;; Auto vars:     Size  Location     Type
  6130 ;;  channel         1    3[COMRAM] enum E3047
  6131 ;; Return value:  Size  Location     Type
  6132 ;;                  1    wreg      void 
  6133 ;; Registers used:
  6134 ;;		wreg, status,2, status,0
  6135 ;; Tracked objects:
  6136 ;;		On entry : 0/0
  6137 ;;		On exit  : 0/0
  6138 ;;		Unchanged: 0/0
  6139 ;; Data sizes:     COMRAM   BANK0   BANK1   BANK2   BANK3   BANK4   BANK5   BANK6   BANK7   BANK8   BANK9  BANK10  BANK1
      +1  BANK12  BANK13  BANK14  BANK15
  6140 ;;      Params:         0       0       0       0       0       0       0       0       0       0       0       0       
      +0       0       0       0       0
  6141 ;;      Locals:         1       0       0       0       0       0       0       0       0       0       0       0       
      +0       0       0       0       0
  6142 ;;      Temps:          2       0       0       0       0       0       0       0       0       0       0       0       
      +0       0       0       0       0
  6143 ;;      Totals:         3       0       0       0       0       0       0       0       0       0       0       0       
      +0       0       0       0       0
  6144 ;;Total ram usage:        3 bytes
  6145 ;; Hardware stack levels used: 1
  6146 ;; Hardware stack levels required when called: 2
  6147 ;; This function calls:
  6148 ;;		Nothing
  6149 ;; This function is called by:
  6150 ;;		_ADC_Init
  6151 ;;		_ADC_SelectChannel
  6152 ;; This function uses a non-reentrant model
  6153 ;;
  6154                           
  6155                           	psect	text40
  6156   0021EA                     __ptext40:
  6157                           	callstack 0
  6158   0021EA                     _adc_input_channel_port_configure:
  6159                           	callstack 25
  6160                           
  6161                           ;incstack = 0
  6162                           ;adc_input_channel_port_configure@channel stored from wreg
  6163   0021EA  6E3C               	movwf	adc_input_channel_port_configure@channel^0,c
  6164   0021EC                     
  6165                           ;MCAL_Layer/ADC/hal_adc.c: 254:     switch(channel){
  6166   0021EC  EF1F  F011         	goto	l5425
  6167   0021F0                     l5399:
  6168   0021F0  8092               	bsf	146,0,c	;volatile
  6169   0021F2  EF60  F011         	goto	l444
  6170   0021F6                     l5401:
  6171   0021F6  8292               	bsf	146,1,c	;volatile
  6172   0021F8  EF60  F011         	goto	l444
  6173   0021FC                     l5403:
  6174   0021FC  8492               	bsf	146,2,c	;volatile
  6175   0021FE  EF60  F011         	goto	l444
  6176   002202                     l5405:
  6177   002202  8692               	bsf	146,3,c	;volatile
  6178   002204  EF60  F011         	goto	l444
  6179   002208                     l5407:
  6180   002208  8A92               	bsf	146,5,c	;volatile
  6181   00220A  EF60  F011         	goto	l444
  6182   00220E                     l5409:
  6183   00220E  8096               	bsf	150,0,c	;volatile
  6184   002210  EF60  F011         	goto	l444
  6185   002214                     l5411:
  6186   002214  8296               	bsf	150,1,c	;volatile
  6187   002216  EF60  F011         	goto	l444
  6188   00221A                     l5413:
  6189   00221A  8496               	bsf	150,2,c	;volatile
  6190   00221C  EF60  F011         	goto	l444
  6191   002220                     l5415:
  6192   002220  8493               	bsf	147,2,c	;volatile
  6193   002222  EF60  F011         	goto	l444
  6194   002226                     l5417:
  6195   002226  8693               	bsf	147,3,c	;volatile
  6196   002228  EF60  F011         	goto	l444
  6197   00222C                     l5419:
  6198   00222C  8293               	bsf	147,1,c	;volatile
  6199   00222E  EF60  F011         	goto	l444
  6200   002232                     l5421:
  6201   002232  8893               	bsf	147,4,c	;volatile
  6202   002234  EF60  F011         	goto	l444
  6203   002238                     l5423:
  6204   002238  8093               	bsf	147,0,c	;volatile
  6205   00223A  EF60  F011         	goto	l444
  6206   00223E                     l5425:
  6207   00223E  503C               	movf	adc_input_channel_port_configure@channel^0,w,c
  6208   002240  6E3A               	movwf	??_adc_input_channel_port_configure^0,c
  6209   002242  6A3B               	clrf	(??_adc_input_channel_port_configure+1)^0,c
  6210                           
  6211                           ; Switch on 2 bytes has been partitioned into a top level switch of size 1, and 1 sub-sw
      +                          itches
  6212                           ; Switch size 1, requested type "simple"
  6213                           ; Number of cases is 1, Range of values is 0 to 0
  6214                           ; switch strategies available:
  6215                           ; Name         Instructions Cycles
  6216                           ; simple_byte            4     3 (average)
  6217                           ;	Chosen strategy is simple_byte
  6218   002244  503B               	movf	(??_adc_input_channel_port_configure+1)^0,w,c
  6219   002246  0A00               	xorlw	0	; case 0
  6220   002248  B4D8               	btfsc	status,2,c
  6221   00224A  EF29  F011         	goto	l7623
  6222   00224E  EF60  F011         	goto	l444
  6223   002252                     l7623:
  6224                           
  6225                           ; Switch size 1, requested type "simple"
  6226                           ; Number of cases is 13, Range of values is 0 to 12
  6227                           ; switch strategies available:
  6228                           ; Name         Instructions Cycles
  6229                           ; simple_byte           40    21 (average)
  6230                           ;	Chosen strategy is simple_byte
  6231   002252  503A               	movf	??_adc_input_channel_port_configure^0,w,c
  6232   002254  0A00               	xorlw	0	; case 0
  6233   002256  B4D8               	btfsc	status,2,c
  6234   002258  EFF8  F010         	goto	l5399
  6235   00225C  0A01               	xorlw	1	; case 1
  6236   00225E  B4D8               	btfsc	status,2,c
  6237   002260  EFFB  F010         	goto	l5401
  6238   002264  0A03               	xorlw	3	; case 2
  6239   002266  B4D8               	btfsc	status,2,c
  6240   002268  EFFE  F010         	goto	l5403
  6241   00226C  0A01               	xorlw	1	; case 3
  6242   00226E  B4D8               	btfsc	status,2,c
  6243   002270  EF01  F011         	goto	l5405
  6244   002274  0A07               	xorlw	7	; case 4
  6245   002276  B4D8               	btfsc	status,2,c
  6246   002278  EF04  F011         	goto	l5407
  6247   00227C  0A01               	xorlw	1	; case 5
  6248   00227E  B4D8               	btfsc	status,2,c
  6249   002280  EF07  F011         	goto	l5409
  6250   002284  0A03               	xorlw	3	; case 6
  6251   002286  B4D8               	btfsc	status,2,c
  6252   002288  EF0A  F011         	goto	l5411
  6253   00228C  0A01               	xorlw	1	; case 7
  6254   00228E  B4D8               	btfsc	status,2,c
  6255   002290  EF0D  F011         	goto	l5413
  6256   002294  0A0F               	xorlw	15	; case 8
  6257   002296  B4D8               	btfsc	status,2,c
  6258   002298  EF10  F011         	goto	l5415
  6259   00229C  0A01               	xorlw	1	; case 9
  6260   00229E  B4D8               	btfsc	status,2,c
  6261   0022A0  EF13  F011         	goto	l5417
  6262   0022A4  0A03               	xorlw	3	; case 10
  6263   0022A6  B4D8               	btfsc	status,2,c
  6264   0022A8  EF16  F011         	goto	l5419
  6265   0022AC  0A01               	xorlw	1	; case 11
  6266   0022AE  B4D8               	btfsc	status,2,c
  6267   0022B0  EF19  F011         	goto	l5421
  6268   0022B4  0A07               	xorlw	7	; case 12
  6269   0022B6  B4D8               	btfsc	status,2,c
  6270   0022B8  EF1C  F011         	goto	l5423
  6271   0022BC  EF60  F011         	goto	l444
  6272   0022C0                     l444:
  6273   0022C0  0012               	return		;funcret
  6274   0022C2                     __end_of_adc_input_channel_port_configure:
  6275                           	callstack 0
  6276                           
  6277 ;; *************** function _ADC_GetConversionResult *****************
  6278 ;; Defined at:
  6279 ;;		line 181 in file "MCAL_Layer/ADC/hal_adc.c"
  6280 ;; Parameters:    Size  Location     Type
  6281 ;;  _adc            1    1[COMRAM] PTR const struct .
  6282 ;;		 -> adc_1(7), 
  6283 ;;  conversion_r    1    2[COMRAM] PTR unsigned short 
  6284 ;;		 -> lm35_res_1(2), 
  6285 ;; Auto vars:     Size  Location     Type
  6286 ;;  ret             1    6[COMRAM] unsigned char 
  6287 ;; Return value:  Size  Location     Type
  6288 ;;                  1    wreg      unsigned char 
  6289 ;; Registers used:
  6290 ;;		wreg, fsr2l, fsr2h, status,2, status,0
  6291 ;; Tracked objects:
  6292 ;;		On entry : 0/0
  6293 ;;		On exit  : 0/0
  6294 ;;		Unchanged: 0/0
  6295 ;; Data sizes:     COMRAM   BANK0   BANK1   BANK2   BANK3   BANK4   BANK5   BANK6   BANK7   BANK8   BANK9  BANK10  BANK1
      +1  BANK12  BANK13  BANK14  BANK15
  6296 ;;      Params:         2       0       0       0       0       0       0       0       0       0       0       0       
      +0       0       0       0       0
  6297 ;;      Locals:         1       0       0       0       0       0       0       0       0       0       0       0       
      +0       0       0       0       0
  6298 ;;      Temps:          3       0       0       0       0       0       0       0       0       0       0       0       
      +0       0       0       0       0
  6299 ;;      Totals:         6       0       0       0       0       0       0       0       0       0       0       0       
      +0       0       0       0       0
  6300 ;;Total ram usage:        6 bytes
  6301 ;; Hardware stack levels used: 1
  6302 ;; Hardware stack levels required when called: 2
  6303 ;; This function calls:
  6304 ;;		Nothing
  6305 ;; This function is called by:
  6306 ;;		_ADC_GetConversion_Blocking
  6307 ;; This function uses a non-reentrant model
  6308 ;;
  6309                           
  6310                           	psect	text41
  6311   002386                     __ptext41:
  6312                           	callstack 0
  6313   002386                     _ADC_GetConversionResult:
  6314                           	callstack 27
  6315   002386                     
  6316                           ;MCAL_Layer/ADC/hal_adc.c: 183:     if((((void*)0) == _adc) || (((void*)0) == conversion
      +                          _result)){
  6317   002386  503A               	movf	ADC_GetConversionResult@_adc^0,w,c
  6318   002388  B4D8               	btfsc	status,2,c
  6319   00238A  EFC9  F011         	goto	u4361
  6320   00238E  EFCB  F011         	goto	u4360
  6321   002392                     u4361:
  6322   002392  EFD3  F011         	goto	l5781
  6323   002396                     u4360:
  6324   002396  503B               	movf	ADC_GetConversionResult@conversion_result^0,w,c
  6325   002398  A4D8               	btfss	status,2,c
  6326   00239A  EFD1  F011         	goto	u4371
  6327   00239E  EFD3  F011         	goto	u4370
  6328   0023A2                     u4371:
  6329   0023A2  EFD7  F011         	goto	l5783
  6330   0023A6                     u4370:
  6331   0023A6                     l5781:
  6332                           
  6333                           ;MCAL_Layer/ADC/hal_adc.c: 184:         ret = (std_ReturnType) 0x00;
  6334   0023A6  0E00               	movlw	0
  6335   0023A8  6E3F               	movwf	ADC_GetConversionResult@ret^0,c
  6336                           
  6337                           ;MCAL_Layer/ADC/hal_adc.c: 185:     }
  6338   0023AA  EF1D  F012         	goto	l5795
  6339   0023AE                     l5783:
  6340                           
  6341                           ;MCAL_Layer/ADC/hal_adc.c: 187:         if(0x01U == _adc->result_format){
  6342   0023AE  503A               	movf	ADC_GetConversionResult@_adc^0,w,c
  6343   0023B0  6ED9               	movwf	fsr2l,c
  6344   0023B2  6ADA               	clrf	fsr2h,c
  6345   0023B4  0E06               	movlw	6
  6346   0023B6  26D9               	addwf	fsr2l,f,c
  6347   0023B8  A2DF               	btfss	indf2,1,c
  6348   0023BA  EFE1  F011         	goto	u4381
  6349   0023BE  EFE3  F011         	goto	u4380
  6350   0023C2                     u4381:
  6351   0023C2  EFF6  F011         	goto	l5787
  6352   0023C6                     u4380:
  6353   0023C6                     l5785:
  6354                           
  6355                           ;MCAL_Layer/ADC/hal_adc.c: 188:             *conversion_result = (adc_result_t)((ADRESH 
      +                          << 8) + ADRESL);
  6356   0023C6  50C3               	movf	195,w,c	;volatile
  6357   0023C8  CFC4 F03C          	movff	4036,??_ADC_GetConversionResult	;volatile
  6358   0023CC  6A3D               	clrf	(??_ADC_GetConversionResult+1)^0,c
  6359   0023CE  C03C  F03D         	movff	??_ADC_GetConversionResult,??_ADC_GetConversionResult+1
  6360   0023D2  6A3C               	clrf	??_ADC_GetConversionResult^0,c
  6361   0023D4  263C               	addwf	??_ADC_GetConversionResult^0,f,c
  6362   0023D6  0E00               	movlw	0
  6363   0023D8  223D               	addwfc	(??_ADC_GetConversionResult+1)^0,f,c
  6364   0023DA  503B               	movf	ADC_GetConversionResult@conversion_result^0,w,c
  6365   0023DC  6ED9               	movwf	fsr2l,c
  6366   0023DE  6ADA               	clrf	fsr2h,c
  6367   0023E0  C03C  FFDE         	movff	??_ADC_GetConversionResult,postinc2
  6368   0023E4  C03D  FFDD         	movff	??_ADC_GetConversionResult+1,postdec2
  6369                           
  6370                           ;MCAL_Layer/ADC/hal_adc.c: 189:         }
  6371   0023E8  EF1B  F012         	goto	l5793
  6372   0023EC                     l5787:
  6373   0023EC  503A               	movf	ADC_GetConversionResult@_adc^0,w,c
  6374   0023EE  6ED9               	movwf	fsr2l,c
  6375   0023F0  6ADA               	clrf	fsr2h,c
  6376   0023F2  0E06               	movlw	6
  6377   0023F4  26D9               	addwf	fsr2l,f,c
  6378   0023F6  B2DF               	btfsc	indf2,1,c
  6379   0023F8  EF00  F012         	goto	u4391
  6380   0023FC  EF02  F012         	goto	u4390
  6381   002400                     u4391:
  6382   002400  EFE3  F011         	goto	l5785
  6383   002404                     u4390:
  6384   002404                     
  6385                           ;MCAL_Layer/ADC/hal_adc.c: 191:             *conversion_result = (adc_result_t)(((ADRESH
      +                           << 8) + ADRESL) >> 6);
  6386   002404  50C3               	movf	195,w,c	;volatile
  6387   002406  CFC4 F03C          	movff	4036,??_ADC_GetConversionResult	;volatile
  6388   00240A  6A3D               	clrf	(??_ADC_GetConversionResult+1)^0,c
  6389   00240C  C03C  F03D         	movff	??_ADC_GetConversionResult,??_ADC_GetConversionResult+1
  6390   002410  6A3C               	clrf	??_ADC_GetConversionResult^0,c
  6391   002412  263C               	addwf	??_ADC_GetConversionResult^0,f,c
  6392   002414  0E00               	movlw	0
  6393   002416  223D               	addwfc	(??_ADC_GetConversionResult+1)^0,f,c
  6394   002418  0E06               	movlw	6
  6395   00241A  6E3E               	movwf	(??_ADC_GetConversionResult+2)^0,c
  6396   00241C                     u4405:
  6397   00241C  343D               	rlcf	(??_ADC_GetConversionResult+1)^0,w,c
  6398   00241E  323D               	rrcf	(??_ADC_GetConversionResult+1)^0,f,c
  6399   002420  323C               	rrcf	??_ADC_GetConversionResult^0,f,c
  6400   002422  2E3E               	decfsz	(??_ADC_GetConversionResult+2)^0,f,c
  6401   002424  EF0E  F012         	goto	u4405
  6402   002428  503B               	movf	ADC_GetConversionResult@conversion_result^0,w,c
  6403   00242A  6ED9               	movwf	fsr2l,c
  6404   00242C  6ADA               	clrf	fsr2h,c
  6405   00242E  C03C  FFDE         	movff	??_ADC_GetConversionResult,postinc2
  6406   002432  C03D  FFDD         	movff	??_ADC_GetConversionResult+1,postdec2
  6407   002436                     l5793:
  6408                           
  6409                           ;MCAL_Layer/ADC/hal_adc.c: 196:         ret = (std_ReturnType) 0x01;
  6410   002436  0E01               	movlw	1
  6411   002438  6E3F               	movwf	ADC_GetConversionResult@ret^0,c
  6412   00243A                     l5795:
  6413                           
  6414                           ;MCAL_Layer/ADC/hal_adc.c: 198:     return ret;
  6415   00243A  503F               	movf	ADC_GetConversionResult@ret^0,w,c
  6416   00243C  0012               	return		;funcret
  6417   00243E                     __end_of_ADC_GetConversionResult:
  6418                           	callstack 0
  6419                           
  6420 ;; *************** function _InterruptManager *****************
  6421 ;; Defined at:
  6422 ;;		line 33 in file "MCAL_Layer/Interrupt/mcal_interrupt_manager.c"
  6423 ;; Parameters:    Size  Location     Type
  6424 ;;		None
  6425 ;; Auto vars:     Size  Location     Type
  6426 ;;		None
  6427 ;; Return value:  Size  Location     Type
  6428 ;;                  1    wreg      void 
  6429 ;; Registers used:
  6430 ;;		wreg, status,2, status,0, cstack
  6431 ;; Tracked objects:
  6432 ;;		On entry : 0/0
  6433 ;;		On exit  : 0/0
  6434 ;;		Unchanged: 0/0
  6435 ;; Data sizes:     COMRAM   BANK0   BANK1   BANK2   BANK3   BANK4   BANK5   BANK6   BANK7   BANK8   BANK9  BANK10  BANK1
      +1  BANK12  BANK13  BANK14  BANK15
  6436 ;;      Params:         0       0       0       0       0       0       0       0       0       0       0       0       
      +0       0       0       0       0
  6437 ;;      Locals:         0       0       0       0       0       0       0       0       0       0       0       0       
      +0       0       0       0       0
  6438 ;;      Temps:          0       0       0       0       0       0       0       0       0       0       0       0       
      +0       0       0       0       0
  6439 ;;      Totals:         0       0       0       0       0       0       0       0       0       0       0       0       
      +0       0       0       0       0
  6440 ;;Total ram usage:        0 bytes
  6441 ;; Hardware stack levels used: 1
  6442 ;; Hardware stack levels required when called: 1
  6443 ;; This function calls:
  6444 ;;		_ADC_ISR
  6445 ;;		_CCP1_ISR
  6446 ;;		_CCP2_ISR
  6447 ;;		_EUSART_RX_ISR
  6448 ;;		_EUSART_TX_ISR
  6449 ;;		_INT0_ISR
  6450 ;;		_INT1_ISR
  6451 ;;		_INT2_ISR
  6452 ;;		_MSSP_SPI_ISR
  6453 ;;		_RB4_ISR
  6454 ;;		_RB5_ISR
  6455 ;;		_RB6_ISR
  6456 ;;		_RB7_ISR
  6457 ;;		_TMR0_ISR
  6458 ;;		_TMR1_ISR
  6459 ;;		_TMR2_ISR
  6460 ;;		_TMR3_ISR
  6461 ;; This function is called by:
  6462 ;;		Interrupt level 2
  6463 ;; This function uses a non-reentrant model
  6464 ;;
  6465                           
  6466                           	psect	intcode
  6467   000008                     __pintcode:
  6468                           	callstack 0
  6469   000008                     _InterruptManager:
  6470                           	callstack 23
  6471                           
  6472                           ;incstack = 0
  6473   000008  827B               	bsf	int$flags,1,c	;set compiler interrupt flag (level 2)
  6474   00000A  ED2E  F00A         	call	int_func,f	;refresh shadow registers
  6475                           
  6476                           	psect	intcode_body
  6477   00145C                     __pintcode_body:
  6478                           	callstack 23
  6479   00145C                     int_func:
  6480                           	callstack 23
  6481   00145C  0006               	pop		; remove dummy address from shadow register refresh
  6482   00145E                     
  6483                           ;MCAL_Layer/Interrupt/mcal_interrupt_manager.c: 35:     if((1 == INTCONbits.INT0IE) && (
      +                          1 == INTCONbits.INT0IF)){
  6484   00145E  A8F2               	btfss	242,4,c	;volatile
  6485   001460  EF34  F00A         	goto	i2u569_41
  6486   001464  EF36  F00A         	goto	i2u569_40
  6487   001468                     i2u569_41:
  6488   001468  EF3F  F00A         	goto	i2l1026
  6489   00146C                     i2u569_40:
  6490   00146C  A2F2               	btfss	242,1,c	;volatile
  6491   00146E  EF3B  F00A         	goto	i2u570_41
  6492   001472  EF3D  F00A         	goto	i2u570_40
  6493   001476                     i2u570_41:
  6494   001476  EF3F  F00A         	goto	i2l1026
  6495   00147A                     i2u570_40:
  6496   00147A                     
  6497                           ;MCAL_Layer/Interrupt/mcal_interrupt_manager.c: 36:         INT0_ISR();
  6498   00147A  ECBB  F017         	call	_INT0_ISR	;wreg free
  6499   00147E                     i2l1026:
  6500                           
  6501                           ;MCAL_Layer/Interrupt/mcal_interrupt_manager.c: 39:     if((1 == INTCON3bits.INT1E) && (
      +                          1 == INTCON3bits.INT1F)){
  6502   00147E  A6F0               	btfss	240,3,c	;volatile
  6503   001480  EF44  F00A         	goto	i2u571_41
  6504   001484  EF46  F00A         	goto	i2u571_40
  6505   001488                     i2u571_41:
  6506   001488  EF4F  F00A         	goto	i2l1028
  6507   00148C                     i2u571_40:
  6508   00148C  A0F0               	btfss	240,0,c	;volatile
  6509   00148E  EF4B  F00A         	goto	i2u572_41
  6510   001492  EF4D  F00A         	goto	i2u572_40
  6511   001496                     i2u572_41:
  6512   001496  EF4F  F00A         	goto	i2l1028
  6513   00149A                     i2u572_40:
  6514   00149A                     
  6515                           ;MCAL_Layer/Interrupt/mcal_interrupt_manager.c: 40:         INT1_ISR();
  6516   00149A  ECB9  F017         	call	_INT1_ISR	;wreg free
  6517   00149E                     i2l1028:
  6518                           
  6519                           ;MCAL_Layer/Interrupt/mcal_interrupt_manager.c: 43:     if((1 == INTCON3bits.INT2IE) && 
      +                          (1 == INTCON3bits.INT2IF)){
  6520   00149E  A8F0               	btfss	240,4,c	;volatile
  6521   0014A0  EF54  F00A         	goto	i2u573_41
  6522   0014A4  EF56  F00A         	goto	i2u573_40
  6523   0014A8                     i2u573_41:
  6524   0014A8  EF5F  F00A         	goto	i2l1030
  6525   0014AC                     i2u573_40:
  6526   0014AC  A2F0               	btfss	240,1,c	;volatile
  6527   0014AE  EF5B  F00A         	goto	i2u574_41
  6528   0014B2  EF5D  F00A         	goto	i2u574_40
  6529   0014B6                     i2u574_41:
  6530   0014B6  EF5F  F00A         	goto	i2l1030
  6531   0014BA                     i2u574_40:
  6532   0014BA                     
  6533                           ;MCAL_Layer/Interrupt/mcal_interrupt_manager.c: 44:         INT2_ISR();
  6534   0014BA  ECB7  F017         	call	_INT2_ISR	;wreg free
  6535   0014BE                     i2l1030:
  6536                           
  6537                           ;MCAL_Layer/Interrupt/mcal_interrupt_manager.c: 50:     if((1 == INTCONbits.RBIE) && (1 
      +                          == INTCONbits.RBIF) &&
  6538   0014BE  A6F2               	btfss	242,3,c	;volatile
  6539   0014C0  EF64  F00A         	goto	i2u575_41
  6540   0014C4  EF66  F00A         	goto	i2u575_40
  6541   0014C8                     i2u575_41:
  6542   0014C8  EF81  F00A         	goto	i2l1032
  6543   0014CC                     i2u575_40:
  6544   0014CC  A0F2               	btfss	242,0,c	;volatile
  6545   0014CE  EF6B  F00A         	goto	i2u576_41
  6546   0014D2  EF6D  F00A         	goto	i2u576_40
  6547   0014D6                     i2u576_41:
  6548   0014D6  EF81  F00A         	goto	i2l1032
  6549   0014DA                     i2u576_40:
  6550   0014DA  A881               	btfss	129,4,c	;volatile
  6551   0014DC  EF72  F00A         	goto	i2u577_41
  6552   0014E0  EF74  F00A         	goto	i2u577_40
  6553   0014E4                     i2u577_41:
  6554   0014E4  EF81  F00A         	goto	i2l1032
  6555   0014E8                     i2u577_40:
  6556   0014E8  0475               	decf	_RB4_Flag^0,w,c	;volatile
  6557   0014EA  A4D8               	btfss	status,2,c
  6558   0014EC  EF7A  F00A         	goto	i2u578_41
  6559   0014F0  EF7C  F00A         	goto	i2u578_40
  6560   0014F4                     i2u578_41:
  6561   0014F4  EF81  F00A         	goto	i2l1032
  6562   0014F8                     i2u578_40:
  6563   0014F8                     
  6564                           ;MCAL_Layer/Interrupt/mcal_interrupt_manager.c: 51:        (PORTBbits.RB4 == 0x01) && (R
      +                          B4_Flag == 1)){;MCAL_Layer/Interrupt/mcal_interrupt_manager.c: 52:         RB4_Flag = 0;
  6565   0014F8  0E00               	movlw	0
  6566   0014FA  6E75               	movwf	_RB4_Flag^0,c	;volatile
  6567   0014FC                     
  6568                           ;MCAL_Layer/Interrupt/mcal_interrupt_manager.c: 53:         RB4_ISR(0);
  6569   0014FC  0E00               	movlw	0
  6570   0014FE  EC87  F017         	call	_RB4_ISR
  6571   001502                     i2l1032:
  6572                           
  6573                           ;MCAL_Layer/Interrupt/mcal_interrupt_manager.c: 56:     if((1 == INTCONbits.RBIE) && (1 
      +                          == INTCONbits.RBIF) &&
  6574   001502  A6F2               	btfss	242,3,c	;volatile
  6575   001504  EF86  F00A         	goto	i2u579_41
  6576   001508  EF88  F00A         	goto	i2u579_40
  6577   00150C                     i2u579_41:
  6578   00150C  EFA3  F00A         	goto	i2l1034
  6579   001510                     i2u579_40:
  6580   001510  A0F2               	btfss	242,0,c	;volatile
  6581   001512  EF8D  F00A         	goto	i2u580_41
  6582   001516  EF8F  F00A         	goto	i2u580_40
  6583   00151A                     i2u580_41:
  6584   00151A  EFA3  F00A         	goto	i2l1034
  6585   00151E                     i2u580_40:
  6586   00151E  B881               	btfsc	129,4,c	;volatile
  6587   001520  EF94  F00A         	goto	i2u581_41
  6588   001524  EF96  F00A         	goto	i2u581_40
  6589   001528                     i2u581_41:
  6590   001528  EFA3  F00A         	goto	i2l1034
  6591   00152C                     i2u581_40:
  6592   00152C  5075               	movf	_RB4_Flag^0,w,c	;volatile
  6593   00152E  A4D8               	btfss	status,2,c
  6594   001530  EF9C  F00A         	goto	i2u582_41
  6595   001534  EF9E  F00A         	goto	i2u582_40
  6596   001538                     i2u582_41:
  6597   001538  EFA3  F00A         	goto	i2l1034
  6598   00153C                     i2u582_40:
  6599   00153C                     
  6600                           ;MCAL_Layer/Interrupt/mcal_interrupt_manager.c: 57:        (PORTBbits.RB4 == 0x00) && (R
      +                          B4_Flag == 0)){;MCAL_Layer/Interrupt/mcal_interrupt_manager.c: 58:         RB4_Flag = 1;
  6601   00153C  0E01               	movlw	1
  6602   00153E  6E75               	movwf	_RB4_Flag^0,c	;volatile
  6603   001540                     
  6604                           ;MCAL_Layer/Interrupt/mcal_interrupt_manager.c: 59:         RB4_ISR(1);
  6605   001540  0E01               	movlw	1
  6606   001542  EC87  F017         	call	_RB4_ISR
  6607   001546                     i2l1034:
  6608                           
  6609                           ;MCAL_Layer/Interrupt/mcal_interrupt_manager.c: 62:     if((1 == INTCONbits.RBIE) && (1 
      +                          == INTCONbits.RBIF) &&
  6610   001546  A6F2               	btfss	242,3,c	;volatile
  6611   001548  EFA8  F00A         	goto	i2u583_41
  6612   00154C  EFAA  F00A         	goto	i2u583_40
  6613   001550                     i2u583_41:
  6614   001550  EFC5  F00A         	goto	i2l1036
  6615   001554                     i2u583_40:
  6616   001554  A0F2               	btfss	242,0,c	;volatile
  6617   001556  EFAF  F00A         	goto	i2u584_41
  6618   00155A  EFB1  F00A         	goto	i2u584_40
  6619   00155E                     i2u584_41:
  6620   00155E  EFC5  F00A         	goto	i2l1036
  6621   001562                     i2u584_40:
  6622   001562  AA81               	btfss	129,5,c	;volatile
  6623   001564  EFB6  F00A         	goto	i2u585_41
  6624   001568  EFB8  F00A         	goto	i2u585_40
  6625   00156C                     i2u585_41:
  6626   00156C  EFC5  F00A         	goto	i2l1036
  6627   001570                     i2u585_40:
  6628   001570  0474               	decf	_RB5_Flag^0,w,c	;volatile
  6629   001572  A4D8               	btfss	status,2,c
  6630   001574  EFBE  F00A         	goto	i2u586_41
  6631   001578  EFC0  F00A         	goto	i2u586_40
  6632   00157C                     i2u586_41:
  6633   00157C  EFC5  F00A         	goto	i2l1036
  6634   001580                     i2u586_40:
  6635   001580                     
  6636                           ;MCAL_Layer/Interrupt/mcal_interrupt_manager.c: 63:        (PORTBbits.RB5 == 0x01) && (R
      +                          B5_Flag == 1)){;MCAL_Layer/Interrupt/mcal_interrupt_manager.c: 64:         RB5_Flag = 0;
  6637   001580  0E00               	movlw	0
  6638   001582  6E74               	movwf	_RB5_Flag^0,c	;volatile
  6639   001584                     
  6640                           ;MCAL_Layer/Interrupt/mcal_interrupt_manager.c: 65:         RB5_ISR(0);
  6641   001584  0E00               	movlw	0
  6642   001586  EC7A  F017         	call	_RB5_ISR
  6643   00158A                     i2l1036:
  6644                           
  6645                           ;MCAL_Layer/Interrupt/mcal_interrupt_manager.c: 68:     if((1 == INTCONbits.RBIE) && (1 
      +                          == INTCONbits.RBIF) &&
  6646   00158A  A6F2               	btfss	242,3,c	;volatile
  6647   00158C  EFCA  F00A         	goto	i2u587_41
  6648   001590  EFCC  F00A         	goto	i2u587_40
  6649   001594                     i2u587_41:
  6650   001594  EFE7  F00A         	goto	i2l1038
  6651   001598                     i2u587_40:
  6652   001598  A0F2               	btfss	242,0,c	;volatile
  6653   00159A  EFD1  F00A         	goto	i2u588_41
  6654   00159E  EFD3  F00A         	goto	i2u588_40
  6655   0015A2                     i2u588_41:
  6656   0015A2  EFE7  F00A         	goto	i2l1038
  6657   0015A6                     i2u588_40:
  6658   0015A6  BA81               	btfsc	129,5,c	;volatile
  6659   0015A8  EFD8  F00A         	goto	i2u589_41
  6660   0015AC  EFDA  F00A         	goto	i2u589_40
  6661   0015B0                     i2u589_41:
  6662   0015B0  EFE7  F00A         	goto	i2l1038
  6663   0015B4                     i2u589_40:
  6664   0015B4  5074               	movf	_RB5_Flag^0,w,c	;volatile
  6665   0015B6  A4D8               	btfss	status,2,c
  6666   0015B8  EFE0  F00A         	goto	i2u590_41
  6667   0015BC  EFE2  F00A         	goto	i2u590_40
  6668   0015C0                     i2u590_41:
  6669   0015C0  EFE7  F00A         	goto	i2l1038
  6670   0015C4                     i2u590_40:
  6671   0015C4                     
  6672                           ;MCAL_Layer/Interrupt/mcal_interrupt_manager.c: 69:        (PORTBbits.RB5 == 0x00) && (R
      +                          B5_Flag == 0)){;MCAL_Layer/Interrupt/mcal_interrupt_manager.c: 70:         RB5_Flag = 1;
  6673   0015C4  0E01               	movlw	1
  6674   0015C6  6E74               	movwf	_RB5_Flag^0,c	;volatile
  6675   0015C8                     
  6676                           ;MCAL_Layer/Interrupt/mcal_interrupt_manager.c: 71:         RB5_ISR(1);
  6677   0015C8  0E01               	movlw	1
  6678   0015CA  EC7A  F017         	call	_RB5_ISR
  6679   0015CE                     i2l1038:
  6680                           
  6681                           ;MCAL_Layer/Interrupt/mcal_interrupt_manager.c: 74:     if((1 == INTCONbits.RBIE) && (1 
      +                          == INTCONbits.RBIF) &&
  6682   0015CE  A6F2               	btfss	242,3,c	;volatile
  6683   0015D0  EFEC  F00A         	goto	i2u591_41
  6684   0015D4  EFEE  F00A         	goto	i2u591_40
  6685   0015D8                     i2u591_41:
  6686   0015D8  EF09  F00B         	goto	i2l1040
  6687   0015DC                     i2u591_40:
  6688   0015DC  A0F2               	btfss	242,0,c	;volatile
  6689   0015DE  EFF3  F00A         	goto	i2u592_41
  6690   0015E2  EFF5  F00A         	goto	i2u592_40
  6691   0015E6                     i2u592_41:
  6692   0015E6  EF09  F00B         	goto	i2l1040
  6693   0015EA                     i2u592_40:
  6694   0015EA  AC81               	btfss	129,6,c	;volatile
  6695   0015EC  EFFA  F00A         	goto	i2u593_41
  6696   0015F0  EFFC  F00A         	goto	i2u593_40
  6697   0015F4                     i2u593_41:
  6698   0015F4  EF09  F00B         	goto	i2l1040
  6699   0015F8                     i2u593_40:
  6700   0015F8  0473               	decf	_RB6_Flag^0,w,c	;volatile
  6701   0015FA  A4D8               	btfss	status,2,c
  6702   0015FC  EF02  F00B         	goto	i2u594_41
  6703   001600  EF04  F00B         	goto	i2u594_40
  6704   001604                     i2u594_41:
  6705   001604  EF09  F00B         	goto	i2l1040
  6706   001608                     i2u594_40:
  6707   001608                     
  6708                           ;MCAL_Layer/Interrupt/mcal_interrupt_manager.c: 75:        (PORTBbits.RB6 == 0x01) && (R
      +                          B6_Flag == 1)){;MCAL_Layer/Interrupt/mcal_interrupt_manager.c: 76:         RB6_Flag = 0;
  6709   001608  0E00               	movlw	0
  6710   00160A  6E73               	movwf	_RB6_Flag^0,c	;volatile
  6711   00160C                     
  6712                           ;MCAL_Layer/Interrupt/mcal_interrupt_manager.c: 77:         RB6_ISR(0);
  6713   00160C  0E00               	movlw	0
  6714   00160E  EC6D  F017         	call	_RB6_ISR
  6715   001612                     i2l1040:
  6716                           
  6717                           ;MCAL_Layer/Interrupt/mcal_interrupt_manager.c: 80:     if((1 == INTCONbits.RBIE) && (1 
      +                          == INTCONbits.RBIF) &&
  6718   001612  A6F2               	btfss	242,3,c	;volatile
  6719   001614  EF0E  F00B         	goto	i2u595_41
  6720   001618  EF10  F00B         	goto	i2u595_40
  6721   00161C                     i2u595_41:
  6722   00161C  EF2B  F00B         	goto	i2l1042
  6723   001620                     i2u595_40:
  6724   001620  A0F2               	btfss	242,0,c	;volatile
  6725   001622  EF15  F00B         	goto	i2u596_41
  6726   001626  EF17  F00B         	goto	i2u596_40
  6727   00162A                     i2u596_41:
  6728   00162A  EF2B  F00B         	goto	i2l1042
  6729   00162E                     i2u596_40:
  6730   00162E  BC81               	btfsc	129,6,c	;volatile
  6731   001630  EF1C  F00B         	goto	i2u597_41
  6732   001634  EF1E  F00B         	goto	i2u597_40
  6733   001638                     i2u597_41:
  6734   001638  EF2B  F00B         	goto	i2l1042
  6735   00163C                     i2u597_40:
  6736   00163C  5073               	movf	_RB6_Flag^0,w,c	;volatile
  6737   00163E  A4D8               	btfss	status,2,c
  6738   001640  EF24  F00B         	goto	i2u598_41
  6739   001644  EF26  F00B         	goto	i2u598_40
  6740   001648                     i2u598_41:
  6741   001648  EF2B  F00B         	goto	i2l1042
  6742   00164C                     i2u598_40:
  6743   00164C                     
  6744                           ;MCAL_Layer/Interrupt/mcal_interrupt_manager.c: 81:        (PORTBbits.RB6 == 0x00) && (R
      +                          B6_Flag == 0)){;MCAL_Layer/Interrupt/mcal_interrupt_manager.c: 82:         RB6_Flag = 1;
  6745   00164C  0E01               	movlw	1
  6746   00164E  6E73               	movwf	_RB6_Flag^0,c	;volatile
  6747   001650                     
  6748                           ;MCAL_Layer/Interrupt/mcal_interrupt_manager.c: 83:         RB6_ISR(1);
  6749   001650  0E01               	movlw	1
  6750   001652  EC6D  F017         	call	_RB6_ISR
  6751   001656                     i2l1042:
  6752                           
  6753                           ;MCAL_Layer/Interrupt/mcal_interrupt_manager.c: 86:     if((1 == INTCONbits.RBIE) && (1 
      +                          == INTCONbits.RBIF) &&
  6754   001656  A6F2               	btfss	242,3,c	;volatile
  6755   001658  EF30  F00B         	goto	i2u599_41
  6756   00165C  EF32  F00B         	goto	i2u599_40
  6757   001660                     i2u599_41:
  6758   001660  EF4D  F00B         	goto	i2l1044
  6759   001664                     i2u599_40:
  6760   001664  A0F2               	btfss	242,0,c	;volatile
  6761   001666  EF37  F00B         	goto	i2u600_41
  6762   00166A  EF39  F00B         	goto	i2u600_40
  6763   00166E                     i2u600_41:
  6764   00166E  EF4D  F00B         	goto	i2l1044
  6765   001672                     i2u600_40:
  6766   001672  AE81               	btfss	129,7,c	;volatile
  6767   001674  EF3E  F00B         	goto	i2u601_41
  6768   001678  EF40  F00B         	goto	i2u601_40
  6769   00167C                     i2u601_41:
  6770   00167C  EF4D  F00B         	goto	i2l1044
  6771   001680                     i2u601_40:
  6772   001680  0472               	decf	_RB7_Flag^0,w,c	;volatile
  6773   001682  A4D8               	btfss	status,2,c
  6774   001684  EF46  F00B         	goto	i2u602_41
  6775   001688  EF48  F00B         	goto	i2u602_40
  6776   00168C                     i2u602_41:
  6777   00168C  EF4D  F00B         	goto	i2l1044
  6778   001690                     i2u602_40:
  6779   001690                     
  6780                           ;MCAL_Layer/Interrupt/mcal_interrupt_manager.c: 87:        (PORTBbits.RB7 == 0x01) && (R
      +                          B7_Flag == 1)){;MCAL_Layer/Interrupt/mcal_interrupt_manager.c: 88:         RB7_Flag = 0;
  6781   001690  0E00               	movlw	0
  6782   001692  6E72               	movwf	_RB7_Flag^0,c	;volatile
  6783   001694                     
  6784                           ;MCAL_Layer/Interrupt/mcal_interrupt_manager.c: 89:         RB7_ISR(0);
  6785   001694  0E00               	movlw	0
  6786   001696  EC60  F017         	call	_RB7_ISR
  6787   00169A                     i2l1044:
  6788                           
  6789                           ;MCAL_Layer/Interrupt/mcal_interrupt_manager.c: 92:     if((1 == INTCONbits.RBIE) && (1 
      +                          == INTCONbits.RBIF) &&
  6790   00169A  A6F2               	btfss	242,3,c	;volatile
  6791   00169C  EF52  F00B         	goto	i2u603_41
  6792   0016A0  EF54  F00B         	goto	i2u603_40
  6793   0016A4                     i2u603_41:
  6794   0016A4  EF6F  F00B         	goto	i2l1046
  6795   0016A8                     i2u603_40:
  6796   0016A8  A0F2               	btfss	242,0,c	;volatile
  6797   0016AA  EF59  F00B         	goto	i2u604_41
  6798   0016AE  EF5B  F00B         	goto	i2u604_40
  6799   0016B2                     i2u604_41:
  6800   0016B2  EF6F  F00B         	goto	i2l1046
  6801   0016B6                     i2u604_40:
  6802   0016B6  BE81               	btfsc	129,7,c	;volatile
  6803   0016B8  EF60  F00B         	goto	i2u605_41
  6804   0016BC  EF62  F00B         	goto	i2u605_40
  6805   0016C0                     i2u605_41:
  6806   0016C0  EF6F  F00B         	goto	i2l1046
  6807   0016C4                     i2u605_40:
  6808   0016C4  5072               	movf	_RB7_Flag^0,w,c	;volatile
  6809   0016C6  A4D8               	btfss	status,2,c
  6810   0016C8  EF68  F00B         	goto	i2u606_41
  6811   0016CC  EF6A  F00B         	goto	i2u606_40
  6812   0016D0                     i2u606_41:
  6813   0016D0  EF6F  F00B         	goto	i2l1046
  6814   0016D4                     i2u606_40:
  6815   0016D4                     
  6816                           ;MCAL_Layer/Interrupt/mcal_interrupt_manager.c: 93:        (PORTBbits.RB7 == 0x00) && (R
      +                          B7_Flag == 0)){;MCAL_Layer/Interrupt/mcal_interrupt_manager.c: 94:         RB7_Flag = 1;
  6817   0016D4  0E01               	movlw	1
  6818   0016D6  6E72               	movwf	_RB7_Flag^0,c	;volatile
  6819   0016D8                     
  6820                           ;MCAL_Layer/Interrupt/mcal_interrupt_manager.c: 95:         RB7_ISR(1);
  6821   0016D8  0E01               	movlw	1
  6822   0016DA  EC60  F017         	call	_RB7_ISR
  6823   0016DE                     i2l1046:
  6824                           
  6825                           ;MCAL_Layer/Interrupt/mcal_interrupt_manager.c: 99:     if((1 == PIE1bits.ADIE) && (1 ==
      +                           PIR1bits.ADIF)){
  6826   0016DE  AC9D               	btfss	157,6,c	;volatile
  6827   0016E0  EF74  F00B         	goto	i2u607_41
  6828   0016E4  EF76  F00B         	goto	i2u607_40
  6829   0016E8                     i2u607_41:
  6830   0016E8  EF7F  F00B         	goto	i2l1048
  6831   0016EC                     i2u607_40:
  6832   0016EC  AC9E               	btfss	158,6,c	;volatile
  6833   0016EE  EF7B  F00B         	goto	i2u608_41
  6834   0016F2  EF7D  F00B         	goto	i2u608_40
  6835   0016F6                     i2u608_41:
  6836   0016F6  EF7F  F00B         	goto	i2l1048
  6837   0016FA                     i2u608_40:
  6838   0016FA                     
  6839                           ;MCAL_Layer/Interrupt/mcal_interrupt_manager.c: 100:         ADC_ISR();
  6840   0016FA  ECC3  F017         	call	_ADC_ISR	;wreg free
  6841   0016FE                     i2l1048:
  6842                           
  6843                           ;MCAL_Layer/Interrupt/mcal_interrupt_manager.c: 103:     if((1 == INTCONbits.TMR0IE) && 
      +                          (1 == INTCONbits.TMR0IF)){
  6844   0016FE  AAF2               	btfss	242,5,c	;volatile
  6845   001700  EF84  F00B         	goto	i2u609_41
  6846   001704  EF86  F00B         	goto	i2u609_40
  6847   001708                     i2u609_41:
  6848   001708  EF8F  F00B         	goto	i2l1050
  6849   00170C                     i2u609_40:
  6850   00170C  A4F2               	btfss	242,2,c	;volatile
  6851   00170E  EF8B  F00B         	goto	i2u610_41
  6852   001712  EF8D  F00B         	goto	i2u610_40
  6853   001716                     i2u610_41:
  6854   001716  EF8F  F00B         	goto	i2l1050
  6855   00171A                     i2u610_40:
  6856   00171A                     
  6857                           ;MCAL_Layer/Interrupt/mcal_interrupt_manager.c: 104:         TMR0_ISR();
  6858   00171A  ECA8  F017         	call	_TMR0_ISR	;wreg free
  6859   00171E                     i2l1050:
  6860                           
  6861                           ;MCAL_Layer/Interrupt/mcal_interrupt_manager.c: 108:     if((1 == PIE1bits.TMR1IE) && (1
      +                           == PIR1bits.TMR1IF)){
  6862   00171E  A09D               	btfss	157,0,c	;volatile
  6863   001720  EF94  F00B         	goto	i2u611_41
  6864   001724  EF96  F00B         	goto	i2u611_40
  6865   001728                     i2u611_41:
  6866   001728  EF9F  F00B         	goto	i2l1052
  6867   00172C                     i2u611_40:
  6868   00172C  A09E               	btfss	158,0,c	;volatile
  6869   00172E  EF9B  F00B         	goto	i2u612_41
  6870   001732  EF9D  F00B         	goto	i2u612_40
  6871   001736                     i2u612_41:
  6872   001736  EF9F  F00B         	goto	i2l1052
  6873   00173A                     i2u612_40:
  6874   00173A                     
  6875                           ;MCAL_Layer/Interrupt/mcal_interrupt_manager.c: 109:         TMR1_ISR();
  6876   00173A  ECA2  F017         	call	_TMR1_ISR	;wreg free
  6877   00173E                     i2l1052:
  6878                           
  6879                           ;MCAL_Layer/Interrupt/mcal_interrupt_manager.c: 112:     if((1 == PIE1bits.TMR2IE) && (1
      +                           == PIR1bits.TMR2IF)){
  6880   00173E  A29D               	btfss	157,1,c	;volatile
  6881   001740  EFA4  F00B         	goto	i2u613_41
  6882   001744  EFA6  F00B         	goto	i2u613_40
  6883   001748                     i2u613_41:
  6884   001748  EFAF  F00B         	goto	i2l1054
  6885   00174C                     i2u613_40:
  6886   00174C  A29E               	btfss	158,1,c	;volatile
  6887   00174E  EFAB  F00B         	goto	i2u614_41
  6888   001752  EFAD  F00B         	goto	i2u614_40
  6889   001756                     i2u614_41:
  6890   001756  EFAF  F00B         	goto	i2l1054
  6891   00175A                     i2u614_40:
  6892   00175A                     
  6893                           ;MCAL_Layer/Interrupt/mcal_interrupt_manager.c: 113:         TMR2_ISR();
  6894   00175A  ECAE  F017         	call	_TMR2_ISR	;wreg free
  6895   00175E                     i2l1054:
  6896                           
  6897                           ;MCAL_Layer/Interrupt/mcal_interrupt_manager.c: 116:     if((1 == PIE2bits.TMR3IE) && (1
      +                           == PIR2bits.TMR3IF)){
  6898   00175E  A2A0               	btfss	160,1,c	;volatile
  6899   001760  EFB4  F00B         	goto	i2u615_41
  6900   001764  EFB6  F00B         	goto	i2u615_40
  6901   001768                     i2u615_41:
  6902   001768  EFBF  F00B         	goto	i2l1056
  6903   00176C                     i2u615_40:
  6904   00176C  A2A1               	btfss	161,1,c	;volatile
  6905   00176E  EFBB  F00B         	goto	i2u616_41
  6906   001772  EFBD  F00B         	goto	i2u616_40
  6907   001776                     i2u616_41:
  6908   001776  EFBF  F00B         	goto	i2l1056
  6909   00177A                     i2u616_40:
  6910   00177A                     
  6911                           ;MCAL_Layer/Interrupt/mcal_interrupt_manager.c: 117:         TMR3_ISR();
  6912   00177A  EC9C  F017         	call	_TMR3_ISR	;wreg free
  6913   00177E                     i2l1056:
  6914                           
  6915                           ;MCAL_Layer/Interrupt/mcal_interrupt_manager.c: 120:     if((1 == PIE1bits.CCP1IE) && (1
      +                           == PIR1bits.CCP1IF)){
  6916   00177E  A49D               	btfss	157,2,c	;volatile
  6917   001780  EFC4  F00B         	goto	i2u617_41
  6918   001784  EFC6  F00B         	goto	i2u617_40
  6919   001788                     i2u617_41:
  6920   001788  EFCF  F00B         	goto	i2l1058
  6921   00178C                     i2u617_40:
  6922   00178C  A49E               	btfss	158,2,c	;volatile
  6923   00178E  EFCB  F00B         	goto	i2u618_41
  6924   001792  EFCD  F00B         	goto	i2u618_40
  6925   001796                     i2u618_41:
  6926   001796  EFCF  F00B         	goto	i2l1058
  6927   00179A                     i2u618_40:
  6928   00179A                     
  6929                           ;MCAL_Layer/Interrupt/mcal_interrupt_manager.c: 121:         CCP1_ISR();
  6930   00179A  ECC1  F017         	call	_CCP1_ISR	;wreg free
  6931   00179E                     i2l1058:
  6932                           
  6933                           ;MCAL_Layer/Interrupt/mcal_interrupt_manager.c: 124:     if((1 == PIE2bits.CCP2IE) && (1
      +                           == PIR2bits.CCP2IF)){
  6934   00179E  A0A0               	btfss	160,0,c	;volatile
  6935   0017A0  EFD4  F00B         	goto	i2u619_41
  6936   0017A4  EFD6  F00B         	goto	i2u619_40
  6937   0017A8                     i2u619_41:
  6938   0017A8  EFDF  F00B         	goto	i2l1060
  6939   0017AC                     i2u619_40:
  6940   0017AC  A0A1               	btfss	161,0,c	;volatile
  6941   0017AE  EFDB  F00B         	goto	i2u620_41
  6942   0017B2  EFDD  F00B         	goto	i2u620_40
  6943   0017B6                     i2u620_41:
  6944   0017B6  EFDF  F00B         	goto	i2l1060
  6945   0017BA                     i2u620_40:
  6946   0017BA                     
  6947                           ;MCAL_Layer/Interrupt/mcal_interrupt_manager.c: 125:         CCP2_ISR();
  6948   0017BA  ECBF  F017         	call	_CCP2_ISR	;wreg free
  6949   0017BE                     i2l1060:
  6950                           
  6951                           ;MCAL_Layer/Interrupt/mcal_interrupt_manager.c: 128:         if((1 == PIE1bits.TXIE) && 
      +                          (1 == PIR1bits.TXIF)){
  6952   0017BE  A89D               	btfss	157,4,c	;volatile
  6953   0017C0  EFE4  F00B         	goto	i2u621_41
  6954   0017C4  EFE6  F00B         	goto	i2u621_40
  6955   0017C8                     i2u621_41:
  6956   0017C8  EFEF  F00B         	goto	i2l1062
  6957   0017CC                     i2u621_40:
  6958   0017CC  A89E               	btfss	158,4,c	;volatile
  6959   0017CE  EFEB  F00B         	goto	i2u622_41
  6960   0017D2  EFED  F00B         	goto	i2u622_40
  6961   0017D6                     i2u622_41:
  6962   0017D6  EFEF  F00B         	goto	i2l1062
  6963   0017DA                     i2u622_40:
  6964   0017DA                     
  6965                           ;MCAL_Layer/Interrupt/mcal_interrupt_manager.c: 129:         EUSART_TX_ISR();
  6966   0017DA  ECBD  F017         	call	_EUSART_TX_ISR	;wreg free
  6967   0017DE                     i2l1062:
  6968                           
  6969                           ;MCAL_Layer/Interrupt/mcal_interrupt_manager.c: 132:     if((1 == PIE1bits.RCIE) && (1 =
      +                          = PIR1bits.RCIF)){
  6970   0017DE  AA9D               	btfss	157,5,c	;volatile
  6971   0017E0  EFF4  F00B         	goto	i2u623_41
  6972   0017E4  EFF6  F00B         	goto	i2u623_40
  6973   0017E8                     i2u623_41:
  6974   0017E8  EFFF  F00B         	goto	i2l1064
  6975   0017EC                     i2u623_40:
  6976   0017EC  AA9E               	btfss	158,5,c	;volatile
  6977   0017EE  EFFB  F00B         	goto	i2u624_41
  6978   0017F2  EFFD  F00B         	goto	i2u624_40
  6979   0017F6                     i2u624_41:
  6980   0017F6  EFFF  F00B         	goto	i2l1064
  6981   0017FA                     i2u624_40:
  6982   0017FA                     
  6983                           ;MCAL_Layer/Interrupt/mcal_interrupt_manager.c: 133:         EUSART_RX_ISR();
  6984   0017FA  ECC6  F017         	call	_EUSART_RX_ISR	;wreg free
  6985   0017FE                     i2l1064:
  6986                           
  6987                           ;MCAL_Layer/Interrupt/mcal_interrupt_manager.c: 136:     if((1 == PIE1bits.SSPIE) && (1 
      +                          == PIR1bits.SSPIF)){
  6988   0017FE  A69D               	btfss	157,3,c	;volatile
  6989   001800  EF04  F00C         	goto	i2u625_41
  6990   001804  EF06  F00C         	goto	i2u625_40
  6991   001808                     i2u625_41:
  6992   001808  EF0F  F00C         	goto	i2l1067
  6993   00180C                     i2u625_40:
  6994   00180C  A69E               	btfss	158,3,c	;volatile
  6995   00180E  EF0B  F00C         	goto	i2u626_41
  6996   001812  EF0D  F00C         	goto	i2u626_40
  6997   001816                     i2u626_41:
  6998   001816  EF0F  F00C         	goto	i2l1067
  6999   00181A                     i2u626_40:
  7000   00181A                     
  7001                           ;MCAL_Layer/Interrupt/mcal_interrupt_manager.c: 137:         MSSP_SPI_ISR();
  7002   00181A  ECB5  F017         	call	_MSSP_SPI_ISR	;wreg free
  7003   00181E                     i2l1067:
  7004   00181E  927B               	bcf	int$flags,1,c	;clear compiler interrupt flag (level 2)
  7005   001820  0011               	retfie		f
  7006   001822                     __end_of_InterruptManager:
  7007                           	callstack 0
  7008                           
  7009 ;; *************** function _TMR3_ISR *****************
  7010 ;; Defined at:
  7011 ;;		line 119 in file "MCAL_Layer/Timer3/hal_timr3.c"
  7012 ;; Parameters:    Size  Location     Type
  7013 ;;		None
  7014 ;; Auto vars:     Size  Location     Type
  7015 ;;		None
  7016 ;; Return value:  Size  Location     Type
  7017 ;;                  1    wreg      void 
  7018 ;; Registers used:
  7019 ;;		wreg, status,2
  7020 ;; Tracked objects:
  7021 ;;		On entry : 0/0
  7022 ;;		On exit  : 0/0
  7023 ;;		Unchanged: 0/0
  7024 ;; Data sizes:     COMRAM   BANK0   BANK1   BANK2   BANK3   BANK4   BANK5   BANK6   BANK7   BANK8   BANK9  BANK10  BANK1
      +1  BANK12  BANK13  BANK14  BANK15
  7025 ;;      Params:         0       0       0       0       0       0       0       0       0       0       0       0       
      +0       0       0       0       0
  7026 ;;      Locals:         0       0       0       0       0       0       0       0       0       0       0       0       
      +0       0       0       0       0
  7027 ;;      Temps:          0       0       0       0       0       0       0       0       0       0       0       0       
      +0       0       0       0       0
  7028 ;;      Totals:         0       0       0       0       0       0       0       0       0       0       0       0       
      +0       0       0       0       0
  7029 ;;Total ram usage:        0 bytes
  7030 ;; Hardware stack levels used: 1
  7031 ;; This function calls:
  7032 ;;		Nothing
  7033 ;; This function is called by:
  7034 ;;		_InterruptManager
  7035 ;; This function uses a non-reentrant model
  7036 ;;
  7037                           
  7038                           	psect	text43
  7039   002F38                     __ptext43:
  7040                           	callstack 0
  7041   002F38                     _TMR3_ISR:
  7042                           	callstack 23
  7043   002F38                     
  7044                           ;MCAL_Layer/Timer3/hal_timr3.c: 120:     (PIR2bits.TMR3IF = 0);
  7045   002F38  92A1               	bcf	161,1,c	;volatile
  7046   002F3A                     
  7047                           ;MCAL_Layer/Timer3/hal_timr3.c: 121:     TMR3H = (timer3_preload) >> 8;
  7048   002F3A  5004               	movf	(_timer3_preload+1)^0,w,c
  7049   002F3C  6EB3               	movwf	179,c	;volatile
  7050   002F3E                     
  7051                           ;MCAL_Layer/Timer3/hal_timr3.c: 122:     TMR3L = (uint8)(timer3_preload);
  7052   002F3E  C003  FFB2         	movff	_timer3_preload,4018	;volatile
  7053   002F42  0012               	return		;funcret
  7054   002F44                     __end_of_TMR3_ISR:
  7055                           	callstack 0
  7056                           
  7057 ;; *************** function _TMR2_ISR *****************
  7058 ;; Defined at:
  7059 ;;		line 95 in file "MCAL_Layer/Timer2/hal_timr2.c"
  7060 ;; Parameters:    Size  Location     Type
  7061 ;;		None
  7062 ;; Auto vars:     Size  Location     Type
  7063 ;;		None
  7064 ;; Return value:  Size  Location     Type
  7065 ;;                  1    wreg      void 
  7066 ;; Registers used:
  7067 ;;		wreg, status,2
  7068 ;; Tracked objects:
  7069 ;;		On entry : 0/0
  7070 ;;		On exit  : 0/0
  7071 ;;		Unchanged: 0/0
  7072 ;; Data sizes:     COMRAM   BANK0   BANK1   BANK2   BANK3   BANK4   BANK5   BANK6   BANK7   BANK8   BANK9  BANK10  BANK1
      +1  BANK12  BANK13  BANK14  BANK15
  7073 ;;      Params:         0       0       0       0       0       0       0       0       0       0       0       0       
      +0       0       0       0       0
  7074 ;;      Locals:         0       0       0       0       0       0       0       0       0       0       0       0       
      +0       0       0       0       0
  7075 ;;      Temps:          0       0       0       0       0       0       0       0       0       0       0       0       
      +0       0       0       0       0
  7076 ;;      Totals:         0       0       0       0       0       0       0       0       0       0       0       0       
      +0       0       0       0       0
  7077 ;;Total ram usage:        0 bytes
  7078 ;; Hardware stack levels used: 1
  7079 ;; This function calls:
  7080 ;;		Nothing
  7081 ;; This function is called by:
  7082 ;;		_InterruptManager
  7083 ;; This function uses a non-reentrant model
  7084 ;;
  7085                           
  7086                           	psect	text44
  7087   002F5C                     __ptext44:
  7088                           	callstack 0
  7089   002F5C                     _TMR2_ISR:
  7090                           	callstack 23
  7091   002F5C                     
  7092                           ;MCAL_Layer/Timer2/hal_timr2.c: 96:     (PIR1bits.TMR2IF = 0);
  7093   002F5C  929E               	bcf	158,1,c	;volatile
  7094   002F5E                     
  7095                           ;MCAL_Layer/Timer2/hal_timr2.c: 97:     TMR1H = (timer2_preload) >> 8;
  7096   002F5E  0E00               	movlw	0
  7097   002F60  6ECF               	movwf	207,c	;volatile
  7098   002F62  0012               	return		;funcret
  7099   002F64                     __end_of_TMR2_ISR:
  7100                           	callstack 0
  7101                           
  7102 ;; *************** function _TMR1_ISR *****************
  7103 ;; Defined at:
  7104 ;;		line 102 in file "MCAL_Layer/Timer1/hal_timr1.c"
  7105 ;; Parameters:    Size  Location     Type
  7106 ;;		None
  7107 ;; Auto vars:     Size  Location     Type
  7108 ;;		None
  7109 ;; Return value:  Size  Location     Type
  7110 ;;                  1    wreg      void 
  7111 ;; Registers used:
  7112 ;;		wreg, status,2
  7113 ;; Tracked objects:
  7114 ;;		On entry : 0/0
  7115 ;;		On exit  : 0/0
  7116 ;;		Unchanged: 0/0
  7117 ;; Data sizes:     COMRAM   BANK0   BANK1   BANK2   BANK3   BANK4   BANK5   BANK6   BANK7   BANK8   BANK9  BANK10  BANK1
      +1  BANK12  BANK13  BANK14  BANK15
  7118 ;;      Params:         0       0       0       0       0       0       0       0       0       0       0       0       
      +0       0       0       0       0
  7119 ;;      Locals:         0       0       0       0       0       0       0       0       0       0       0       0       
      +0       0       0       0       0
  7120 ;;      Temps:          0       0       0       0       0       0       0       0       0       0       0       0       
      +0       0       0       0       0
  7121 ;;      Totals:         0       0       0       0       0       0       0       0       0       0       0       0       
      +0       0       0       0       0
  7122 ;;Total ram usage:        0 bytes
  7123 ;; Hardware stack levels used: 1
  7124 ;; This function calls:
  7125 ;;		Nothing
  7126 ;; This function is called by:
  7127 ;;		_InterruptManager
  7128 ;; This function uses a non-reentrant model
  7129 ;;
  7130                           
  7131                           	psect	text45
  7132   002F44                     __ptext45:
  7133                           	callstack 0
  7134   002F44                     _TMR1_ISR:
  7135                           	callstack 23
  7136   002F44                     
  7137                           ;MCAL_Layer/Timer1/hal_timr1.c: 103:     (PIR1bits.TMR1IF = 0);
  7138   002F44  909E               	bcf	158,0,c	;volatile
  7139   002F46                     
  7140                           ;MCAL_Layer/Timer1/hal_timr1.c: 104:     TMR1H = (timer1_preload) >> 8;
  7141   002F46  5008               	movf	(_timer1_preload+1)^0,w,c	;volatile
  7142   002F48  6ECF               	movwf	207,c	;volatile
  7143   002F4A                     
  7144                           ;MCAL_Layer/Timer1/hal_timr1.c: 105:     TMR1L = (uint8)(timer1_preload);
  7145   002F4A  C007  FFCE         	movff	_timer1_preload,4046	;volatile
  7146   002F4E  0012               	return		;funcret
  7147   002F50                     __end_of_TMR1_ISR:
  7148                           	callstack 0
  7149                           
  7150 ;; *************** function _TMR0_ISR *****************
  7151 ;; Defined at:
  7152 ;;		line 124 in file "MCAL_Layer/Timer0/hal_timr0.c"
  7153 ;; Parameters:    Size  Location     Type
  7154 ;;		None
  7155 ;; Auto vars:     Size  Location     Type
  7156 ;;		None
  7157 ;; Return value:  Size  Location     Type
  7158 ;;                  1    wreg      void 
  7159 ;; Registers used:
  7160 ;;		wreg, status,2
  7161 ;; Tracked objects:
  7162 ;;		On entry : 0/0
  7163 ;;		On exit  : 0/0
  7164 ;;		Unchanged: 0/0
  7165 ;; Data sizes:     COMRAM   BANK0   BANK1   BANK2   BANK3   BANK4   BANK5   BANK6   BANK7   BANK8   BANK9  BANK10  BANK1
      +1  BANK12  BANK13  BANK14  BANK15
  7166 ;;      Params:         0       0       0       0       0       0       0       0       0       0       0       0       
      +0       0       0       0       0
  7167 ;;      Locals:         0       0       0       0       0       0       0       0       0       0       0       0       
      +0       0       0       0       0
  7168 ;;      Temps:          0       0       0       0       0       0       0       0       0       0       0       0       
      +0       0       0       0       0
  7169 ;;      Totals:         0       0       0       0       0       0       0       0       0       0       0       0       
      +0       0       0       0       0
  7170 ;;Total ram usage:        0 bytes
  7171 ;; Hardware stack levels used: 1
  7172 ;; This function calls:
  7173 ;;		Nothing
  7174 ;; This function is called by:
  7175 ;;		_InterruptManager
  7176 ;; This function uses a non-reentrant model
  7177 ;;
  7178                           
  7179                           	psect	text46
  7180   002F50                     __ptext46:
  7181                           	callstack 0
  7182   002F50                     _TMR0_ISR:
  7183                           	callstack 23
  7184   002F50                     
  7185                           ;MCAL_Layer/Timer0/hal_timr0.c: 125:     (INTCONbits.TMR0IF = 0);
  7186   002F50  94F2               	bcf	242,2,c	;volatile
  7187   002F52                     
  7188                           ;MCAL_Layer/Timer0/hal_timr0.c: 126:     TMR0H = (timer0_preload) >> 8;
  7189   002F52  500C               	movf	(_timer0_preload+1)^0,w,c
  7190   002F54  6ED7               	movwf	215,c	;volatile
  7191   002F56                     
  7192                           ;MCAL_Layer/Timer0/hal_timr0.c: 127:     TMR0L = (uint8)(timer0_preload);
  7193   002F56  C00B  FFD6         	movff	_timer0_preload,4054	;volatile
  7194   002F5A  0012               	return		;funcret
  7195   002F5C                     __end_of_TMR0_ISR:
  7196                           	callstack 0
  7197                           
  7198 ;; *************** function _RB7_ISR *****************
  7199 ;; Defined at:
  7200 ;;		line 165 in file "MCAL_Layer/Interrupt/mcal_external_interrupt.c"
  7201 ;; Parameters:    Size  Location     Type
  7202 ;;  RB7_Source      1    wreg     unsigned char 
  7203 ;; Auto vars:     Size  Location     Type
  7204 ;;  RB7_Source      1    0[COMRAM] unsigned char 
  7205 ;; Return value:  Size  Location     Type
  7206 ;;                  1    wreg      void 
  7207 ;; Registers used:
  7208 ;;		wreg, status,2, status,0
  7209 ;; Tracked objects:
  7210 ;;		On entry : 0/0
  7211 ;;		On exit  : 0/0
  7212 ;;		Unchanged: 0/0
  7213 ;; Data sizes:     COMRAM   BANK0   BANK1   BANK2   BANK3   BANK4   BANK5   BANK6   BANK7   BANK8   BANK9  BANK10  BANK1
      +1  BANK12  BANK13  BANK14  BANK15
  7214 ;;      Params:         0       0       0       0       0       0       0       0       0       0       0       0       
      +0       0       0       0       0
  7215 ;;      Locals:         1       0       0       0       0       0       0       0       0       0       0       0       
      +0       0       0       0       0
  7216 ;;      Temps:          0       0       0       0       0       0       0       0       0       0       0       0       
      +0       0       0       0       0
  7217 ;;      Totals:         1       0       0       0       0       0       0       0       0       0       0       0       
      +0       0       0       0       0
  7218 ;;Total ram usage:        1 bytes
  7219 ;; Hardware stack levels used: 1
  7220 ;; This function calls:
  7221 ;;		Nothing
  7222 ;; This function is called by:
  7223 ;;		_InterruptManager
  7224 ;; This function uses a non-reentrant model
  7225 ;;
  7226                           
  7227                           	psect	text47
  7228   002EC0                     __ptext47:
  7229                           	callstack 0
  7230   002EC0                     _RB7_ISR:
  7231                           	callstack 23
  7232                           
  7233                           ;incstack = 0
  7234                           ;RB7_ISR@RB7_Source stored from wreg
  7235   002EC0  6E39               	movwf	RB7_ISR@RB7_Source^0,c
  7236   002EC2                     
  7237                           ;MCAL_Layer/Interrupt/mcal_external_interrupt.c: 167:     (INTCONbits.RBIF = 0);
  7238   002EC2  90F2               	bcf	242,0,c	;volatile
  7239   002EC4                     
  7240                           ;MCAL_Layer/Interrupt/mcal_external_interrupt.c: 170:     if(0 == RB7_Source){
  7241   002EC4  5039               	movf	RB7_ISR@RB7_Source^0,w,c
  7242   002EC6  A4D8               	btfss	status,2,c
  7243   002EC8  EF68  F017         	goto	i2u100_41
  7244   002ECC  EF6A  F017         	goto	i2u100_40
  7245   002ED0                     i2u100_41:
  7246   002ED0  EF6C  F017         	goto	i2l3197
  7247   002ED4                     i2u100_40:
  7248   002ED4  EF6C  F017         	goto	i2l855
  7249   002ED8                     i2l3197:
  7250   002ED8                     i2l855:
  7251   002ED8  0012               	return		;funcret
  7252   002EDA                     __end_of_RB7_ISR:
  7253                           	callstack 0
  7254                           
  7255 ;; *************** function _RB6_ISR *****************
  7256 ;; Defined at:
  7257 ;;		line 146 in file "MCAL_Layer/Interrupt/mcal_external_interrupt.c"
  7258 ;; Parameters:    Size  Location     Type
  7259 ;;  RB6_Source      1    wreg     unsigned char 
  7260 ;; Auto vars:     Size  Location     Type
  7261 ;;  RB6_Source      1    0[COMRAM] unsigned char 
  7262 ;; Return value:  Size  Location     Type
  7263 ;;                  1    wreg      void 
  7264 ;; Registers used:
  7265 ;;		wreg, status,2, status,0
  7266 ;; Tracked objects:
  7267 ;;		On entry : 0/0
  7268 ;;		On exit  : 0/0
  7269 ;;		Unchanged: 0/0
  7270 ;; Data sizes:     COMRAM   BANK0   BANK1   BANK2   BANK3   BANK4   BANK5   BANK6   BANK7   BANK8   BANK9  BANK10  BANK1
      +1  BANK12  BANK13  BANK14  BANK15
  7271 ;;      Params:         0       0       0       0       0       0       0       0       0       0       0       0       
      +0       0       0       0       0
  7272 ;;      Locals:         1       0       0       0       0       0       0       0       0       0       0       0       
      +0       0       0       0       0
  7273 ;;      Temps:          0       0       0       0       0       0       0       0       0       0       0       0       
      +0       0       0       0       0
  7274 ;;      Totals:         1       0       0       0       0       0       0       0       0       0       0       0       
      +0       0       0       0       0
  7275 ;;Total ram usage:        1 bytes
  7276 ;; Hardware stack levels used: 1
  7277 ;; This function calls:
  7278 ;;		Nothing
  7279 ;; This function is called by:
  7280 ;;		_InterruptManager
  7281 ;; This function uses a non-reentrant model
  7282 ;;
  7283                           
  7284                           	psect	text48
  7285   002EDA                     __ptext48:
  7286                           	callstack 0
  7287   002EDA                     _RB6_ISR:
  7288                           	callstack 23
  7289                           
  7290                           ;incstack = 0
  7291                           ;RB6_ISR@RB6_Source stored from wreg
  7292   002EDA  6E39               	movwf	RB6_ISR@RB6_Source^0,c
  7293   002EDC                     
  7294                           ;MCAL_Layer/Interrupt/mcal_external_interrupt.c: 148:     (INTCONbits.RBIF = 0);
  7295   002EDC  90F2               	bcf	242,0,c	;volatile
  7296   002EDE                     
  7297                           ;MCAL_Layer/Interrupt/mcal_external_interrupt.c: 151:     if(0 == RB6_Source){
  7298   002EDE  5039               	movf	RB6_ISR@RB6_Source^0,w,c
  7299   002EE0  A4D8               	btfss	status,2,c
  7300   002EE2  EF75  F017         	goto	i2u99_41
  7301   002EE6  EF77  F017         	goto	i2u99_40
  7302   002EEA                     i2u99_41:
  7303   002EEA  EF79  F017         	goto	i2l3183
  7304   002EEE                     i2u99_40:
  7305   002EEE  EF79  F017         	goto	i2l844
  7306   002EF2                     i2l3183:
  7307   002EF2                     i2l844:
  7308   002EF2  0012               	return		;funcret
  7309   002EF4                     __end_of_RB6_ISR:
  7310                           	callstack 0
  7311                           
  7312 ;; *************** function _RB5_ISR *****************
  7313 ;; Defined at:
  7314 ;;		line 127 in file "MCAL_Layer/Interrupt/mcal_external_interrupt.c"
  7315 ;; Parameters:    Size  Location     Type
  7316 ;;  RB5_Source      1    wreg     unsigned char 
  7317 ;; Auto vars:     Size  Location     Type
  7318 ;;  RB5_Source      1    0[COMRAM] unsigned char 
  7319 ;; Return value:  Size  Location     Type
  7320 ;;                  1    wreg      void 
  7321 ;; Registers used:
  7322 ;;		wreg, status,2, status,0
  7323 ;; Tracked objects:
  7324 ;;		On entry : 0/0
  7325 ;;		On exit  : 0/0
  7326 ;;		Unchanged: 0/0
  7327 ;; Data sizes:     COMRAM   BANK0   BANK1   BANK2   BANK3   BANK4   BANK5   BANK6   BANK7   BANK8   BANK9  BANK10  BANK1
      +1  BANK12  BANK13  BANK14  BANK15
  7328 ;;      Params:         0       0       0       0       0       0       0       0       0       0       0       0       
      +0       0       0       0       0
  7329 ;;      Locals:         1       0       0       0       0       0       0       0       0       0       0       0       
      +0       0       0       0       0
  7330 ;;      Temps:          0       0       0       0       0       0       0       0       0       0       0       0       
      +0       0       0       0       0
  7331 ;;      Totals:         1       0       0       0       0       0       0       0       0       0       0       0       
      +0       0       0       0       0
  7332 ;;Total ram usage:        1 bytes
  7333 ;; Hardware stack levels used: 1
  7334 ;; This function calls:
  7335 ;;		Nothing
  7336 ;; This function is called by:
  7337 ;;		_InterruptManager
  7338 ;; This function uses a non-reentrant model
  7339 ;;
  7340                           
  7341                           	psect	text49
  7342   002EF4                     __ptext49:
  7343                           	callstack 0
  7344   002EF4                     _RB5_ISR:
  7345                           	callstack 23
  7346                           
  7347                           ;incstack = 0
  7348                           ;RB5_ISR@RB5_Source stored from wreg
  7349   002EF4  6E39               	movwf	RB5_ISR@RB5_Source^0,c
  7350   002EF6                     
  7351                           ;MCAL_Layer/Interrupt/mcal_external_interrupt.c: 129:     (INTCONbits.RBIF = 0);
  7352   002EF6  90F2               	bcf	242,0,c	;volatile
  7353   002EF8                     
  7354                           ;MCAL_Layer/Interrupt/mcal_external_interrupt.c: 132:     if(0 == RB5_Source){
  7355   002EF8  5039               	movf	RB5_ISR@RB5_Source^0,w,c
  7356   002EFA  A4D8               	btfss	status,2,c
  7357   002EFC  EF82  F017         	goto	i2u98_41
  7358   002F00  EF84  F017         	goto	i2u98_40
  7359   002F04                     i2u98_41:
  7360   002F04  EF86  F017         	goto	i2l3169
  7361   002F08                     i2u98_40:
  7362   002F08  EF86  F017         	goto	i2l833
  7363   002F0C                     i2l3169:
  7364   002F0C                     i2l833:
  7365   002F0C  0012               	return		;funcret
  7366   002F0E                     __end_of_RB5_ISR:
  7367                           	callstack 0
  7368                           
  7369 ;; *************** function _RB4_ISR *****************
  7370 ;; Defined at:
  7371 ;;		line 108 in file "MCAL_Layer/Interrupt/mcal_external_interrupt.c"
  7372 ;; Parameters:    Size  Location     Type
  7373 ;;  RB4_Source      1    wreg     unsigned char 
  7374 ;; Auto vars:     Size  Location     Type
  7375 ;;  RB4_Source      1    0[COMRAM] unsigned char 
  7376 ;; Return value:  Size  Location     Type
  7377 ;;                  1    wreg      void 
  7378 ;; Registers used:
  7379 ;;		wreg, status,2, status,0
  7380 ;; Tracked objects:
  7381 ;;		On entry : 0/0
  7382 ;;		On exit  : 0/0
  7383 ;;		Unchanged: 0/0
  7384 ;; Data sizes:     COMRAM   BANK0   BANK1   BANK2   BANK3   BANK4   BANK5   BANK6   BANK7   BANK8   BANK9  BANK10  BANK1
      +1  BANK12  BANK13  BANK14  BANK15
  7385 ;;      Params:         0       0       0       0       0       0       0       0       0       0       0       0       
      +0       0       0       0       0
  7386 ;;      Locals:         1       0       0       0       0       0       0       0       0       0       0       0       
      +0       0       0       0       0
  7387 ;;      Temps:          0       0       0       0       0       0       0       0       0       0       0       0       
      +0       0       0       0       0
  7388 ;;      Totals:         1       0       0       0       0       0       0       0       0       0       0       0       
      +0       0       0       0       0
  7389 ;;Total ram usage:        1 bytes
  7390 ;; Hardware stack levels used: 1
  7391 ;; This function calls:
  7392 ;;		Nothing
  7393 ;; This function is called by:
  7394 ;;		_InterruptManager
  7395 ;; This function uses a non-reentrant model
  7396 ;;
  7397                           
  7398                           	psect	text50
  7399   002F0E                     __ptext50:
  7400                           	callstack 0
  7401   002F0E                     _RB4_ISR:
  7402                           	callstack 23
  7403                           
  7404                           ;incstack = 0
  7405                           ;RB4_ISR@RB4_Source stored from wreg
  7406   002F0E  6E39               	movwf	RB4_ISR@RB4_Source^0,c
  7407   002F10                     
  7408                           ;MCAL_Layer/Interrupt/mcal_external_interrupt.c: 110:     (INTCONbits.RBIF = 0);
  7409   002F10  90F2               	bcf	242,0,c	;volatile
  7410   002F12                     
  7411                           ;MCAL_Layer/Interrupt/mcal_external_interrupt.c: 113:     if(0 == RB4_Source){
  7412   002F12  5039               	movf	RB4_ISR@RB4_Source^0,w,c
  7413   002F14  A4D8               	btfss	status,2,c
  7414   002F16  EF8F  F017         	goto	i2u97_41
  7415   002F1A  EF91  F017         	goto	i2u97_40
  7416   002F1E                     i2u97_41:
  7417   002F1E  EF93  F017         	goto	i2l3155
  7418   002F22                     i2u97_40:
  7419   002F22  EF93  F017         	goto	i2l822
  7420   002F26                     i2l3155:
  7421   002F26                     i2l822:
  7422   002F26  0012               	return		;funcret
  7423   002F28                     __end_of_RB4_ISR:
  7424                           	callstack 0
  7425                           
  7426 ;; *************** function _MSSP_SPI_ISR *****************
  7427 ;; Defined at:
  7428 ;;		line 107 in file "MCAL_Layer/SPI/hal_spi.c"
  7429 ;; Parameters:    Size  Location     Type
  7430 ;;		None
  7431 ;; Auto vars:     Size  Location     Type
  7432 ;;		None
  7433 ;; Return value:  Size  Location     Type
  7434 ;;                  1    wreg      void 
  7435 ;; Registers used:
  7436 ;;		None
  7437 ;; Tracked objects:
  7438 ;;		On entry : 0/0
  7439 ;;		On exit  : 0/0
  7440 ;;		Unchanged: 0/0
  7441 ;; Data sizes:     COMRAM   BANK0   BANK1   BANK2   BANK3   BANK4   BANK5   BANK6   BANK7   BANK8   BANK9  BANK10  BANK1
      +1  BANK12  BANK13  BANK14  BANK15
  7442 ;;      Params:         0       0       0       0       0       0       0       0       0       0       0       0       
      +0       0       0       0       0
  7443 ;;      Locals:         0       0       0       0       0       0       0       0       0       0       0       0       
      +0       0       0       0       0
  7444 ;;      Temps:          0       0       0       0       0       0       0       0       0       0       0       0       
      +0       0       0       0       0
  7445 ;;      Totals:         0       0       0       0       0       0       0       0       0       0       0       0       
      +0       0       0       0       0
  7446 ;;Total ram usage:        0 bytes
  7447 ;; Hardware stack levels used: 1
  7448 ;; This function calls:
  7449 ;;		Nothing
  7450 ;; This function is called by:
  7451 ;;		_InterruptManager
  7452 ;; This function uses a non-reentrant model
  7453 ;;
  7454                           
  7455                           	psect	text51
  7456   002F6A                     __ptext51:
  7457                           	callstack 0
  7458   002F6A                     _MSSP_SPI_ISR:
  7459                           	callstack 23
  7460   002F6A                     
  7461                           ;MCAL_Layer/SPI/hal_spi.c: 109:     (PIR1bits.SSPIF = 0);
  7462   002F6A  969E               	bcf	158,3,c	;volatile
  7463   002F6C  0012               	return		;funcret
  7464   002F6E                     __end_of_MSSP_SPI_ISR:
  7465                           	callstack 0
  7466                           
  7467 ;; *************** function _INT2_ISR *****************
  7468 ;; Defined at:
  7469 ;;		line 96 in file "MCAL_Layer/Interrupt/mcal_external_interrupt.c"
  7470 ;; Parameters:    Size  Location     Type
  7471 ;;		None
  7472 ;; Auto vars:     Size  Location     Type
  7473 ;;		None
  7474 ;; Return value:  Size  Location     Type
  7475 ;;                  1    wreg      void 
  7476 ;; Registers used:
  7477 ;;		None
  7478 ;; Tracked objects:
  7479 ;;		On entry : 0/0
  7480 ;;		On exit  : 0/0
  7481 ;;		Unchanged: 0/0
  7482 ;; Data sizes:     COMRAM   BANK0   BANK1   BANK2   BANK3   BANK4   BANK5   BANK6   BANK7   BANK8   BANK9  BANK10  BANK1
      +1  BANK12  BANK13  BANK14  BANK15
  7483 ;;      Params:         0       0       0       0       0       0       0       0       0       0       0       0       
      +0       0       0       0       0
  7484 ;;      Locals:         0       0       0       0       0       0       0       0       0       0       0       0       
      +0       0       0       0       0
  7485 ;;      Temps:          0       0       0       0       0       0       0       0       0       0       0       0       
      +0       0       0       0       0
  7486 ;;      Totals:         0       0       0       0       0       0       0       0       0       0       0       0       
      +0       0       0       0       0
  7487 ;;Total ram usage:        0 bytes
  7488 ;; Hardware stack levels used: 1
  7489 ;; This function calls:
  7490 ;;		Nothing
  7491 ;; This function is called by:
  7492 ;;		_InterruptManager
  7493 ;; This function uses a non-reentrant model
  7494 ;;
  7495                           
  7496                           	psect	text52
  7497   002F6E                     __ptext52:
  7498                           	callstack 0
  7499   002F6E                     _INT2_ISR:
  7500                           	callstack 23
  7501   002F6E                     
  7502                           ;MCAL_Layer/Interrupt/mcal_external_interrupt.c: 98:     (INTCON3bits.INT2IF = 0);
  7503   002F6E  92F0               	bcf	240,1,c	;volatile
  7504   002F70  0012               	return		;funcret
  7505   002F72                     __end_of_INT2_ISR:
  7506                           	callstack 0
  7507                           
  7508 ;; *************** function _INT1_ISR *****************
  7509 ;; Defined at:
  7510 ;;		line 87 in file "MCAL_Layer/Interrupt/mcal_external_interrupt.c"
  7511 ;; Parameters:    Size  Location     Type
  7512 ;;		None
  7513 ;; Auto vars:     Size  Location     Type
  7514 ;;		None
  7515 ;; Return value:  Size  Location     Type
  7516 ;;                  1    wreg      void 
  7517 ;; Registers used:
  7518 ;;		None
  7519 ;; Tracked objects:
  7520 ;;		On entry : 0/0
  7521 ;;		On exit  : 0/0
  7522 ;;		Unchanged: 0/0
  7523 ;; Data sizes:     COMRAM   BANK0   BANK1   BANK2   BANK3   BANK4   BANK5   BANK6   BANK7   BANK8   BANK9  BANK10  BANK1
      +1  BANK12  BANK13  BANK14  BANK15
  7524 ;;      Params:         0       0       0       0       0       0       0       0       0       0       0       0       
      +0       0       0       0       0
  7525 ;;      Locals:         0       0       0       0       0       0       0       0       0       0       0       0       
      +0       0       0       0       0
  7526 ;;      Temps:          0       0       0       0       0       0       0       0       0       0       0       0       
      +0       0       0       0       0
  7527 ;;      Totals:         0       0       0       0       0       0       0       0       0       0       0       0       
      +0       0       0       0       0
  7528 ;;Total ram usage:        0 bytes
  7529 ;; Hardware stack levels used: 1
  7530 ;; This function calls:
  7531 ;;		Nothing
  7532 ;; This function is called by:
  7533 ;;		_InterruptManager
  7534 ;; This function uses a non-reentrant model
  7535 ;;
  7536                           
  7537                           	psect	text53
  7538   002F72                     __ptext53:
  7539                           	callstack 0
  7540   002F72                     _INT1_ISR:
  7541                           	callstack 23
  7542   002F72                     
  7543                           ;MCAL_Layer/Interrupt/mcal_external_interrupt.c: 89:     (INTCON3bits.INT1IF = 0);
  7544   002F72  90F0               	bcf	240,0,c	;volatile
  7545   002F74  0012               	return		;funcret
  7546   002F76                     __end_of_INT1_ISR:
  7547                           	callstack 0
  7548                           
  7549 ;; *************** function _INT0_ISR *****************
  7550 ;; Defined at:
  7551 ;;		line 75 in file "MCAL_Layer/Interrupt/mcal_external_interrupt.c"
  7552 ;; Parameters:    Size  Location     Type
  7553 ;;		None
  7554 ;; Auto vars:     Size  Location     Type
  7555 ;;		None
  7556 ;; Return value:  Size  Location     Type
  7557 ;;                  1    wreg      void 
  7558 ;; Registers used:
  7559 ;;		None
  7560 ;; Tracked objects:
  7561 ;;		On entry : 0/0
  7562 ;;		On exit  : 0/0
  7563 ;;		Unchanged: 0/0
  7564 ;; Data sizes:     COMRAM   BANK0   BANK1   BANK2   BANK3   BANK4   BANK5   BANK6   BANK7   BANK8   BANK9  BANK10  BANK1
      +1  BANK12  BANK13  BANK14  BANK15
  7565 ;;      Params:         0       0       0       0       0       0       0       0       0       0       0       0       
      +0       0       0       0       0
  7566 ;;      Locals:         0       0       0       0       0       0       0       0       0       0       0       0       
      +0       0       0       0       0
  7567 ;;      Temps:          0       0       0       0       0       0       0       0       0       0       0       0       
      +0       0       0       0       0
  7568 ;;      Totals:         0       0       0       0       0       0       0       0       0       0       0       0       
      +0       0       0       0       0
  7569 ;;Total ram usage:        0 bytes
  7570 ;; Hardware stack levels used: 1
  7571 ;; This function calls:
  7572 ;;		Nothing
  7573 ;; This function is called by:
  7574 ;;		_InterruptManager
  7575 ;; This function uses a non-reentrant model
  7576 ;;
  7577                           
  7578                           	psect	text54
  7579   002F76                     __ptext54:
  7580                           	callstack 0
  7581   002F76                     _INT0_ISR:
  7582                           	callstack 23
  7583   002F76                     
  7584                           ;MCAL_Layer/Interrupt/mcal_external_interrupt.c: 77:     (INTCONbits.INT0IF = 0);
  7585   002F76  92F2               	bcf	242,1,c	;volatile
  7586   002F78  0012               	return		;funcret
  7587   002F7A                     __end_of_INT0_ISR:
  7588                           	callstack 0
  7589                           
  7590 ;; *************** function _EUSART_TX_ISR *****************
  7591 ;; Defined at:
  7592 ;;		line 245 in file "MCAL_Layer/usart/hal_usart.c"
  7593 ;; Parameters:    Size  Location     Type
  7594 ;;		None
  7595 ;; Auto vars:     Size  Location     Type
  7596 ;;		None
  7597 ;; Return value:  Size  Location     Type
  7598 ;;                  1    wreg      void 
  7599 ;; Registers used:
  7600 ;;		None
  7601 ;; Tracked objects:
  7602 ;;		On entry : 0/0
  7603 ;;		On exit  : 0/0
  7604 ;;		Unchanged: 0/0
  7605 ;; Data sizes:     COMRAM   BANK0   BANK1   BANK2   BANK3   BANK4   BANK5   BANK6   BANK7   BANK8   BANK9  BANK10  BANK1
      +1  BANK12  BANK13  BANK14  BANK15
  7606 ;;      Params:         0       0       0       0       0       0       0       0       0       0       0       0       
      +0       0       0       0       0
  7607 ;;      Locals:         0       0       0       0       0       0       0       0       0       0       0       0       
      +0       0       0       0       0
  7608 ;;      Temps:          0       0       0       0       0       0       0       0       0       0       0       0       
      +0       0       0       0       0
  7609 ;;      Totals:         0       0       0       0       0       0       0       0       0       0       0       0       
      +0       0       0       0       0
  7610 ;;Total ram usage:        0 bytes
  7611 ;; Hardware stack levels used: 1
  7612 ;; This function calls:
  7613 ;;		Nothing
  7614 ;; This function is called by:
  7615 ;;		_InterruptManager
  7616 ;; This function uses a non-reentrant model
  7617 ;;
  7618                           
  7619                           	psect	text55
  7620   002F7A                     __ptext55:
  7621                           	callstack 0
  7622   002F7A                     _EUSART_TX_ISR:
  7623                           	callstack 23
  7624   002F7A                     
  7625                           ;MCAL_Layer/usart/hal_usart.c: 246:     (PIE1bits.TXIE = 0);
  7626   002F7A  989D               	bcf	157,4,c	;volatile
  7627   002F7C  0012               	return		;funcret
  7628   002F7E                     __end_of_EUSART_TX_ISR:
  7629                           	callstack 0
  7630                           
  7631 ;; *************** function _EUSART_RX_ISR *****************
  7632 ;; Defined at:
  7633 ;;		line 252 in file "MCAL_Layer/usart/hal_usart.c"
  7634 ;; Parameters:    Size  Location     Type
  7635 ;;		None
  7636 ;; Auto vars:     Size  Location     Type
  7637 ;;		None
  7638 ;; Return value:  Size  Location     Type
  7639 ;;                  1    wreg      void 
  7640 ;; Registers used:
  7641 ;;		wreg, status,2, status,0
  7642 ;; Tracked objects:
  7643 ;;		On entry : 0/0
  7644 ;;		On exit  : 0/0
  7645 ;;		Unchanged: 0/0
  7646 ;; Data sizes:     COMRAM   BANK0   BANK1   BANK2   BANK3   BANK4   BANK5   BANK6   BANK7   BANK8   BANK9  BANK10  BANK1
      +1  BANK12  BANK13  BANK14  BANK15
  7647 ;;      Params:         0       0       0       0       0       0       0       0       0       0       0       0       
      +0       0       0       0       0
  7648 ;;      Locals:         0       0       0       0       0       0       0       0       0       0       0       0       
      +0       0       0       0       0
  7649 ;;      Temps:          0       0       0       0       0       0       0       0       0       0       0       0       
      +0       0       0       0       0
  7650 ;;      Totals:         0       0       0       0       0       0       0       0       0       0       0       0       
      +0       0       0       0       0
  7651 ;;Total ram usage:        0 bytes
  7652 ;; Hardware stack levels used: 1
  7653 ;; This function calls:
  7654 ;;		Nothing
  7655 ;; This function is called by:
  7656 ;;		_InterruptManager
  7657 ;; This function uses a non-reentrant model
  7658 ;;
  7659                           
  7660                           	psect	text56
  7661   002F8C                     __ptext56:
  7662                           	callstack 0
  7663   002F8C                     _EUSART_RX_ISR:
  7664                           	callstack 23
  7665   002F8C  0012               	return		;funcret
  7666   002F8E                     __end_of_EUSART_RX_ISR:
  7667                           	callstack 0
  7668                           
  7669 ;; *************** function _CCP2_ISR *****************
  7670 ;; Defined at:
  7671 ;;		line 259 in file "MCAL_Layer/CCP/hal_ccp.c"
  7672 ;; Parameters:    Size  Location     Type
  7673 ;;		None
  7674 ;; Auto vars:     Size  Location     Type
  7675 ;;		None
  7676 ;; Return value:  Size  Location     Type
  7677 ;;                  1    wreg      void 
  7678 ;; Registers used:
  7679 ;;		None
  7680 ;; Tracked objects:
  7681 ;;		On entry : 0/0
  7682 ;;		On exit  : 0/0
  7683 ;;		Unchanged: 0/0
  7684 ;; Data sizes:     COMRAM   BANK0   BANK1   BANK2   BANK3   BANK4   BANK5   BANK6   BANK7   BANK8   BANK9  BANK10  BANK1
      +1  BANK12  BANK13  BANK14  BANK15
  7685 ;;      Params:         0       0       0       0       0       0       0       0       0       0       0       0       
      +0       0       0       0       0
  7686 ;;      Locals:         0       0       0       0       0       0       0       0       0       0       0       0       
      +0       0       0       0       0
  7687 ;;      Temps:          0       0       0       0       0       0       0       0       0       0       0       0       
      +0       0       0       0       0
  7688 ;;      Totals:         0       0       0       0       0       0       0       0       0       0       0       0       
      +0       0       0       0       0
  7689 ;;Total ram usage:        0 bytes
  7690 ;; Hardware stack levels used: 1
  7691 ;; This function calls:
  7692 ;;		Nothing
  7693 ;; This function is called by:
  7694 ;;		_InterruptManager
  7695 ;; This function uses a non-reentrant model
  7696 ;;
  7697                           
  7698                           	psect	text57
  7699   002F7E                     __ptext57:
  7700                           	callstack 0
  7701   002F7E                     _CCP2_ISR:
  7702                           	callstack 23
  7703   002F7E                     
  7704                           ;MCAL_Layer/CCP/hal_ccp.c: 260:     (PIR2bits.CCP2IF = 0);
  7705   002F7E  90A1               	bcf	161,0,c	;volatile
  7706   002F80  0012               	return		;funcret
  7707   002F82                     __end_of_CCP2_ISR:
  7708                           	callstack 0
  7709                           
  7710 ;; *************** function _CCP1_ISR *****************
  7711 ;; Defined at:
  7712 ;;		line 251 in file "MCAL_Layer/CCP/hal_ccp.c"
  7713 ;; Parameters:    Size  Location     Type
  7714 ;;		None
  7715 ;; Auto vars:     Size  Location     Type
  7716 ;;		None
  7717 ;; Return value:  Size  Location     Type
  7718 ;;                  1    wreg      void 
  7719 ;; Registers used:
  7720 ;;		None
  7721 ;; Tracked objects:
  7722 ;;		On entry : 0/0
  7723 ;;		On exit  : 0/0
  7724 ;;		Unchanged: 0/0
  7725 ;; Data sizes:     COMRAM   BANK0   BANK1   BANK2   BANK3   BANK4   BANK5   BANK6   BANK7   BANK8   BANK9  BANK10  BANK1
      +1  BANK12  BANK13  BANK14  BANK15
  7726 ;;      Params:         0       0       0       0       0       0       0       0       0       0       0       0       
      +0       0       0       0       0
  7727 ;;      Locals:         0       0       0       0       0       0       0       0       0       0       0       0       
      +0       0       0       0       0
  7728 ;;      Temps:          0       0       0       0       0       0       0       0       0       0       0       0       
      +0       0       0       0       0
  7729 ;;      Totals:         0       0       0       0       0       0       0       0       0       0       0       0       
      +0       0       0       0       0
  7730 ;;Total ram usage:        0 bytes
  7731 ;; Hardware stack levels used: 1
  7732 ;; This function calls:
  7733 ;;		Nothing
  7734 ;; This function is called by:
  7735 ;;		_InterruptManager
  7736 ;; This function uses a non-reentrant model
  7737 ;;
  7738                           
  7739                           	psect	text58
  7740   002F82                     __ptext58:
  7741                           	callstack 0
  7742   002F82                     _CCP1_ISR:
  7743                           	callstack 23
  7744   002F82                     
  7745                           ;MCAL_Layer/CCP/hal_ccp.c: 252:     (PIR1bits.CCP1IF = 0);
  7746   002F82  949E               	bcf	158,2,c	;volatile
  7747   002F84  0012               	return		;funcret
  7748   002F86                     __end_of_CCP1_ISR:
  7749                           	callstack 0
  7750                           
  7751 ;; *************** function _ADC_ISR *****************
  7752 ;; Defined at:
  7753 ;;		line 296 in file "MCAL_Layer/ADC/hal_adc.c"
  7754 ;; Parameters:    Size  Location     Type
  7755 ;;		None
  7756 ;; Auto vars:     Size  Location     Type
  7757 ;;		None
  7758 ;; Return value:  Size  Location     Type
  7759 ;;                  1    wreg      void 
  7760 ;; Registers used:
  7761 ;;		None
  7762 ;; Tracked objects:
  7763 ;;		On entry : 0/0
  7764 ;;		On exit  : 0/0
  7765 ;;		Unchanged: 0/0
  7766 ;; Data sizes:     COMRAM   BANK0   BANK1   BANK2   BANK3   BANK4   BANK5   BANK6   BANK7   BANK8   BANK9  BANK10  BANK1
      +1  BANK12  BANK13  BANK14  BANK15
  7767 ;;      Params:         0       0       0       0       0       0       0       0       0       0       0       0       
      +0       0       0       0       0
  7768 ;;      Locals:         0       0       0       0       0       0       0       0       0       0       0       0       
      +0       0       0       0       0
  7769 ;;      Temps:          0       0       0       0       0       0       0       0       0       0       0       0       
      +0       0       0       0       0
  7770 ;;      Totals:         0       0       0       0       0       0       0       0       0       0       0       0       
      +0       0       0       0       0
  7771 ;;Total ram usage:        0 bytes
  7772 ;; Hardware stack levels used: 1
  7773 ;; This function calls:
  7774 ;;		Nothing
  7775 ;; This function is called by:
  7776 ;;		_InterruptManager
  7777 ;; This function uses a non-reentrant model
  7778 ;;
  7779                           
  7780                           	psect	text59
  7781   002F86                     __ptext59:
  7782                           	callstack 0
  7783   002F86                     _ADC_ISR:
  7784                           	callstack 23
  7785   002F86                     
  7786                           ;MCAL_Layer/ADC/hal_adc.c: 297:     (PIR1bits.ADIF = 0);
  7787   002F86  9C9E               	bcf	158,6,c	;volatile
  7788   002F88  0012               	return		;funcret
  7789   002F8A                     __end_of_ADC_ISR:
  7790                           	callstack 0
  7791                           
  7792                           	psect	rparam
  7793   000000                     
  7794                           	psect	temp
  7795   00007B                     btemp:
  7796                           	callstack 0
  7797   00007B                     	ds	1
  7798   000000                     int$flags	set	btemp
  7799   000000                     wtemp8	set	btemp+1
  7800   000000                     ttemp5	set	btemp+1
  7801   000000                     ttemp6	set	btemp+4
  7802   000000                     ttemp7	set	btemp+8
  7803                           
  7804                           	psect	config
  7805                           
  7806                           ; Padding undefined space
  7807   300000                     	org	3145728
  7808   300000  FF                 	db	255
  7809                           
  7810                           ;Config register CONFIG1H @ 0x300001
  7811                           ;	Oscillator Selection bits
  7812                           ;	OSC = HS, HS oscillator
  7813                           ;	Fail-Safe Clock Monitor Enable bit
  7814                           ;	FCMEN = OFF, Fail-Safe Clock Monitor disabled
  7815                           ;	Internal/External Oscillator Switchover bit
  7816                           ;	IESO = OFF, Oscillator Switchover mode disabled
  7817   300001                     	org	3145729
  7818   300001  02                 	db	2
  7819                           
  7820                           ;Config register CONFIG2L @ 0x300002
  7821                           ;	Power-up Timer Enable bit
  7822                           ;	PWRT = OFF, PWRT disabled
  7823                           ;	Brown-out Reset Enable bits
  7824                           ;	BOREN = OFF, Brown-out Reset disabled in hardware and software
  7825                           ;	Brown Out Reset Voltage bits
  7826                           ;	BORV = 1, 
  7827   300002                     	org	3145730
  7828   300002  09                 	db	9
  7829                           
  7830                           ;Config register CONFIG2H @ 0x300003
  7831                           ;	Watchdog Timer Enable bit
  7832                           ;	WDT = OFF, WDT disabled (control is placed on the SWDTEN bit)
  7833                           ;	Watchdog Timer Postscale Select bits
  7834                           ;	WDTPS = 32768, 1:32768
  7835   300003                     	org	3145731
  7836   300003  1E                 	db	30
  7837                           
  7838                           ; Padding undefined space
  7839   300004                     	org	3145732
  7840   300004  FF                 	db	255
  7841                           
  7842                           ;Config register CONFIG3H @ 0x300005
  7843                           ;	CCP2 MUX bit
  7844                           ;	CCP2MX = PORTC, CCP2 input/output is multiplexed with RC1
  7845                           ;	PORTB A/D Enable bit
  7846                           ;	PBADEN = ON, PORTB<4:0> pins are configured as analog input channels on Reset
  7847                           ;	Low-Power Timer1 Oscillator Enable bit
  7848                           ;	LPT1OSC = OFF, Timer1 configured for higher power operation
  7849                           ;	MCLR Pin Enable bit
  7850                           ;	MCLRE = ON, MCLR pin enabled; RE3 input pin disabled
  7851   300005                     	org	3145733
  7852   300005  83                 	db	131
  7853                           
  7854                           ;Config register CONFIG4L @ 0x300006
  7855                           ;	Stack Full/Underflow Reset Enable bit
  7856                           ;	STVREN = ON, Stack full/underflow will cause Reset
  7857                           ;	Single-Supply ICSP Enable bit
  7858                           ;	LVP = OFF, Single-Supply ICSP disabled
  7859                           ;	Extended Instruction Set Enable bit
  7860                           ;	XINST = OFF, Instruction set extension and Indexed Addressing mode disabled (Legacy mo
      +                          de)
  7861                           ;	Background Debugger Enable bit
  7862                           ;	DEBUG = 0x1, unprogrammed default
  7863   300006                     	org	3145734
  7864   300006  81                 	db	129
  7865                           
  7866                           ; Padding undefined space
  7867   300007                     	org	3145735
  7868   300007  FF                 	db	255
  7869                           
  7870                           ;Config register CONFIG5L @ 0x300008
  7871                           ;	Code Protection bit
  7872                           ;	CP0 = OFF, Block 0 (000800-003FFFh) not code-protected
  7873                           ;	Code Protection bit
  7874                           ;	CP1 = OFF, Block 1 (004000-007FFFh) not code-protected
  7875                           ;	Code Protection bit
  7876                           ;	CP2 = OFF, Block 2 (008000-00BFFFh) not code-protected
  7877                           ;	Code Protection bit
  7878                           ;	CP3 = OFF, Block 3 (00C000-00FFFFh) not code-protected
  7879   300008                     	org	3145736
  7880   300008  0F                 	db	15
  7881                           
  7882                           ;Config register CONFIG5H @ 0x300009
  7883                           ;	Boot Block Code Protection bit
  7884                           ;	CPB = OFF, Boot block (000000-0007FFh) not code-protected
  7885                           ;	Data EEPROM Code Protection bit
  7886                           ;	CPD = OFF, Data EEPROM not code-protected
  7887   300009                     	org	3145737
  7888   300009  C0                 	db	192
  7889                           
  7890                           ;Config register CONFIG6L @ 0x30000A
  7891                           ;	Write Protection bit
  7892                           ;	WRT0 = OFF, Block 0 (000800-003FFFh) not write-protected
  7893                           ;	Write Protection bit
  7894                           ;	WRT1 = OFF, Block 1 (004000-007FFFh) not write-protected
  7895                           ;	Write Protection bit
  7896                           ;	WRT2 = OFF, Block 2 (008000-00BFFFh) not write-protected
  7897                           ;	Write Protection bit
  7898                           ;	WRT3 = OFF, Block 3 (00C000-00FFFFh) not write-protected
  7899   30000A                     	org	3145738
  7900   30000A  0F                 	db	15
  7901                           
  7902                           ;Config register CONFIG6H @ 0x30000B
  7903                           ;	Configuration Register Write Protection bit
  7904                           ;	WRTC = OFF, Configuration registers (300000-3000FFh) not write-protected
  7905                           ;	Boot Block Write Protection bit
  7906                           ;	WRTB = OFF, Boot Block (000000-0007FFh) not write-protected
  7907                           ;	Data EEPROM Write Protection bit
  7908                           ;	WRTD = OFF, Data EEPROM not write-protected
  7909   30000B                     	org	3145739
  7910   30000B  E0                 	db	224
  7911                           
  7912                           ;Config register CONFIG7L @ 0x30000C
  7913                           ;	Table Read Protection bit
  7914                           ;	EBTR0 = OFF, Block 0 (000800-003FFFh) not protected from table reads executed in other
      +                           blocks
  7915                           ;	Table Read Protection bit
  7916                           ;	EBTR1 = OFF, Block 1 (004000-007FFFh) not protected from table reads executed in other
      +                           blocks
  7917                           ;	Table Read Protection bit
  7918                           ;	EBTR2 = OFF, Block 2 (008000-00BFFFh) not protected from table reads executed in other
      +                           blocks
  7919                           ;	Table Read Protection bit
  7920                           ;	EBTR3 = OFF, Block 3 (00C000-00FFFFh) not protected from table reads executed in other
      +                           blocks
  7921   30000C                     	org	3145740
  7922   30000C  0F                 	db	15
  7923                           
  7924                           ;Config register CONFIG7H @ 0x30000D
  7925                           ;	Boot Block Table Read Protection bit
  7926                           ;	EBTRB = OFF, Boot Block (000000-0007FFh) not protected from table reads executed in ot
      +                          her blocks
  7927   30000D                     	org	3145741
  7928   30000D  40                 	db	64
  7929                           tosu	equ	0xFFF
  7930                           tosh	equ	0xFFE
  7931                           tosl	equ	0xFFD
  7932                           stkptr	equ	0xFFC
  7933                           pclatu	equ	0xFFB
  7934                           pclath	equ	0xFFA
  7935                           pcl	equ	0xFF9
  7936                           tblptru	equ	0xFF8
  7937                           tblptrh	equ	0xFF7
  7938                           tblptrl	equ	0xFF6
  7939                           tablat	equ	0xFF5
  7940                           prodh	equ	0xFF4
  7941                           prodl	equ	0xFF3
  7942                           indf0	equ	0xFEF
  7943                           postinc0	equ	0xFEE
  7944                           postdec0	equ	0xFED
  7945                           preinc0	equ	0xFEC
  7946                           plusw0	equ	0xFEB
  7947                           fsr0h	equ	0xFEA
  7948                           fsr0l	equ	0xFE9
  7949                           wreg	equ	0xFE8
  7950                           indf1	equ	0xFE7
  7951                           postinc1	equ	0xFE6
  7952                           postdec1	equ	0xFE5
  7953                           preinc1	equ	0xFE4
  7954                           plusw1	equ	0xFE3
  7955                           fsr1h	equ	0xFE2
  7956                           fsr1l	equ	0xFE1
  7957                           bsr	equ	0xFE0
  7958                           indf2	equ	0xFDF
  7959                           postinc2	equ	0xFDE
  7960                           postdec2	equ	0xFDD
  7961                           preinc2	equ	0xFDC
  7962                           plusw2	equ	0xFDB
  7963                           fsr2h	equ	0xFDA
  7964                           fsr2l	equ	0xFD9
  7965                           status	equ	0xFD8

Data Sizes:
    Strings     31
    Constant    16
    Data        67
    BSS         115
    Persistent  0
    Stack       0

Auto Spaces:
    Space          Size  Autos    Used
    COMRAM          126     50     122
    BANK0           128      8     118
    BANK1           256      0       0
    BANK2           256      0       0
    BANK3           256      0       0
    BANK4           256      0       0
    BANK5           256      0       0
    BANK6           256      0       0
    BANK7           256      0       0
    BANK8           256      0       0
    BANK9           256      0       0
    BANK10          256      0       0
    BANK11          256      0       0
    BANK12          256      0       0
    BANK13          256      0       0
    BANK14          256      0       0
    BANK15          128      0       0

Pointer List with Targets:

    adc_1$ADC_InterruptHandler	PTR FTN()void  size(2) Largest target is 1
		 -> NULL(), 

    ADC_GetConversion_Blocking@_adc	PTR const struct . size(1) Largest target is 7
		 -> adc_1(BANK0[7]), 

    ADC_GetConversion_Blocking@conversion_result	PTR unsigned short  size(1) Largest target is 2
		 -> lm35_res_1(COMRAM[2]), 

    ADC_GetConversionResult@_adc	PTR const struct . size(1) Largest target is 7
		 -> adc_1(BANK0[7]), 

    ADC_GetConversionResult@_adc$ADC_InterruptHandler	PTR FTN()void  size(2) Largest target is 1
		 -> NULL(), 

    ADC_GetConversionResult@conversion_result	PTR unsigned short  size(1) Largest target is 2
		 -> lm35_res_1(COMRAM[2]), 

    ADC_Init@_adc	PTR const struct . size(1) Largest target is 7
		 -> adc_1(BANK0[7]), 

    ADC_Init@_adc$ADC_InterruptHandler	PTR FTN()void  size(2) Largest target is 1
		 -> NULL(), 

    ADC_InterruptHandler	PTR FTN()void  size(2) Largest target is 1
		 -> NULL(), 

    ADC_SelectChannel@_adc	PTR const struct . size(1) Largest target is 7
		 -> adc_1(BANK0[7]), 

    ADC_StartConversion@_adc	PTR const struct . size(1) Largest target is 7
		 -> adc_1(BANK0[7]), 

    CCP1_InterruptHandler	PTR FTN()void  size(2) Largest target is 1
		 -> NULL(), 

    CCP2_InterruptHandler	PTR FTN()void  size(2) Largest target is 1
		 -> NULL(), 

    CCP_Capture_Mode_Config@_ccp_obj$CCP1_InterruptHandler	PTR FTN()void  size(2) Largest target is 0

    CCP_Capture_Mode_Config@_ccp_obj$CCP2_InterruptHandler	PTR FTN()void  size(2) Largest target is 0

    CCP_Compare_Mode_Config@_ccp_obj$CCP1_InterruptHandler	PTR FTN()void  size(2) Largest target is 0

    CCP_Compare_Mode_Config@_ccp_obj$CCP2_InterruptHandler	PTR FTN()void  size(2) Largest target is 0

    CCP_DeInit@_ccp_obj$CCP1_InterruptHandler	PTR FTN()void  size(2) Largest target is 0

    CCP_DeInit@_ccp_obj$CCP2_InterruptHandler	PTR FTN()void  size(2) Largest target is 0

    CCP_Init@_ccp_obj$CCP1_InterruptHandler	PTR FTN()void  size(2) Largest target is 0

    CCP_Init@_ccp_obj$CCP2_InterruptHandler	PTR FTN()void  size(2) Largest target is 0

    CCP_Interrupt_Config@_ccp_obj$CCP1_InterruptHandler	PTR FTN()void  size(2) Largest target is 0

    CCP_Interrupt_Config@_ccp_obj$CCP2_InterruptHandler	PTR FTN()void  size(2) Largest target is 0

    CCP_Mode_Timer_Select@_ccp_obj$CCP1_InterruptHandler	PTR FTN()void  size(2) Largest target is 0

    CCP_Mode_Timer_Select@_ccp_obj$CCP2_InterruptHandler	PTR FTN()void  size(2) Largest target is 0

    CCP_PWM_Mode_Config@_ccp_obj$CCP1_InterruptHandler	PTR FTN()void  size(2) Largest target is 0

    CCP_PWM_Mode_Config@_ccp_obj$CCP2_InterruptHandler	PTR FTN()void  size(2) Largest target is 0

    CCP_PWM_Set_Duty@_ccp_obj$CCP1_InterruptHandler	PTR FTN()void  size(2) Largest target is 0

    CCP_PWM_Set_Duty@_ccp_obj$CCP2_InterruptHandler	PTR FTN()void  size(2) Largest target is 0

    CCP_PWM_Start@_ccp_obj$CCP1_InterruptHandler	PTR FTN()void  size(2) Largest target is 0

    CCP_PWM_Start@_ccp_obj$CCP2_InterruptHandler	PTR FTN()void  size(2) Largest target is 0

    CCP_PWM_Stop@_ccp_obj$CCP1_InterruptHandler	PTR FTN()void  size(2) Largest target is 0

    CCP_PWM_Stop@_ccp_obj$CCP2_InterruptHandler	PTR FTN()void  size(2) Largest target is 0

    configure_voltage_reference@_adc	PTR const struct . size(1) Largest target is 7
		 -> adc_1(BANK0[7]), 

    configure_voltage_reference@_adc$ADC_InterruptHandler	PTR FTN()void  size(2) Largest target is 1
		 -> NULL(), 

    convert_uint16_to_string@str	PTR unsigned char  size(1) Largest target is 7
		 -> lm35_res_1_txt(BANK0[7]), 

    dc_motor_initialize@_dc_motor	PTR const struct . size(1) Largest target is 2
		 -> dc_motor_1(COMRAM[2]), dc_motor_2(COMRAM[2]), 

    dc_motor_move_right@_dc_motor	PTR const struct . size(1) Largest target is 2
		 -> dc_motor_1(COMRAM[2]), dc_motor_2(COMRAM[2]), 

    dc_motor_stop@_dc_motor	PTR const struct . size(1) Largest target is 2
		 -> dc_motor_1(COMRAM[2]), dc_motor_2(COMRAM[2]), 

    EUSART_ASYNC_RX_Init@_eusart$EUSART_FramingErrorHandler	PTR FTN()void  size(2) Largest target is 0

    EUSART_ASYNC_RX_Init@_eusart$EUSART_OverrunErrorHandler	PTR FTN()void  size(2) Largest target is 0

    EUSART_ASYNC_RX_Init@_eusart$EUSART_RxDefaultInterruptHandler	PTR FTN()void  size(2) Largest target is 0

    EUSART_ASYNC_RX_Init@_eusart$EUSART_TxDefaultInterruptHandler	PTR FTN()void  size(2) Largest target is 0

    EUSART_ASYNC_TX_Init@_eusart$EUSART_FramingErrorHandler	PTR FTN()void  size(2) Largest target is 0

    EUSART_ASYNC_TX_Init@_eusart$EUSART_OverrunErrorHandler	PTR FTN()void  size(2) Largest target is 0

    EUSART_ASYNC_TX_Init@_eusart$EUSART_RxDefaultInterruptHandler	PTR FTN()void  size(2) Largest target is 0

    EUSART_ASYNC_TX_Init@_eusart$EUSART_TxDefaultInterruptHandler	PTR FTN()void  size(2) Largest target is 0

    EUSART_Baud_Rate_Calculation@_eusart$EUSART_FramingErrorHandler	PTR FTN()void  size(2) Largest target is 0

    EUSART_Baud_Rate_Calculation@_eusart$EUSART_OverrunErrorHandler	PTR FTN()void  size(2) Largest target is 0

    EUSART_Baud_Rate_Calculation@_eusart$EUSART_RxDefaultInterruptHandler	PTR FTN()void  size(2) Largest target is 0

    EUSART_Baud_Rate_Calculation@_eusart$EUSART_TxDefaultInterruptHandler	PTR FTN()void  size(2) Largest target is 0

    EUSART_FramingErrorHandler	PTR FTN()void  size(2) Largest target is 1
		 -> NULL(), 

    EUSART_OverrunErrorHandler	PTR FTN()void  size(2) Largest target is 1
		 -> NULL(), 

    EUSART_RxInterruptHandler	PTR FTN()void  size(2) Largest target is 1
		 -> NULL(), 

    EUSART_TxInterruptHandler	PTR FTN()void  size(2) Largest target is 1
		 -> NULL(), 

    f$.$buffer	PTR unsigned char  size(2) Largest target is 0

    f$.$source	PTR const unsigned char  size(2) Largest target is 0

    fputc@fp	PTR struct _IO_FILE size(1) Largest target is 12
		 -> sprintf@f(COMRAM[12]), 

    fputc@fp$.$buffer	PTR unsigned char  size(2) Largest target is 0

    fputc@fp$.$source	PTR const unsigned char  size(2) Largest target is 0

    gpio_pin_direction_initialize@_pin_config	PTR const struct . size(1) Largest target is 8
		 -> dc_motor_1(COMRAM[2]), dc_motor_1$dc_motor_pin(COMRAM[2]), dc_motor_2(COMRAM[2]), dc_motor_2$dc_motor_pin(COMRAM[2]), 
		 -> keypad_1(BANK0[8]), keypad_1$keypad_columns_pins(BANK0[4]), keypad_1$keypad_row_pins(BANK0[4]), lcd_1(BANK0[6]), 
		 -> lcd_1$lcd_data(BANK0[4]), led_initialize@pin_obj(COMRAM[1]), MSSP_SPI_Msster_Mode_GPIO_PIN_Configurations@SPI_CLK(COMRAM[1]), MSSP_SPI_Msster_Mode_GPIO_PIN_Configurations@SPI_SDI(COMRAM[1]), 
		 -> MSSP_SPI_Msster_Mode_GPIO_PIN_Configurations@SPI_SDO(COMRAM[1]), MSSP_SPI_Slave_Mode_GPIO_PIN_Configurations@SPI_CLK(COMRAM[1]), MSSP_SPI_Slave_Mode_GPIO_PIN_Configurations@SPI_SDI(COMRAM[1]), MSSP_SPI_Slave_Mode_GPIO_PIN_Configurations@SPI_SDO(COMRAM[1]), 
		 -> MSSP_SPI_Slave_Mode_GPIO_PIN_Configurations@SPI_SS(COMRAM[1]), relay_initialize@pin_obj(COMRAM[1]), 

    gpio_pin_initialize@_pin_config	PTR const struct . size(1) Largest target is 8
		 -> dc_motor_1(COMRAM[2]), dc_motor_1$dc_motor_pin(COMRAM[2]), dc_motor_2(COMRAM[2]), dc_motor_2$dc_motor_pin(COMRAM[2]), 
		 -> keypad_1(BANK0[8]), keypad_1$keypad_row_pins(BANK0[4]), relay_initialize@pin_obj(COMRAM[1]), 

    gpio_pin_read_logic@_pin_config	PTR const struct . size(1) Largest target is 8
		 -> keypad_1(BANK0[8]), keypad_1$keypad_columns_pins(BANK0[4]), 

    gpio_pin_read_logic@logic	PTR enum E2983 size(1) Largest target is 1
		 -> button_read_state@Pin_Logic_Status(COMRAM[1]), keypad_get_value@column_logic(COMRAM[1]), 

    gpio_pin_write_logic@_pin_config	PTR const struct . size(1) Largest target is 8
		 -> dc_motor_1(COMRAM[2]), dc_motor_1$dc_motor_pin(COMRAM[2]), dc_motor_2(COMRAM[2]), dc_motor_2$dc_motor_pin(COMRAM[2]), 
		 -> keypad_1(BANK0[8]), keypad_1$keypad_row_pins(BANK0[4]), lcd_1(BANK0[6]), lcd_1$lcd_data(BANK0[4]), 
		 -> led_turn_off@pin_obj(COMRAM[1]), led_turn_on@pin_obj(COMRAM[1]), relay_initialize@pin_obj(COMRAM[1]), relay_turn_off@pin_obj(COMRAM[1]), 
		 -> relay_turn_on@pin_obj(COMRAM[1]), 

    INT0_InterruptHandler	PTR FTN()void  size(2) Largest target is 1
		 -> NULL(), 

    INT1_InterruptHandler	PTR FTN()void  size(2) Largest target is 1
		 -> NULL(), 

    INT2_InterruptHandler	PTR FTN()void  size(2) Largest target is 1
		 -> NULL(), 

    Interrupt_INTx_Clear_Flag@int_obj$EXT_InterruptHandler	PTR FTN()void  size(2) Largest target is 0

    Interrupt_INTx_Disable@int_obj$EXT_InterruptHandler	PTR FTN()void  size(2) Largest target is 0

    Interrupt_INTx_Edge_Init@int_obj$EXT_InterruptHandler	PTR FTN()void  size(2) Largest target is 0

    Interrupt_INTx_Enable@int_obj$EXT_InterruptHandler	PTR FTN()void  size(2) Largest target is 0

    Interrupt_INTx_Pin_Init@int_obj$EXT_InterruptHandler	PTR FTN()void  size(2) Largest target is 0

    Interrupt_INTx_SetInterruptHandler@int_obj$EXT_InterruptHandler	PTR FTN()void  size(2) Largest target is 0

    Interrupt_RBx_Init@int_obj$EXT_InterruptHandler_HIGH	PTR FTN()void  size(2) Largest target is 0

    Interrupt_RBx_Init@int_obj$EXT_InterruptHandler_LOW	PTR FTN()void  size(2) Largest target is 0

    keypad_get_value@_keypad_obj	PTR const struct . size(1) Largest target is 8
		 -> keypad_1(BANK0[8]), 

    keypad_get_value@value	PTR unsigned char  size(1) Largest target is 1
		 -> keypad_value(COMRAM[1]), 

    keypad_initialize@_keypad_obj	PTR const struct . size(1) Largest target is 8
		 -> keypad_1(BANK0[8]), 

    lat_registers	PTR volatile unsigned char [5] size(2) Largest target is 1
		 -> LATA(BITBIGSFRlllll[1]), LATB(BITBIGSFRllllh[1]), LATC(BITBIGSFRllllh[1]), LATD(BITBIGSFRllllh[1]), 
		 -> LATE(BITBIGSFRllllh[1]), 

    lcd_4bit_intialize@lcd	PTR const struct . size(1) Largest target is 6
		 -> lcd_1(BANK0[6]), 

    lcd_4bit_send_char_data@lcd	PTR const struct . size(1) Largest target is 6
		 -> lcd_1(BANK0[6]), 

    lcd_4bit_send_command@lcd	PTR const struct . size(1) Largest target is 6
		 -> lcd_1(BANK0[6]), 

    lcd_4bit_send_enable_signal@lcd	PTR const struct . size(1) Largest target is 6
		 -> lcd_1(BANK0[6]), 

    lcd_4bit_send_string_pos@lcd	PTR const struct . size(1) Largest target is 6
		 -> lcd_1(BANK0[6]), 

    lcd_4bit_send_string_pos@str	PTR unsigned char  size(2) Largest target is 20
		 -> lm35_res_1_txt(BANK0[7]), STR_4(CODE[8]), STR_5(CODE[20]), 

    lcd_4bit_set_cursor@lcd	PTR const struct . size(1) Largest target is 6
		 -> lcd_1(BANK0[6]), 

    lcd_send_4bits@lcd	PTR const struct . size(1) Largest target is 6
		 -> lcd_1(BANK0[6]), 

    memset@dest	PTR void  size(1) Largest target is 7
		 -> lm35_res_1_txt(BANK0[7]), 

    memset@p	PTR unsigned char  size(1) Largest target is 7
		 -> lm35_res_1_txt(BANK0[7]), 

    MSSP_SPI_Interrupt_Init@Config$MSSP_SPI_InterruptHandler	PTR FTN()void  size(2) Largest target is 0

    MSSP_SPI_Slave_Mode_GPIO_PIN_Configurations@Config$MSSP_SPI_InterruptHandler	PTR FTN()void  size(2) Largest target is 0

    port_registers	PTR volatile unsigned char [5] size(2) Largest target is 1
		 -> PORTA(BITBIGSFRlllll[1]), PORTB(BITBIGSFRlllll[1]), PORTC(BITBIGSFRlllll[1]), PORTD(BITBIGSFRlllll[1]), 
		 -> PORTE(BITBIGSFRlllll[1]), 

    RB4_InterruptHandler_HIGH	PTR FTN()void  size(2) Largest target is 1
		 -> NULL(), 

    RB4_InterruptHandler_LOW	PTR FTN()void  size(2) Largest target is 1
		 -> NULL(), 

    RB5_InterruptHandler_HIGH	PTR FTN()void  size(2) Largest target is 1
		 -> NULL(), 

    RB5_InterruptHandler_LOW	PTR FTN()void  size(2) Largest target is 1
		 -> NULL(), 

    RB6_InterruptHandler_HIGH	PTR FTN()void  size(2) Largest target is 1
		 -> NULL(), 

    RB6_InterruptHandler_LOW	PTR FTN()void  size(2) Largest target is 1
		 -> NULL(), 

    RB7_InterruptHandler_HIGH	PTR FTN()void  size(2) Largest target is 1
		 -> NULL(), 

    RB7_InterruptHandler_LOW	PTR FTN()void  size(2) Largest target is 1
		 -> NULL(), 

    S1206$CCP1_InterruptHandler	PTR FTN()void  size(2) Largest target is 0

    S1206$CCP2_InterruptHandler	PTR FTN()void  size(2) Largest target is 0

    S1857$EXT_InterruptHandler	PTR FTN()void  size(2) Largest target is 0

    S1973$EXT_InterruptHandler_HIGH	PTR FTN()void  size(2) Largest target is 0

    S1973$EXT_InterruptHandler_LOW	PTR FTN()void  size(2) Largest target is 0

    S2458$MSSP_SPI_InterruptHandler	PTR FTN()void  size(2) Largest target is 0

    S2872$TMR0_InterruptHandler	PTR FTN()void  size(2) Largest target is 0

    S3037$TMR1_InterruptHandler	PTR FTN()void  size(2) Largest target is 0

    S3227$TMR2_InterruptHandler	PTR FTN()void  size(2) Largest target is 0

    S3358$TMR3_InterruptHandler	PTR FTN()void  size(2) Largest target is 0

    S3552$EUSART_FramingErrorHandler	PTR FTN()void  size(2) Largest target is 0

    S3552$EUSART_OverrunErrorHandler	PTR FTN()void  size(2) Largest target is 0

    S3552$EUSART_RxDefaultInterruptHandler	PTR FTN()void  size(2) Largest target is 0

    S3552$EUSART_TxDefaultInterruptHandler	PTR FTN()void  size(2) Largest target is 0

    S4526$buffer	PTR unsigned char  size(2) Largest target is 0

    S4526$source	PTR const unsigned char  size(2) Largest target is 0

    S696$ADC_InterruptHandler	PTR FTN()void  size(2) Largest target is 1
		 -> NULL(), 

    select_result_format@_adc	PTR const struct . size(1) Largest target is 7
		 -> adc_1(BANK0[7]), 

    select_result_format@_adc$ADC_InterruptHandler	PTR FTN()void  size(2) Largest target is 1
		 -> NULL(), 

    sp__memset	PTR void  size(1) Largest target is 7
		 -> lm35_res_1_txt(BANK0[7]), 

    SPI_Init@Config$MSSP_SPI_InterruptHandler	PTR FTN()void  size(2) Largest target is 0

    SPI_InterruptHandler	PTR FTN()void  size(2) Largest target is 1
		 -> NULL(), 

    sprintf@ap	PTR void [1] size(1) Largest target is 2
		 -> ?_sprintf(COMRAM[2]), 

    sprintf@fmt	PTR const unsigned char  size(1) Largest target is 3
		 -> STR_1(CODE[3]), STR_2(CODE[3]), STR_3(CODE[3]), 

    sprintf@s	PTR unsigned char  size(1) Largest target is 6
		 -> convert_uint16_to_string@Temp_String(BANK0[6]), 

    Timer0_Init@_timer$TMR0_InterruptHandler	PTR FTN()void  size(2) Largest target is 0

    Timer0_Mode_Select@_timer$TMR0_InterruptHandler	PTR FTN()void  size(2) Largest target is 0

    Timer0_Prescaler_Config@_timer$TMR0_InterruptHandler	PTR FTN()void  size(2) Largest target is 0

    Timer0_Register_Size_Config@_timer$TMR0_InterruptHandler	PTR FTN()void  size(2) Largest target is 0

    Timer1_Init@_timer$TMR1_InterruptHandler	PTR FTN()void  size(2) Largest target is 0

    Timer1_Mode_Select@_timer$TMR1_InterruptHandler	PTR FTN()void  size(2) Largest target is 0

    Timer2_Init@_timer$TMR2_InterruptHandler	PTR FTN()void  size(2) Largest target is 0

    Timer3_Init@_timer$TMR3_InterruptHandler	PTR FTN()void  size(2) Largest target is 0

    Timer3_Mode_Select@_timer$TMR3_InterruptHandler	PTR FTN()void  size(2) Largest target is 0

    TMR0_InterruptHandler	PTR FTN()void  size(2) Largest target is 1
		 -> NULL(), 

    TMR1_InterruptHandler	PTR FTN()volatile void  size(2) Largest target is 1
		 -> NULL(), 

    TMR2_InterruptHandler	PTR FTN()volatile void  size(2) Largest target is 1
		 -> NULL(), 

    TMR3_InterruptHandler	PTR FTN()void  size(2) Largest target is 1
		 -> NULL(), 

    tris_registers	PTR volatile unsigned char [5] size(2) Largest target is 1
		 -> TRISA(BITBIGSFRlllll[1]), TRISB(ABS[1]), TRISC(ABS[1]), TRISD(ABS[1]), 
		 -> TRISE(ABS[1]), 

    vfpfcnvrt@ap	PTR PTR void  size(1) Largest target is 1
		 -> sprintf@ap(COMRAM[1]), 

    vfpfcnvrt@cp	PTR unsigned char  size(1) Largest target is 3
		 -> STR_1(CODE[3]), STR_2(CODE[3]), STR_3(CODE[3]), 

    vfpfcnvrt@fmt	PTR PTR unsigned char  size(1) Largest target is 1
		 -> vfprintf@cfmt(COMRAM[1]), 

    vfpfcnvrt@fp	PTR struct _IO_FILE size(1) Largest target is 12
		 -> sprintf@f(COMRAM[12]), 

    vfprintf@ap	PTR PTR void  size(1) Largest target is 1
		 -> sprintf@ap(COMRAM[1]), 

    vfprintf@cfmt	PTR unsigned char  size(1) Largest target is 3
		 -> STR_1(CODE[3]), STR_2(CODE[3]), STR_3(CODE[3]), 

    vfprintf@fmt	PTR const unsigned char  size(1) Largest target is 3
		 -> STR_1(CODE[3]), STR_2(CODE[3]), STR_3(CODE[3]), 

    vfprintf@fp	PTR struct _IO_FILE size(1) Largest target is 12
		 -> sprintf@f(COMRAM[12]), 


Critical Paths under _main in COMRAM

    _main->___fltol
    _keypad_get_value->_gpio_pin_write_logic
    _dc_motor_stop->_gpio_pin_write_logic
    _dc_motor_move_right->_gpio_pin_write_logic
    _convert_uint16_to_string->_sprintf
    _sprintf->_vfprintf
    _vfprintf->_vfpfcnvrt
    _vfpfcnvrt->_abs
    _abs->___awmod
    _ecu_layer_intialize->_lcd_4bit_intialize
    _lcd_4bit_intialize->_lcd_4bit_send_command
    _keypad_initialize->_gpio_pin_initialize
    _dc_motor_initialize->_gpio_pin_initialize
    _gpio_pin_initialize->_gpio_pin_write_logic
    _ADC_Init->_adc_input_channel_port_configure
    ___fltol->___flmul
    ___flmul->___xxtofl
    _Air_Conditioning_On->_lcd_4bit_send_string_pos
    _lcd_4bit_send_string_pos->_lcd_4bit_set_cursor
    _lcd_4bit_set_cursor->_lcd_4bit_send_command
    _lcd_4bit_send_command->_lcd_send_4bits
    _lcd_4bit_send_char_data->_lcd_send_4bits
    _lcd_send_4bits->_gpio_pin_write_logic
    _lcd_4bit_send_enable_signal->_gpio_pin_write_logic
    _ADC_GetConversion_Blocking->_ADC_SelectChannel
    _ADC_SelectChannel->_adc_input_channel_port_configure

Critical Paths under _InterruptManager in COMRAM

    _InterruptManager->_RB4_ISR
    _InterruptManager->_RB5_ISR
    _InterruptManager->_RB6_ISR
    _InterruptManager->_RB7_ISR

Critical Paths under _main in BANK0

    _main->_convert_uint16_to_string

Critical Paths under _InterruptManager in BANK0

    None.

Critical Paths under _main in BANK1

    None.

Critical Paths under _InterruptManager in BANK1

    None.

Critical Paths under _main in BANK2

    None.

Critical Paths under _InterruptManager in BANK2

    None.

Critical Paths under _main in BANK3

    None.

Critical Paths under _InterruptManager in BANK3

    None.

Critical Paths under _main in BANK4

    None.

Critical Paths under _InterruptManager in BANK4

    None.

Critical Paths under _main in BANK5

    None.

Critical Paths under _InterruptManager in BANK5

    None.

Critical Paths under _main in BANK6

    None.

Critical Paths under _InterruptManager in BANK6

    None.

Critical Paths under _main in BANK7

    None.

Critical Paths under _InterruptManager in BANK7

    None.

Critical Paths under _main in BANK8

    None.

Critical Paths under _InterruptManager in BANK8

    None.

Critical Paths under _main in BANK9

    None.

Critical Paths under _InterruptManager in BANK9

    None.

Critical Paths under _main in BANK10

    None.

Critical Paths under _InterruptManager in BANK10

    None.

Critical Paths under _main in BANK11

    None.

Critical Paths under _InterruptManager in BANK11

    None.

Critical Paths under _main in BANK12

    None.

Critical Paths under _InterruptManager in BANK12

    None.

Critical Paths under _main in BANK13

    None.

Critical Paths under _InterruptManager in BANK13

    None.

Critical Paths under _main in BANK14

    None.

Critical Paths under _InterruptManager in BANK14

    None.

Critical Paths under _main in BANK15

    None.

Critical Paths under _InterruptManager in BANK15

    None.

Call Graph Tables:

 ---------------------------------------------------------------------------------
 (Depth) Function   	        Calls       Base Space   Used Autos Params    Refs
 ---------------------------------------------------------------------------------
 (0) _main                                                 1     1      0  158361
         _ADC_GetConversion_Blocking
                _Air_Conditioning_On
                            ___flmul
                            ___fltol
                            ___lwdiv
                           ___xxtofl
              _application_intialize
           _convert_uint16_to_string
                _dc_motor_move_right
                      _dc_motor_stop
                   _keypad_get_value
           _lcd_4bit_send_string_pos
 ---------------------------------------------------------------------------------
 (1) _keypad_get_value                                     8     6      2    5959
                                              9 COMRAM     8     6      2
                _gpio_pin_read_logic
               _gpio_pin_write_logic
 ---------------------------------------------------------------------------------
 (2) _gpio_pin_read_logic                                  7     5      2     460
                                              1 COMRAM     7     5      2
 ---------------------------------------------------------------------------------
 (1) _dc_motor_stop                                        2     1      1    5133
                                              9 COMRAM     2     1      1
               _gpio_pin_write_logic
 ---------------------------------------------------------------------------------
 (1) _dc_motor_move_right                                  2     1      1    5133
                                              9 COMRAM     2     1      1
               _gpio_pin_write_logic
 ---------------------------------------------------------------------------------
 (1) _convert_uint16_to_string                            11     8      3    6249
                                             43 COMRAM     3     0      3
                                              0 BANK0      8     8      0
                             _memset
                            _sprintf
 ---------------------------------------------------------------------------------
 (2) _sprintf                                             19    15      4    4717
                                             26 COMRAM    17    13      4
                           _vfprintf
 ---------------------------------------------------------------------------------
 (3) _vfprintf                                             4     1      3    3871
                                             22 COMRAM     4     1      3
                          _vfpfcnvrt
 ---------------------------------------------------------------------------------
 (4) _vfpfcnvrt                                           11     8      3    3410
                                             11 COMRAM    11     8      3
                            ___awdiv
                            ___awmod
                                _abs
                              _fputc
 ---------------------------------------------------------------------------------
 (5) _fputc                                                8     5      3     957
                                              1 COMRAM     8     5      3
                              _putch
 ---------------------------------------------------------------------------------
 (6) _putch                                                1     1      0       0
 ---------------------------------------------------------------------------------
 (5) _abs                                                  4     2      2     183
                                              7 COMRAM     4     2      2
                            ___awmod (ARG)
 ---------------------------------------------------------------------------------
 (5) ___awmod                                              6     2      4     613
                                              1 COMRAM     6     2      4
 ---------------------------------------------------------------------------------
 (5) ___awdiv                                              8     4      4     625
                                              1 COMRAM     8     4      4
 ---------------------------------------------------------------------------------
 (2) _memset                                               6     1      5     947
                                              1 COMRAM     6     1      5
 ---------------------------------------------------------------------------------
 (1) _application_intialize                                1     1      0   37965
                _ecu_layer_intialize
 ---------------------------------------------------------------------------------
 (2) _ecu_layer_intialize                                  1     1      0   37964
                           _ADC_Init
                _dc_motor_initialize
                  _keypad_initialize
                 _lcd_4bit_intialize
 ---------------------------------------------------------------------------------
 (3) _lcd_4bit_intialize                                   4     3      1   20508
                                             15 COMRAM     4     3      1
      _gpio_pin_direction_initialize
              _lcd_4bit_send_command
 ---------------------------------------------------------------------------------
 (3) _keypad_initialize                                    4     3      1    9337
                                             12 COMRAM     4     3      1
      _gpio_pin_direction_initialize
                _gpio_pin_initialize
 ---------------------------------------------------------------------------------
 (3) _dc_motor_initialize                                  2     1      1    7574
                                             12 COMRAM     2     1      1
                _gpio_pin_initialize
 ---------------------------------------------------------------------------------
 (4) _gpio_pin_initialize                                  3     2      1    7332
                                              9 COMRAM     3     2      1
      _gpio_pin_direction_initialize
               _gpio_pin_write_logic
 ---------------------------------------------------------------------------------
 (4) _gpio_pin_direction_initialize                        7     6      1    1699
                                              1 COMRAM     7     6      1
 ---------------------------------------------------------------------------------
 (3) _ADC_Init                                             3     2      1     539
                                              4 COMRAM     3     2      1
   _adc_input_channel_port_configure
        _configure_voltage_reference
               _select_result_format
 ---------------------------------------------------------------------------------
 (4) _select_result_format                                 1     0      1     120
                                              1 COMRAM     1     0      1
 ---------------------------------------------------------------------------------
 (4) _configure_voltage_reference                          1     0      1     120
                                              1 COMRAM     1     0      1
 ---------------------------------------------------------------------------------
 (1) ___xxtofl                                            14    10      4    1234
                                              1 COMRAM    14    10      4
 ---------------------------------------------------------------------------------
 (1) ___lwdiv                                              7     3      4     314
                                              1 COMRAM     7     3      4
 ---------------------------------------------------------------------------------
 (1) ___fltol                                             10     6      4     609
                                             40 COMRAM    10     6      4
                            ___flmul (ARG)
                           ___xxtofl (ARG)
 ---------------------------------------------------------------------------------
 (1) ___flmul                                             25    17      8    2504
                                             15 COMRAM    25    17      8
                           ___xxtofl (ARG)
 ---------------------------------------------------------------------------------
 (1) _Air_Conditioning_On                                  3     3      0   55110
                                             27 COMRAM     2     2      0
              _lcd_4bit_send_command
           _lcd_4bit_send_string_pos
 ---------------------------------------------------------------------------------
 (1) _lcd_4bit_send_string_pos                             6     1      5   36765
                                             21 COMRAM     6     1      5
            _lcd_4bit_send_char_data
                _lcd_4bit_set_cursor
 ---------------------------------------------------------------------------------
 (2) _lcd_4bit_set_cursor                                  6     3      3   19024
                                             15 COMRAM     6     3      3
              _lcd_4bit_send_command
 ---------------------------------------------------------------------------------
 (3) _lcd_4bit_send_command                                3     1      2   18342
                                             12 COMRAM     3     1      2
               _gpio_pin_write_logic
        _lcd_4bit_send_enable_signal
                     _lcd_send_4bits
 ---------------------------------------------------------------------------------
 (2) _lcd_4bit_send_char_data                              3     1      2   16648
                                             12 COMRAM     2     0      2
               _gpio_pin_write_logic
        _lcd_4bit_send_enable_signal
                     _lcd_send_4bits
 ---------------------------------------------------------------------------------
 (4) _lcd_send_4bits                                       3     1      2    5702
                                              9 COMRAM     3     1      2
               _gpio_pin_write_logic
 ---------------------------------------------------------------------------------
 (4) _lcd_4bit_send_enable_signal                          2     1      1    5264
                                              9 COMRAM     2     1      1
               _gpio_pin_write_logic
 ---------------------------------------------------------------------------------
 (5) _gpio_pin_write_logic                                 8     6      2    4891
                                              1 COMRAM     8     6      2
 ---------------------------------------------------------------------------------
 (1) _ADC_GetConversion_Blocking                           4     1      3    1356
                                              8 COMRAM     4     1      3
            _ADC_GetConversionResult
                  _ADC_SelectChannel
                _ADC_StartConversion
 ---------------------------------------------------------------------------------
 (2) _ADC_StartConversion                                  2     1      1     199
                                              1 COMRAM     2     1      1
 ---------------------------------------------------------------------------------
 (2) _ADC_SelectChannel                                    4     2      2     417
                                              4 COMRAM     4     2      2
   _adc_input_channel_port_configure
 ---------------------------------------------------------------------------------
 (4) _adc_input_channel_port_configure                     3     3      0      22
                                              1 COMRAM     3     3      0
 ---------------------------------------------------------------------------------
 (2) _ADC_GetConversionResult                              6     4      2     331
                                              1 COMRAM     6     4      2
 ---------------------------------------------------------------------------------
 Estimated maximum stack depth 6
 ---------------------------------------------------------------------------------
 (Depth) Function   	        Calls       Base Space   Used Autos Params    Refs
 ---------------------------------------------------------------------------------
 (7) _InterruptManager                                     0     0      0     120
                            _ADC_ISR
                           _CCP1_ISR
                           _CCP2_ISR
                      _EUSART_RX_ISR
                      _EUSART_TX_ISR
                           _INT0_ISR
                           _INT1_ISR
                           _INT2_ISR
                       _MSSP_SPI_ISR
                            _RB4_ISR
                            _RB5_ISR
                            _RB6_ISR
                            _RB7_ISR
                           _TMR0_ISR
                           _TMR1_ISR
                           _TMR2_ISR
                           _TMR3_ISR
 ---------------------------------------------------------------------------------
 (8) _TMR3_ISR                                             0     0      0       0
 ---------------------------------------------------------------------------------
 (8) _TMR2_ISR                                             0     0      0       0
 ---------------------------------------------------------------------------------
 (8) _TMR1_ISR                                             0     0      0       0
 ---------------------------------------------------------------------------------
 (8) _TMR0_ISR                                             0     0      0       0
 ---------------------------------------------------------------------------------
 (8) _RB7_ISR                                              1     1      0      30
                                              0 COMRAM     1     1      0
 ---------------------------------------------------------------------------------
 (8) _RB6_ISR                                              1     1      0      30
                                              0 COMRAM     1     1      0
 ---------------------------------------------------------------------------------
 (8) _RB5_ISR                                              1     1      0      30
                                              0 COMRAM     1     1      0
 ---------------------------------------------------------------------------------
 (8) _RB4_ISR                                              1     1      0      30
                                              0 COMRAM     1     1      0
 ---------------------------------------------------------------------------------
 (8) _MSSP_SPI_ISR                                         0     0      0       0
 ---------------------------------------------------------------------------------
 (8) _INT2_ISR                                             0     0      0       0
 ---------------------------------------------------------------------------------
 (8) _INT1_ISR                                             0     0      0       0
 ---------------------------------------------------------------------------------
 (8) _INT0_ISR                                             0     0      0       0
 ---------------------------------------------------------------------------------
 (8) _EUSART_TX_ISR                                        0     0      0       0
 ---------------------------------------------------------------------------------
 (8) _EUSART_RX_ISR                                        0     0      0       0
 ---------------------------------------------------------------------------------
 (8) _CCP2_ISR                                             0     0      0       0
 ---------------------------------------------------------------------------------
 (8) _CCP1_ISR                                             0     0      0       0
 ---------------------------------------------------------------------------------
 (8) _ADC_ISR                                              0     0      0       0
 ---------------------------------------------------------------------------------
 Estimated maximum stack depth 8
 ---------------------------------------------------------------------------------

 Call Graph Graphs:

 _main (ROOT)
   _ADC_GetConversion_Blocking
     _ADC_GetConversionResult
     _ADC_SelectChannel
       _adc_input_channel_port_configure
     _ADC_StartConversion
   _Air_Conditioning_On
     _lcd_4bit_send_command
       _gpio_pin_write_logic
       _lcd_4bit_send_enable_signal
         _gpio_pin_write_logic
       _lcd_send_4bits
         _gpio_pin_write_logic
     _lcd_4bit_send_string_pos
       _lcd_4bit_send_char_data
         _gpio_pin_write_logic
         _lcd_4bit_send_enable_signal
         _lcd_send_4bits
       _lcd_4bit_set_cursor
         _lcd_4bit_send_command
   ___flmul
     ___xxtofl (ARG)
   ___fltol
     ___flmul (ARG)
     ___xxtofl (ARG)
   ___lwdiv
   ___xxtofl
   _application_intialize
     _ecu_layer_intialize
       _ADC_Init
         _adc_input_channel_port_configure
         _configure_voltage_reference
         _select_result_format
       _dc_motor_initialize
         _gpio_pin_initialize
           _gpio_pin_direction_initialize
           _gpio_pin_write_logic
       _keypad_initialize
         _gpio_pin_direction_initialize
         _gpio_pin_initialize
       _lcd_4bit_intialize
         _gpio_pin_direction_initialize
         _lcd_4bit_send_command
   _convert_uint16_to_string
     _memset
     _sprintf
       _vfprintf
         _vfpfcnvrt
           ___awdiv
           ___awmod
           _abs
             ___awmod (ARG)
           _fputc
             _putch
   _dc_motor_move_right
     _gpio_pin_write_logic
   _dc_motor_stop
     _gpio_pin_write_logic
   _keypad_get_value
     _gpio_pin_read_logic
     _gpio_pin_write_logic
   _lcd_4bit_send_string_pos

 _InterruptManager (ROOT)
   _ADC_ISR
   _CCP1_ISR
   _CCP2_ISR
   _EUSART_RX_ISR
   _EUSART_TX_ISR
   _INT0_ISR
   _INT1_ISR
   _INT2_ISR
   _MSSP_SPI_ISR
   _RB4_ISR
   _RB5_ISR
   _RB6_ISR
   _RB7_ISR
   _TMR0_ISR
   _TMR1_ISR
   _TMR2_ISR
   _TMR3_ISR

 Address spaces:
Name               Size   Autos  Total    Cost      Usage
BIGRAM             F7F      0       0      51        0.0%
EEDATA             400      0       0       0        0.0%
BITBANK14          100      0       0      32        0.0%
BANK14             100      0       0      33        0.0%
BITBANK13          100      0       0      30        0.0%
BANK13             100      0       0      31        0.0%
BITBANK12          100      0       0      28        0.0%
BANK12             100      0       0      29        0.0%
BITBANK11          100      0       0      26        0.0%
BANK11             100      0       0      27        0.0%
BITBANK10          100      0       0      24        0.0%
BANK10             100      0       0      25        0.0%
BITBANK9           100      0       0      22        0.0%
BANK9              100      0       0      23        0.0%
BITBANK8           100      0       0      20        0.0%
BANK8              100      0       0      21        0.0%
BITBANK7           100      0       0      18        0.0%
BANK7              100      0       0      19        0.0%
BITBANK6           100      0       0      16        0.0%
BANK6              100      0       0      17        0.0%
BITBANK5           100      0       0      14        0.0%
BANK5              100      0       0      15        0.0%
BITBANK4           100      0       0      12        0.0%
BANK4              100      0       0      13        0.0%
BITBANK3           100      0       0      10        0.0%
BANK3              100      0       0      11        0.0%
BITBANK2           100      0       0       8        0.0%
BANK2              100      0       0       9        0.0%
BITBANK1           100      0       0       6        0.0%
BANK1              100      0       0       7        0.0%
BITBANK15           80      0       0      34        0.0%
BANK15              80      0       0      35        0.0%
BITBANK0            80      0       0       4        0.0%
BANK0               80      8      76       5       92.2%
BITCOMRAM           7E      0       0       0        0.0%
COMRAM              7E     32      7A       1       96.8%
BITBIGSFRhlhhlh     18      0       0      37        0.0%
BITBIGSFRhh          D      0       0      36        0.0%
BITBIGSFRllhllh      9      0       0      45        0.0%
BITBIGSFRlllhh       6      0       0      47        0.0%
BITBIGSFRhlhhll      5      0       0      38        0.0%
BITBIGSFRllhllh      4      0       0      44        0.0%
BITBIGSFRllllh       4      0       0      48        0.0%
BITBIGSFRlllll       4      0       0      49        0.0%
BITBIGSFRllhllh      1      0       0      43        0.0%
BITBIGSFRhlhlhl      1      0       0      39        0.0%
BITBIGSFRllhlh       1      0       0      42        0.0%
BITBIGSFRllhh        1      0       0      41        0.0%
BITBIGSFRhlhll       1      0       0      40        0.0%
BITBIGSFRllhlll      1      0       0      46        0.0%
BIGSFR               0      0       0     200        0.0%
BITSFR               0      0       0     200        0.0%
SFR                  0      0       0     200        0.0%
STACK                0      0       0       2        0.0%
NULL                 0      0       0       0        0.0%
ABS                  0      0      F0      50        0.0%
DATA                 0      0      F0       3        0.0%
CODE                 0      0       0       0        0.0%


Microchip Technology PIC18 Macro Assembler V2.45 build 20230818022343 
Symbol Table                                                                                   Thu Dec 14 00:18:20 2023

                               ??_InterruptManager 003A                                    ?_lcd_send_4bits 0042  
                                      _SSPSTATbits 0FC7                                                 l74 2B0A  
                                               l69 21E8                                                 l78 2BA2  
                                               l99 28B2                                       ___awdiv@sign 003F  
                                              l201 281C                                                l210 2E4C  
                                              l215 2D18                                                l225 2CE0  
                                              l410 243C                                                l420 2A50  
                                              l260 2102                                                l246 298E  
                                              l342 2E76                                                l175 2B5A  
                                              l167 2784                                                l417 2A32  
                                              l178 2E9C                                                l451 2C68  
                                              l444 22C0                                                l390 2EB6  
                                              l462 2BE4                                                l710 26E6  
                                              l391 2EBC                                                l703 1F0E  
                                              l455 2BBC                                                l375 2506  
                                              l392 2EBE                                                l464 2BE8  
                                              l449 2C66                                                l377 2598  
                                              l387 2D50                                                l459 2BDC  
                                              l724 2AAE                                                l684 1DFE  
              __end_of_configure_voltage_reference 2BEA                        _configure_voltage_reference 2BA4  
                                              _PR2 0FCB                               keypad_initialize@ret 0046  
                                              _abs 2D86                          _RB5_InterruptHandler_HIGH 001B  
                                  __end_of_ADC_ISR 2F8A                __end_of_lcd_4bit_send_enable_signal 2E9E  
                      _lcd_4bit_send_enable_signal 2E78                                       ___awmod@sign 003F  
                              led_initialize@F3117 0035                                                wreg 0FE8  
                            relay_initialize@F3057 0031                                       ___flmul@aexp 0059  
                                     ___flmul@bexp 005A                        lcd_send_4bits@_data_command 0043  
                                     ___flmul@sign 0054                                       ___flmul@temp 005F  
                                     ___flmul@prod 005B                          ?_convert_uint16_to_string 0064  
                                  __end_of_RB4_ISR 2F28                                    __end_of_RB5_ISR 2F0E  
                                  __end_of_RB6_ISR 2EF4                                    __end_of_RB7_ISR 2EDA  
                                     ___fltol@exp1 006A                                               ?_abs 0040  
                                             l2202 141C                                               l2062 291E  
                                             l2303 2DA0                                               l2240 1B2E  
                                             l2233 1AD2                                               l2226 1A3A  
                                             l2306 2DB8                                               l2069 2926  
                                             l2229 1B96                                               l2318 2642  
                                             l2255 2D84                                               l2192 12EC  
                                             l2248 2E1C                                               l2185 10F6  
                                             l2329 2F8A                                               l2194 1364  
                                             l1802 2384                                               l2195 1352  
                                             l2189 145A                                               l1565 2F68  
                                             l2293 19E2                                               l1815 24EC  
                                             l1568 2CA8                                               l5211 1E14  
                                             l6011 2C86                                               l6003 2F64  
                                             l2299 2C28                                               l5221 1EE2  
                                             l5213 1E34                                               l6013 2C9C  
                                             l6101 12EA                                               l6021 104E  
                                             l6005 2F64                                               l5215 1E3C  
                                             l5223 1F0C                                               l6007 2C6A  
                                             l6111 134A                                               l6103 12FC  
                                             l6031 1094                                               l6023 105E  
                                             l6015 1032                                               l5231 1CDA  
                                             l5401 21F6                                               l5217 1E92  
                                             l5209 1E00                                               l6009 2C6A  
                                             l6121 13B8                                               l6105 130A  
                                             l6041 10C0                                               l6033 109A  
                                             l6025 106E                                               l6017 103E  
                                             l6201 28F2                                               l5233 1CEE  
                                             l5411 2214                                               l5403 21FC  
                                             l6131 1420                                               l6115 1374  
                                             l6123 13BC                                               l6107 130E  
                                             l6051 1116                                               l6043 10D0  
                                             l6035 10A0                                               l6027 107E  
                                             l6019 104C                                               l6203 2908  
                                             l6211 19E6                                               l5243 1DBC  
                                             l5235 1D0E                                               l1868 2014  
                                             l5421 2232                                               l5413 221A  
                                             l5405 2202                                               l5261 2B42  
                                             l5253 2B0C                                               l6141 144A  
                                             l6133 1430                                               l6125 13D6  
                                             l6117 1380                                               l6109 131C  
                                             l6061 1156                                               l6045 10E0  
                                             l6037 10AE                                               l6029 1084  
                                             l6205 2910                                               l6213 19F6  
                                             l5237 1D16                                               l5245 1DFC  
                                             l5423 2238                                               l5415 2220  
                                             l5407 2208                                               l5271 2E8C  
                                             l5255 2B0C                                               l6135 143E  
                                             l6127 13EA                                               l6119 138E  
                                             l6071 11A0                                               l6063 1162  
                                             l6055 112A                                               l6047 10E6  
                                             l6039 10B0                                               l6151 1F3A  
                                             l6207 2912                                               l6231 1ABC  
                                             l6223 1A74                                               l6215 1A04  
                                             l5431 2C2A                                               l5239 1D6C  
                                             l5511 2156                                               l5417 2226  
                                             l5409 220E                                               l5425 223E  
                                             l5273 2E9A                                               l5265 2E78  
                                             l5257 2B1C                                               l6137 1440  
                                             l6129 1404                                               l6081 11F2  
                                             l6073 11AC                                               l6065 117A  
                                             l6057 1136                                               l6049 1106  
                                             l6161 1F88                                               l6153 1F64  
                                             l6145 1F10                                               l6209 2918  
                                             l6241 1B3C                                               l6233 1AC8  
                                             l6225 1A7C                                               l6217 1A4A  
                                             l5441 2BC4                                               l5433 2C42  
                                             l5521 219C                                               l5513 2164  
                                             l5505 2138                                               l5419 222C  
                                             l5267 2E78                                               l5259 2B2E  
                                             l6139 1446                                               l6091 1270  
                                             l6083 1202                                               l6075 11BC  
                                             l6067 1186                                               l6059 1140  
                                             l6171 1FB4                                               l6155 1F66  
                                             l6147 1F26                                               l6251 1B84  
                                             l6243 1B3E                                               l6235 1B04  
                                             l6227 1A88                                               l6219 1A60  
                                             l5435 2C48                                               l5611 298C  
                                             l5531 21D8                                               l5523 21A8  
                                             l5515 2170                                               l5507 2144  
                                             l5269 2E84                                               l5541 2B6C  
                                             l6093 12A6                                               l6085 121E  
                                             l6077 11C8                                               l6069 1192  
                                             l6181 1FE4                                               l6157 1F76  
                                             l6253 1B86                                               l6245 1B42  
                                             l6237 1B10                                               l6229 1ABA  
                                             l5437 2C60                                               l5621 255A  
                                             l5381 2A8E                                               l5605 296C  
                                             l5525 21B4                                               l5517 218A  
                                             l5509 2146                                               l5533 21E6  
                                             l7301 2338                                               l5543 2B78  
                                             l5391 2AC8                                               l5551 2786  
                                             l6095 12B4                                               l6087 122A  
                                             l6079 11D8                                               l6183 1FF4  
                                             l6167 1FA0                                               l6159 1F7A  
                                             l6191 28BC                                               l6247 1B66  
                                             l6239 1B1E                                               l5439 2BA4  
                                             l5631 2572                                               l5623 256A  
                                             l5615 24EE                                               l5383 2AAC  
                                             l5375 2A52                                               l5607 297A  
                                             l5527 21C0                                               l5519 2190  
                                             l7303 234E                                               l7311 2364  
                                             l5545 2B86                                               l5537 2B5C  
                                             l5393 2B08                                               l5561 27CC  
                                             l5553 278A                                               l6097 12D2  
                                             l6089 1246                                               l6185 2004  
                                             l6177 1FC8                                               l6169 1FAA  
                                             l6193 28CE                                               l6249 1B76  
                                             l5633 2580                                               l5625 256C  
                                             l5641 2596                                               l5617 24FE  
                                             l5377 2A66                                               l5609 297C  
                                             l5529 21CC                                               l7313 2374  
                                             l7305 2356                                               l7321 2442  
                                             l7401 194E                                               l5547 2B8E  
                                             l5539 2B6C                                               l5387 2AB0  
                                             l5555 2790                                               l5563 27E0  
                                             l6099 12DC                                               l6179 1FD4  
                                             l6195 28D6                                               l5635 2588  
                                             l5627 256E                                               l5619 2508  
                                             l5379 2A86                                               l7315 237C  
                                             l7307 2358                                               l7331 2472  
                                             l7323 2450                                               l7403 195E  
                                             l7411 199C                                               l5397 21EC  
                                             l5549 2B9A                                               l5389 2AC0  
                                             l5557 27A4                                               l5565 281A  
                                             l6197 28DE                                               l6189 28B4  
                                             l5637 2590                                               l5629 2570  
                                             l5573 2E1E                                               l5493 2104  
                                             l7309 235E                                               l7341 24B8  
                                             l7333 2484                                               l7325 2458  
                                             l7405 196E                                               l7413 19B2  
                                             l5901 2CAA                                               l5661 2688  
                                             l5399 21F0                                               l5559 27B8  
                                             l5671 282E                                               l6199 28EC  
                                             l5639 2592                                               l5575 2E32  
                                             l5583 2928                                               l5495 2118  
                                             l5751 2E66                                               l5743 2E4E  
                                             l7351 24E4                                               l7343 24C0  
                                             l7335 248C                                               l7327 245C  
                                             l7319 243E                                               l7407 1980  
                                             l7423 2BEA                                               l5903 2CBE  
                                             l5663 2690                                               l5655 2644  
                                             l5911 2016                                               l7511 1BBA  
                                             l7503 1B98                                               l5761 2D44  
                                             l5681 28B0                                               l5673 2836  
                                             l5577 2E3A                                               l5593 294C  
                                             l5585 2940                                               l5497 2120  
                                             l5753 2E6E                                               l5745 2E4E  
                                             l7433 2DEE                                               l7281 22DC  
                                             l7345 24C6                                               l7337 2494  
                                             l7329 246A                                               l7361 25C4  
                                             l7409 199A                                               l7417 19BE  
                                             l7425 2BF2                                               l7441 2D52  
                                             l5905 2CC6                                               l5665 26E4  
                                             l5657 2658                                               l5913 2036  
                                             l7521 1C4C                                               l7513 1BBE  
                                             l7505 1B98                                               l5763 2D4A  
                                             l5755 2D1A                                               l5771 2EAE  
                                             l5675 284C                                               l5579 2E4A  
                                             l5595 2956                                               l5587 2948  
                                             l5499 2134                                               l5747 2E56  
                                             l7435 2DF6                                               l7291 2302  
                                             l7283 22E0                                               l7275 22C2  
                                             l7339 24A2                                               l7347 24CC  
                                             l7371 2D94                                               l7363 25E0  
                                             l7355 259A                                               l7427 2C02  
                                             l7443 2D5A                                               l5907 2CDE  
                                             l5659 2668                                               l5931 2064  
                                             l5923 2052                                               l5915 2046  
                                             l7531 1CA8                                               l7523 1C68  
                                             l7515 1BCE                                               l7507 1B9C  
                                             l5781 23A6                                               l5765 2D4E  
                                             l5757 2D2A                                               l5773 2EB8  
                                             l7621 1EF6                                               l5677 287A  
                                             l5669 281E                                               l5597 2958  
                                             l5749 2E5E                                               l7437 2E00  
                                             l7293 2314                                               l7285 22EE  
                                             l7277 22C6                                               l7349 24DC  
                                             l7365 2612                                               l7357 25AA  
                                             l7381 1860                                               l7373 1822  
                                             l7429 2C20                                               l7445 2D62  
                                             l7461 270E                                               l7453 26E8  
                                             l5933 2066                                               l5917 204E  
                                             l7533 1CBE                                               l7525 1C7E  
                                             l7517 1C20                                               l7509 1BA8  
                                             l5783 23AE                                               l7623 2252  
                                             l5759 2D32                                               l5679 287E  
                                             l5599 2968                                               l7439 2E02  
                                             l7295 231C                                               l7287 22F6  
                                             l7279 22D4                                               l7359 25BA  
                                             l7391 18C8                                               l7383 186A  
                                             l7375 1846                                               l7447 2D6A  
                                             l7471 2766                                               l7463 2716  
                                             l7455 26EE                                               l5951 20DC  
                                             l5935 2076                                               l7535 1CCA  
                                             l7527 1C94                                               l7519 1C3C  
                                             l5793 2436                                               l5785 23C6  
                                             l5777 2386                                               l5769 2E9E  
                                             l7617 1DE6                                               l7297 2324  
                                             l7289 22FA                                               l7369 2D86  
                                             l7393 18E0                                               l7385 1888  
                                             l7377 184E                                               l7449 2D7A  
                                             l7473 2768                                               l7465 272E  
                                             l7457 26FA                                               l5953 20DE  
                                             l5945 2098                                               l5937 2084  
                                             l5929 2056                                               l7529 1CA0  
                                             l5787 23EC                                               l5795 243A  
                                             l5779 2396                                               l5971 2A40  
                                             l5963 29F2                                               l7619 27F4  
                                             l7299 2332                                               l7395 1910  
                                             l7387 18A6                                               l7379 185C  
                                             l7467 273A                                               l7475 2782  
                                             l7459 26FE                                               l5891 2CE2  
                                             l5955 20EE                                               l5947 20AA  
                                             l5939 2094                                               l5789 2404  
                                             l5973 2A4E                                               l5965 2A02  
                                             l7397 192C                                               l7389 18BE  
                                             l7469 2752                                               l5893 2CF6  
                                             l5957 20F0                                               l5949 20BA  
                                             l5967 2A12                                               l7399 193E  
                                             l5895 2CFE                                               l5959 2100  
                                             l5969 2A1A                                               l5897 2D16  
                                             STR_1 102D                                               STR_2 102D  
                                             STR_4 1025                                               STR_5 1011  
                                             _LATA 0F89                                               _LATB 0F8A  
                                             _LATC 0F8B                                               u4000 2C60  
                                             _LATD 0F8C                                               u4001 2C5C  
                                             _LATE 0F8D                                               u4010 2BBC  
                                             u4011 2BB8                                               u4020 2BDC  
                                             u4021 2BD8                                               u5000 1B84  
                                             u4200 24FE                                               u5001 1B80  
                                             u4201 24FA                                               u4130 2118  
                                             u4131 2114                                               u4140 2156  
                                             u4220 2658                                               u4141 2152  
                                             u4221 2654                                               u4150 2B6C  
                                             u4230 2668                                               u4151 2B68  
                                             u4231 2664                                               u4160 2E32  
                                             u4240 2688                                               u4161 2E2E  
                                             u4241 2684                                               u4170 2940  
                                             u4171 293C                                               u4340 2D2A  
                                             u3700 1E34                                               u4260 282E  
                                             u4180 2968                                               u4405 241C  
                                             u4341 2D26                                               u3701 1E30  
                                             u4261 282A                                               u4181 2964  
                                             u4350 2EAE                                               u4270 2872  
                                             u4190 298C                                               u4510 2CF6  
                                             u4254 26D8                                               u4351 2EAA  
                                             u4191 2988                                               u4511 2CF2  
                                             u4255 26D4                                               u4360 2396  
                                             u4600 2A12                                               u4280 28A0  
                                             u4520 2CBE                                               u4361 2392  
                                             u4601 2A0E                                               u4521 2CBA  
                                             u4370 23A6                                               u4610 2A40  
                                             u3714 1E5A                                               u4290 28B0  
                                             u3730 1CEE                                               u4530 2036  
                                             u4371 23A2                                               u4611 2A3C  
                                             u3715 1E56                                               u4291 28AC  
                                             u3731 1CEA                                               u4531 2032  
                                             u4380 23C6                                               u3724 1EB0  
                                             u4700 1290                                               u4620 104C  
                                             u3740 1D0E                                               u4540 2046  
                                             u4381 23C2                                               u3725 1EAC  
                                             u4277 2868                                               u4621 1048  
                                             u3741 1D0A                                               u4541 2042  
                                             u4390 2404                                               u4710 12EA  
                                             u4630 105E                                               u4550 2076  
                                             u4391 2400                                               u4287 2896  
                                             u4711 12E6                                               u4631 105A  
                                             u4551 2072                                               u4800 143E  
                                             u4720 130A                                               u4640 106E  
                                             u4560 20BA                                               u4801 143A  
                                             u4721 1306                                               u4705 1286  
                                             u4641 106A                                               u4561 20B6  
                                             u3690 1E14                                               u4730 131C  
                                             u4650 10AE                                               u4810 1F26  
                                             u3770 1DD2                                               u3754 1D34  
                                             u4570 20EE                                               u3691 1E10  
                                             u4731 1318                                               u4651 10AA  
                                             u4811 1F22                                               u3771 1DCC  
                                             u3755 1D30                                               u4571 20EA  
                                             u4740 134A                                               u4660 10C0  
                                             u4820 1F5A                                               u4900 2908  
                                             u3780 1DD4                                               u3764 1D8A  
                                             u4580 2100                                               u4741 1346  
                                             u4661 10BC                                               u4901 2904  
                                             u3765 1D86                                               u4581 20FC  
                                             u4590 2A02                                               u4750 1360  
                                             u4670 10D0                                               u4830 1F88  
                                             u4910 19F6                                               u4591 29FE  
                                             u4751 135C                                               u4671 10CC  
                                             u4831 1F84                                               u4911 19F2  
                                             u4760 1374                                               u4680 1106  
                                             u4840 1F9C                                               u4920 1A04  
                                             u3960 2A66                                               u6600 2450  
                                             u4761 1370                                               u4681 1102  
                                             u4841 1F98                                               u4825 1F50  
                                             u4921 1A00                                               u3961 2A62  
                                             u6601 244C                                               u4770 138E  
                                             u4690 1116                                               u4850 1FC4  
                                             u4930 1A60                                               u3970 2A86  
                                             u6610 246A                                               u4771 138A  
                                             u4691 1112                                               u4851 1FC0  
                                             u4931 1A5C                                               u3971 2A82  
                                             u6611 2466                                               u3980 2AC0  
                                             u4780 13D6                                               u4860 1FE4  
                                             u4940 1AB6                                               u6540 22D4  
                                             u6620 2484                                               u6700 2D94  
                                             u3981 2ABC                                               u4781 13D2  
                                             u4861 1FE0                                               u4941 1AB2  
                                             u6541 22D0                                               u6621 2480  
                                             u6701 2D90                                               u4790 1404  
                                             u4870 1FF4                                               u4950 1B00  
                                             u3990 2C42                                               u6550 22EE  
                                             u6630 24A2                                               u6710 1846  
                                             u4791 1400                                               u4871 1FF0  
                                             u4951 1AFC                                               u3991 2C3E  
                                             u6551 22EA                                               u6631 249E  
                                             u6711 1842                                               u4880 28CE  
                                             u4960 1B1E                                               u6560 2314  
                                             u6640 24B8                                               u6800 19AE  
                                             u6720 1888                                               u4881 28CA  
                                             u4961 1B1A                                               u6561 2310  
                                             u6641 24B4                                               u6801 19AA  
                                             u6721 1884                                               u4890 28EC  
                                             u4970 1B2E                                               u6570 2332  
                                             u6650 24DC                                               u6730 18A6  
                                             u6810 2C20                                               u4891 28E8  
                                             u4971 1B2A                                               u6571 232E  
                                             u6651 24D8                                               u6731 18A2  
                                             u6811 2C1C                                               u4980 1B3C  
                                             u6820 2E1C                                               u6580 234E  
                                             u6660 25AA                                               u6740 18DC  
                                             u6900 1CBE                                               u4981 1B38  
                                             u6821 2E18                                               u6581 234A  
                                             u6661 25A6                                               u6741 18D6  
                                             u6901 1CBA                                               u4990 1B76  
                                             u6590 2374                                               u6670 25BA  
                                             u6750 18DE                                               u4991 1B72  
                                             u6591 2370                                               u6671 25B6  
                                             u6831 26F4                                               u6680 25E0  
                                             u6760 193E                                               u6840 270E  
                                             u6681 25DC                                               u6761 193A  
                                             u6841 270A                                               u6690 2612  
                                             u6770 194E                                               u6850 2782  
                                             u6691 260E                                               u6771 194A  
                                             u6851 277E                                               u6780 195E  
                                             u6781 195A                                               u6917 208A  
                                             u6790 196E                                               u6927 215C  
                                             u6791 196A                                               u6880 1BBA  
                                             u6937 2176                                               u6881 1BB6  
                                             u6890 1C94                                               u6947 218C  
                                             u6891 1C90                                               u6957 2C90  
                                             u6967 2E86                                               _TMR2 0FCC  
                          ??_application_intialize 004C                      ??_lcd_4bit_send_enable_signal 0043  
                         _RB4_InterruptHandler_LOW 001D                                               abs@a 0040  
                                             _led1 0076                                               _dbuf 0080  
                   gpio_pin_read_logic@_pin_config 003A                                               _main 1B98  
                                 __end_of_CCP1_ISR 2F86                                   __end_of_CCP2_ISR 2F82  
                                             _prec 00A8                           _RB7_InterruptHandler_LOW 0011  
                                             fsr0h 0FEA                                               fsr1h 0FE2  
                                             indf0 0FEF                                               fsr2h 0FDA  
                                             fsr0l 0FE9                                               indf1 0FE7  
                                             indf2 0FDF                                               fsr1l 0FE1  
                                             fsr2l 0FD9                                               btemp 007B  
                                 __end_of_ADC_Init 259A                                               prodh 0FF4  
                                             prodl 0FF3                                               start 000E  
                                     ___param_bank 0000                                     _lm35_res_1_txt 00B4  
                            _lcd_4bit_send_command 2AB0                             dc_motor_initialize@ret 0046  
                                            ??_abs 0042                               _gpio_pin_write_logic 1E00  
                   lcd_4bit_send_string_pos@column 0050                              lcd_4bit_intialize@lcd 0048  
                            lcd_4bit_intialize@ret 004B                                   __end_of_INT0_ISR 2F7A  
                                 __end_of_INT1_ISR 2F76                                   __end_of_INT2_ISR 2F72  
                                    _EUSART_RX_ISR 2F8C                                      ___fltol@sign1 0069  
                                    _EUSART_TX_ISR 2F7A                                              ?_main 0039  
                                  __end_of___awdiv 2386                                    __end_of___awmod 24EE  
                                  __end_of___flmul 145C                                    __end_of___fltol 2016  
                                  ___awdiv@divisor 003C                                    __end_of___lwdiv 2928  
                                            i2l801 2F78                                              i2l811 2F70  
                                            i2l468 2F88                                              i2l564 2F84  
                                            i2l806 2F74                                              i2l822 2F26  
                                            i2l569 2F80                                              i2l833 2F0C  
                                            i2l844 2EF2                                              i2l855 2ED8  
                                  ___awdiv@counter 003E                                              _RCREG 0FAE  
                              relay_turn_off@F3067 002F                                       vfpfcnvrt@fmt 0045  
                                            _TMR0H 0FD7                                              _TMR1H 0FCF  
                                            _TMR0L 0FD6                                              _TMR1L 0FCE  
                                            _TMR3H 0FB3                                              _TMR3L 0FB2  
                                            _SPBRG 0FAF                                              _PORTA 0F80  
                                            _PORTB 0F81                                              _PORTC 0F82  
                                            _PORTD 0F83                                              _PORTE 0F84  
                                            _TRISA 0F92                                              _TRISB 0F93  
                                            _TRISC 0F94                                              _TRISD 0F95  
                                            _TRISE 0F96                                              _TXREG 0FAD  
                        lcd_4bit_set_cursor@coulmn 004A                           __end_of_keypad_get_value 2104  
                                 __end_of_TMR0_ISR 2F5C                                   __end_of_TMR1_ISR 2F50  
                                 __end_of_TMR2_ISR 2F64                                              _adc_1 00E1  
                                 __end_of_TMR3_ISR 2F44                                              _lcd_1 00E8  
                                            _flags 002D                                              _fputc 259A  
                                            _width 00A6                                              _putch 2F8A  
                                            tablat 0FF5                                              ttemp5 007C  
                                            ttemp6 007F                                              ttemp7 0083  
                                            status 0FD8                                              wtemp8 007C  
                                  __end_of_sprintf 2D86                  keypad_get_value@l_columns_counter 0049  
                   ?_gpio_pin_direction_initialize 003A                                    __initialization 2990  
                              keypad_get_value@ret 0045                                       __end_of_main 1CDA  
                            ?_gpio_pin_write_logic 003A                                          ??_ADC_ISR 0039  
                                   ?_EUSART_RX_ISR 0039                                     ?_EUSART_TX_ISR 0039  
                         gpio_pin_read_logic@logic 003B                                      _lat_registers 00C5  
                      __end_of_dc_motor_initialize 2E4E                                             ??_main 006B  
                                    __activetblptr 0003                              _TMR3_InterruptHandler 00B2  
                                 led_turn_on@F3122 0034                                          ??_RB4_ISR 0039  
                                        ??_RB5_ISR 0039                                          ??_RB6_ISR 0039  
                                        ??_RB7_ISR 0039                         _EUSART_OverrunErrorHandler 00AA  
                                           ?_fputc 003A                                             _ADRESH 0FC4  
                                           _ADRESL 0FC3                                             _CCPR1L 0FBE  
                                           _CCPR2L 0FBB                                   ___awdiv@dividend 003A  
                                           ?_putch 0039                                _Air_Conditioning_On 2C6A  
                                           i2l1030 14BE                                             i2l1040 1612  
                                           i2l1032 1502                                             i2l1202 2F5A  
                                           i2l1050 171E                                             i2l1042 1656  
                                           i2l1034 1546                                             i2l1026 147E  
                                           i2l1060 17BE                                             i2l1052 173E  
                                           i2l1044 169A                                             i2l1036 158A  
                                           i2l1028 149E                                             i2l1134 2F6C  
                                           i2l1062 17DE                                             i2l1054 175E  
                                           i2l1046 16DE                                             i2l1038 15CE  
                                           i2l1064 17FE                                             i2l1056 177E  
                                           i2l1048 16FE                                             i2l1058 179E  
                                           i2l1067 181E                                             i2l1500 2F7C  
                                           i2l1324 2F62                                             i2l3101 2F86  
                                           i2l3111 2F7E                                             i2l1271 2F4E  
                                           i2l3105 2F82                                             i2l1509 2F8C  
                                           i2l3141 2F6E                                             i2l3135 2F72  
                                           i2l3129 2F76                                             i2l3161 2EF6  
                                           i2l3155 2F26                                             i2l3147 2F10  
                                           i2l3163 2EF8                                             i2l1379 2F42  
                                           i2l3149 2F12                                             i2l3245 2F50  
                                           i2l3253 2F44                                             i2l3261 2F5C  
                                           i2l3183 2EF2                                             i2l3175 2EDC  
                                           i2l3191 2EC4                                             i2l3247 2F52  
                                           i2l3255 2F46                                             i2l3263 2F5E  
                                           i2l3169 2F0C                                             i2l3177 2EDE  
                                           i2l3249 2F56                                             i2l3257 2F4A  
                                           i2l3293 2F6A                                             i2l3197 2ED8  
                                           i2l3189 2EC2                                             i2l6901 164C  
                                           i2l6911 1690                                             i2l6903 1650  
                                           i2l6831 145E                                             i2l6921 16D4  
                                           i2l6913 1694                                             i2l6905 1664  
                                           i2l6841 14AC                                             i2l6833 146C  
                                           i2l6931 171A                                             i2l6923 16D8  
                                           i2l6915 16A8                                             i2l6907 1672  
                                           i2l6851 14F8                                             i2l6843 14BA  
                                           i2l6835 147A                                             i2l5981 2F3E  
                                           i2l6941 176C                                             i2l6933 172C  
                                           i2l6925 16EC                                             i2l6917 16B6  
                                           i2l6909 1680                                             i2l6861 153C  
                                           i2l6853 14FC                                             i2l6845 14CC  
                                           i2l6837 148C                                             i2l5991 2F8C  
                                           i2l6951 17BA                                             i2l6943 177A  
                                           i2l6935 173A                                             i2l6927 16FA  
                                           i2l6919 16C4                                             i2l6871 1580  
                                           i2l6863 1540                                             i2l6855 1510  
                                           i2l6847 14DA                                             i2l6839 149A  
                                           i2l5985 2F7A                                             i2l5977 2F38  
                                           i2l6961 180C                                             i2l6953 17CC  
                                           i2l6945 178C                                             i2l6937 174C  
                                           i2l6929 170C                                             i2l6881 15C4  
                                           i2l6873 1584                                             i2l6865 1554  
                                           i2l6857 151E                                             i2l6849 14E8  
                                           i2l5979 2F3A                                             i2l6963 181A  
                                           i2l6955 17DA                                             i2l6947 179A  
                                           i2l6939 175A                                             i2l6891 1608  
                                           i2l6883 15C8                                             i2l6875 1598  
                                           i2l6867 1562                                             i2l6859 152C  
                                           i2l6957 17EC                                             i2l6949 17AC  
                                           i2l6893 160C                                             i2l6885 15DC  
                                           i2l6877 15A6                                             i2l6869 1570  
                                           i2l6959 17FA                                             i2l6895 1620  
                                           i2l6887 15EA                                             i2l6879 15B4  
                                           i2l6897 162E                                             i2l6889 15F8  
                                           i2l6899 163C                                      vfpfcnvrt@done 0048  
              convert_uint16_to_string@Temp_String 00EE                                             _SPBRGH 0FB0  
                                           _SSPBUF 0FC9                          keypad_get_value@l_counter 0047  
                ADC_GetConversion_Blocking@channel 0042                                   __end_of___xxtofl 1B98  
                 __end_of_lcd_4bit_send_string_pos 28B4                        __end_of_dc_motor_move_right 2D1A  
                           ?_lcd_4bit_send_command 0045                                       vfprintf@cfmt 0052  
                                        ??___awdiv 003E                                          ??___awmod 003E  
                                        ??___flmul 0050                                          ??___fltol 0065  
                                        ??___lwdiv 003E                               ?_Air_Conditioning_On 0039  
                                           _memset 2DEE                                             clear_0 29D6  
                                           clear_1 29E2                                   ___awdiv@quotient 0040  
                                  ___awmod@divisor 003C                                             isa$std 0001  
                                  ___awmod@counter 003E                                             fputc@c 003A  
                                        ?_CCP1_ISR 0039                                       __pdataCOMRAM 006B  
                                        ?_CCP2_ISR 0039                                          ?_ADC_Init 003D  
                                     __mediumconst 0000                                             tblptrh 0FF7  
                                           tblptrl 0FF6                                             tblptru 0FF8  
                                           putch@c 0039                                   __end_of_vfprintf 2C2A  
                                        ??_sprintf 0057                       __end_of_select_result_format 2C6A  
                                     ___xxtofl@arg 0044                                       ___xxtofl@exp 0043  
                                     ___xxtofl@val 003A                                         __accesstop 0080  
                          __end_of__initialization 29E8                                          ?_INT0_ISR 0039  
                                        ?_INT1_ISR 0039                                          ?_INT2_ISR 0039  
                                       _lm35_res_1 0036                                      ___rparam_used 0001  
                                       ___fltol@f1 0061                                   ??_lcd_send_4bits 0044  
                          _lcd_4bit_send_char_data 2B5C                                  RB5_ISR@RB5_Source 0039  
                           ??_gpio_pin_write_logic 003C                                     __pcstackCOMRAM 0039  
                                     __pidataBANK0 2DBA                                          ?_TMR0_ISR 0039  
                                  ??_EUSART_RX_ISR 0039                                          ?_TMR1_ISR 0039  
                                        ?_TMR2_ISR 0039                                          ?_TMR3_ISR 0039  
                                  ??_EUSART_TX_ISR 0039                       ??_ADC_GetConversion_Blocking 0044  
                            ??_Air_Conditioning_On 0054                                      __end_of_fputc 2644  
                                    __end_of_putch 2F8C                           lcd_4bit_send_command@lcd 0045  
                         lcd_4bit_send_command@ret 0047           gpio_pin_direction_initialize@_pin_config 003A  
                          _ADC_GetConversionResult 2386                                         ??_CCP1_ISR 0039  
                                       ??_CCP2_ISR 0039                                         ??_ADC_Init 003E  
                             ADC_SelectChannel@ret 0040                                            ??_fputc 003D  
                                       _dc_motor_1 0079                                         _dc_motor_2 0077  
                                          ??_putch 003A                             ADC_StartConversion@ret 003B  
                                       __pbssBANK0 0080                              _INT0_InterruptHandler 0025  
                                       ??_INT0_ISR 0039                                         ??_INT1_ISR 0039  
                                       ??_INT2_ISR 0039                         ADC_GetConversionResult@ret 003F  
                    __end_of_application_intialize 2F6A                                         ??_TMR0_ISR 0039  
                                       ??_TMR1_ISR 0039                                         ??_TMR2_ISR 0039  
                                       ??_TMR3_ISR 0039                                  led_turn_off@F3127 0033  
                      convert_uint16_to_string@ret 00F4                                            _ADC_ISR 2F86  
                      convert_uint16_to_string@str 0066                                            ?_memset 003A  
                   ADC_GetConversion_Blocking@_adc 0041                                  RB7_ISR@RB7_Source 0039  
                                          _RB4_ISR 2F0E                                            _RB5_ISR 2EF4  
                                          _RB6_ISR 2EDA                                            _RB7_ISR 2EC0  
                                        ?___xxtofl 003A                          ?_lcd_4bit_send_string_pos 004E  
                        _RB6_InterruptHandler_HIGH 0017                               led_turn_toggle@F3132 0032  
                                          i2u97_40 2F22                                            i2u97_41 2F1E  
                                ?_keypad_get_value 0042                                            i2u98_40 2F08  
                                          i2u98_41 2F04                                            i2u99_40 2EEE  
                                          i2u99_41 2EEA                                 ??_keypad_get_value 0044  
                                       _btn_values 1001                                     _tris_registers 00CF  
                         _RB6_InterruptHandler_LOW 0015                          ??_lcd_4bit_send_char_data 0047  
                                    ?_MSSP_SPI_ISR 0039                               _ADC_InterruptHandler 002B  
                                          __Hparam 0000                                       ADC_Init@_adc 003D  
                                          __Lparam 0000                                _ecu_layer_intialize 2E4E  
                             _SPI_InterruptHandler 000F                                _gpio_pin_initialize 2A52  
                                          ___awdiv 22C2                                _gpio_pin_read_logic 2644  
                                          ___awmod 243E                                            ___flmul 1032  
                                          ___fltol 1F10                                            ___lwdiv 28B4  
                                        ?_vfprintf 004F                   keypad_initialize@columns_counter 0048  
                                     __psmallconst 1000                          ??_ADC_GetConversionResult 003C  
                                          __pcinit 2990                               _select_result_format 2C2A  
                                          __ramtop 1000                                            __ptext0 1B98  
                                          __ptext1 2016                                            __ptext2 2644  
                                          __ptext3 2CAA                                            __ptext4 2CE2  
                                          __ptext5 26E8                                            __ptext6 2D52  
                                          __ptext7 2BEA                                            __ptext8 1822  
                                          __ptext9 259A                                          _T0CONbits 0FD5  
                                        _T1CONbits 0FCD                    ??_gpio_pin_direction_initialize 003B  
                         _convert_uint16_to_string 26E8                                          _T2CONbits 0FCA  
                                       ??___xxtofl 003E                                          _T3CONbits 0FB1  
                                 ___awmod@dividend 003A                               ?_ecu_layer_intialize 0039  
                             ?_gpio_pin_initialize 0042                               ?_gpio_pin_read_logic 003A  
                                          _sprintf 2D52              lcd_4bit_intialize@l_data_pins_counter 004A  
                                   __pintcode_body 145C                               end_of_initialization 29E8  
                                lcd_send_4bits@lcd 0042                                  lcd_send_4bits@ret 0044  
                         select_result_format@_adc 003A        ADC_GetConversion_Blocking@conversion_result 0043  
                                          fputc@fp 003C                                            memset@c 003B  
                                          memset@n 003D                                            memset@p 003F  
                                          int_func 145C                                     ??_MSSP_SPI_ISR 0039  
                       __end_of_lcd_4bit_intialize 21EA                            ??_lcd_4bit_send_command 0047  
                                    _dc_motor_stop 2CAA                                  __end_of_vfpfcnvrt 19E4  
                                        _RCSTAbits 0FAB                 __end_of_ADC_GetConversion_Blocking 2A52  
                       _ADC_GetConversion_Blocking 29F2                                            postdec1 0FE5  
                                          postdec2 0FDD                                            postinc0 0FEE  
                                          postinc1 0FE6                                            postinc2 0FDE  
                                 vfpfcnvrt@convarg 004A                                         ??_vfprintf 0052  
                            ?_select_result_format 003A                    __end_of_lcd_4bit_send_char_data 2BA4  
                            _INT1_InterruptHandler 0023                                          _PORTBbits 0F81  
                                 _InterruptManager 0008                       keypad_get_value@column_logic 0046  
                       lcd_4bit_send_char_data@lcd 0045                              ??_ecu_layer_intialize 004C  
                                    ___xxtofl@sign 0042                                          _TRISCbits 0F94  
                            ??_gpio_pin_initialize 0043                                _ADC_StartConversion 2E9E  
                            ??_gpio_pin_read_logic 003C                                        ___flmul@grs 0055  
                                      _CCP1CONbits 0FBD                                        _CCP2CONbits 0FBA  
                                        _TXSTAbits 0FAC                                     ?_dc_motor_stop 0042  
                              _lcd_4bit_set_cursor 2786                                 relay_turn_on@F3062 0030  
                             ?_ADC_StartConversion 003A                        lcd_4bit_send_string_pos@lcd 004E  
                      lcd_4bit_send_string_pos@ret 0053                        lcd_4bit_send_string_pos@row 004F  
                      lcd_4bit_send_string_pos@str 0051                              keypad_get_value@value 0043  
                    convert_uint16_to_string@F3213 00A0                                        vfpfcnvrt@ap 0046  
                                      vfpfcnvrt@cp 0049                                        vfpfcnvrt@fp 0044  
                                      _BAUDCONbits 0FB8                                      __pidataCOMRAM 2F28  
          adc_input_channel_port_configure@channel 003C                                     _timer0_preload 000B  
                                   __end_of_memset 2E1E                                     _timer1_preload 0007  
                                   _timer2_preload 002E                       ?_configure_voltage_reference 003A  
                              start_initialization 2990                                     _timer3_preload 0003  
                     ?_lcd_4bit_send_enable_signal 0042                               ?_lcd_4bit_set_cursor 0048  
                    convert_uint16_to_string@value 0064                                        __end_of_abs 2DBA  
 MSSP_SPI_Slave_Mode_GPIO_PIN_Configurations@F3130 006B  MSSP_SPI_Msster_Mode_GPIO_PIN_Configurations@F3115 0071  
 MSSP_SPI_Slave_Mode_GPIO_PIN_Configurations@F3124 006E  MSSP_SPI_Msster_Mode_GPIO_PIN_Configurations@F3117 0070  
 MSSP_SPI_Slave_Mode_GPIO_PIN_Configurations@F3126 006D  MSSP_SPI_Msster_Mode_GPIO_PIN_Configurations@F3119 006F  
 MSSP_SPI_Slave_Mode_GPIO_PIN_Configurations@F3128 006C              __end_of_gpio_pin_direction_initialize 1E00  
                    _gpio_pin_direction_initialize 1CDA           ADC_GetConversionResult@conversion_result 003B  
                           dc_motor_stop@_dc_motor 0042                          _EUSART_RxInterruptHandler 00AE  
                            ADC_SelectChannel@_adc 003D                        __end_of_Air_Conditioning_On 2CAA  
                            ??_ADC_StartConversion 003B                                        vfprintf@fmt 0050  
                       _EUSART_FramingErrorHandler 00AC                             ??_select_result_format 003B  
                                      __pdataBANK0 00BB                                           ?_ADC_ISR 0039  
                                         ??_memset 003F                              __end_of_EUSART_RX_ISR 2F8E  
                            __end_of_EUSART_TX_ISR 2F7E                                         memset@dest 003A  
                     lcd_4bit_send_command@command 0046                                   dc_motor_stop@ret 0043  
                          ADC_StartConversion@_adc 003A                               __end_of_MSSP_SPI_ISR 2F6E  
                                         ?_RB4_ISR 0039                                           ?_RB5_ISR 0039  
                                         ?_RB6_ISR 0039                                           ?_RB7_ISR 0039  
                                        ___flmul@a 004C                                          ___flmul@b 0048  
                                      __pbssCOMRAM 0001                              ??_lcd_4bit_set_cursor 004B  
                                    __pcstackBANK0 00EE                      ??_configure_voltage_reference 003B  
                      ADC_GetConversionResult@_adc 003A                              _INT2_InterruptHandler 0021  
                                  ??_dc_motor_stop 0043                              _TMR0_InterruptHandler 000D  
                                 ___lwdiv@dividend 003A                      keypad_initialize@rows_counter 0047  
                            _application_intialize 2F64                                          __pintcode 0008  
         __end_of_adc_input_channel_port_configure 22C2                 ??_adc_input_channel_port_configure 003A  
                ?_adc_input_channel_port_configure 0039                   _adc_input_channel_port_configure 21EA  
                                _ADC_SelectChannel 2D1A                         ??_convert_uint16_to_string 0067  
                  gpio_pin_write_logic@_pin_config 003A                                           ?___awdiv 003A  
                                         ?___awmod 003A                                           ?___flmul 0048  
                                         ?___fltol 0061                                           ?___lwdiv 003A  
                    ADC_GetConversion_Blocking@ret 0044                                 ?_ADC_SelectChannel 003D  
                        gpio_pin_write_logic@logic 003B                                       _keypad_value 0038  
                                      __smallconst 1000                          _RB4_InterruptHandler_HIGH 001F  
                                         _CCP1_ISR 2F82                                           _CCP2_ISR 2F7E  
                              ??_ADC_SelectChannel 003F                                           _ADC_Init 24EE  
                        _RB7_InterruptHandler_HIGH 0013                                        ADC_Init@ret 003F  
                                 ___lwdiv@quotient 003E                                           ?_sprintf 0053  
                         _RB5_InterruptHandler_LOW 0019                                           _INT0_ISR 2F76  
                                         _INT1_ISR 2F72                                           _INT2_ISR 2F6E  
                                         _RB4_Flag 0075                                           _RB5_Flag 0074  
                                         _RB6_Flag 0073                                           _RB7_Flag 0072  
                                RB4_ISR@RB4_Source 0039                           __end_of_InterruptManager 1822  
                                         _PIE1bits 0F9D                                           _PIE2bits 0FA0  
                        __end_of_ADC_SelectChannel 2D52                                           i2u100_40 2ED4  
                                         i2u100_41 2ED0                      __end_of_lcd_4bit_send_command 2B0C  
                                         i2u600_40 1672                                           i2u600_41 166E  
                                         i2u601_40 1680                                           i2u601_41 167C  
                                         _PIR1bits 0F9E                                           i2u610_40 171A  
                                         i2u602_40 1690                                           i2u610_41 1716  
                                         i2u602_41 168C                                           i2u611_40 172C  
                                         i2u603_40 16A8                                           i2u611_41 1728  
                                         i2u603_41 16A4                                           _PIR2bits 0FA1  
                                         i2u620_40 17BA                                           i2u612_40 173A  
                                         i2u604_40 16B6                                           i2u620_41 17B6  
                                         i2u612_41 1736                                           i2u604_41 16B2  
                                         i2u621_40 17CC                                           i2u613_40 174C  
                                         i2u605_40 16C4                                           i2u621_41 17C8  
                                         i2u613_41 1748                                           i2u605_41 16C0  
                                         i2u622_40 17DA                                           i2u614_40 175A  
                                         i2u606_40 16D4                                           i2u622_41 17D6  
                                         i2u614_41 1756                                           i2u606_41 16D0  
                                         i2u623_40 17EC                                           i2u615_40 176C  
                                         i2u607_40 16EC                                           i2u623_41 17E8  
                                         i2u615_41 1768                                           i2u607_41 16E8  
                                         i2u624_40 17FA                                           i2u616_40 177A  
                                         i2u608_40 16FA                                           i2u624_41 17F6  
                                         i2u616_41 1776                                           i2u608_41 16F6  
                                         i2u625_40 180C                                           i2u617_40 178C  
                                         i2u609_40 170C                                           i2u625_41 1808  
                                         i2u617_41 1788                                           i2u609_41 1708  
                                         i2u626_40 181A                                           i2u618_40 179A  
                                         i2u570_40 147A                                           i2u626_41 1816  
                                         i2u618_41 1796                                           i2u570_41 1476  
                                         i2u619_40 17AC                                           i2u571_40 148C  
                                         i2u619_41 17A8                                           i2u571_41 1488  
                                         i2u580_40 151E                                           i2u572_40 149A  
                                         i2u580_41 151A                                           i2u572_41 1496  
                                         i2u581_40 152C                                           i2u573_40 14AC  
                                         i2u581_41 1528                                           i2u573_41 14A8  
                                         i2u590_40 15C4                                           i2u582_40 153C  
                                         i2u574_40 14BA                                           i2u590_41 15C0  
                                         i2u582_41 1538                                           i2u574_41 14B6  
                                         i2u591_40 15DC                                           i2u583_40 1554  
                                         i2u575_40 14CC                                           i2u591_41 15D8  
                                         i2u583_41 1550                                           i2u575_41 14C8  
                                         i2u592_40 15EA                                           i2u584_40 1562  
                                         i2u576_40 14DA                                           i2u592_41 15E6  
                                         i2u584_41 155E                                           i2u576_41 14D6  
                                         i2u593_40 15F8                                           i2u585_40 1570  
                                         i2u577_40 14E8                                           i2u569_40 146C  
                                         i2u593_41 15F4                                           i2u585_41 156C  
                                         i2u577_41 14E4                                           i2u569_41 1468  
                                         i2u594_40 1608                                           i2u586_40 1580  
                                         i2u578_40 14F8                                           i2u594_41 1604  
                                         i2u586_41 157C                                           i2u578_41 14F4  
                                         i2u595_40 1620                                           i2u587_40 1598  
                                         i2u579_40 1510                                           i2u595_41 161C  
                                         i2u587_41 1594                                           i2u579_41 150C  
                                         i2u596_40 162E                                           i2u588_40 15A6  
                                         i2u596_41 162A                                           i2u588_41 15A2  
                                         i2u597_40 163C                                           i2u589_40 15B4  
                                         i2u597_41 1638                                           i2u589_41 15B0  
                                         i2u598_40 164C                                           i2u598_41 1648  
                                         i2u599_40 1664                                           i2u599_41 1660  
                              _dc_motor_initialize 2E1E                       dc_motor_initialize@_dc_motor 0045  
                      ?_ADC_GetConversion_Blocking 0041                   gpio_pin_direction_initialize@ret 0040  
                                         _TMR0_ISR 2F50                                           _TMR1_ISR 2F44  
                                         _TMR2_ISR 2F5C                                           _TMR3_ISR 2F38  
                               _lcd_4bit_intialize 2104                                          _vfpfcnvrt 1822  
                         _lcd_4bit_send_string_pos 281E                                         _ADCON0bits 0FC2  
                                       _ADCON1bits 0FC1                                         _ADCON2bits 0FC0  
                         ADC_SelectChannel@channel 003E                                ?_lcd_4bit_intialize 0048  
                           gpio_pin_initialize@ret 0044                               ?_dc_motor_initialize 0045  
                                       vfpfcnvrt@c 004E                            gpio_pin_write_logic@ret 0041  
                                      _INTCON2bits 0FF1                                        _INTCON3bits 0FF0  
                         ?_lcd_4bit_send_char_data 0045                                          copy_data0 29A4  
                                        copy_data1 29C4                                  _keypad_initialize 2928  
                            _lm35_res_1_Celsius_mv 0001                                _dc_motor_move_right 2CE2  
                               ?_keypad_initialize 0045                             gpio_pin_read_logic@ret 0040  
                           ?_application_intialize 0039                               ??_lcd_4bit_intialize 0049  
                                         __Hrparam 0000                                         vfprintf@ap 0051  
                                         __Lrparam 0000                                         vfprintf@fp 004F  
                         ?_ADC_GetConversionResult 003A                                ??_keypad_initialize 0046  
                                RB6_ISR@RB6_Source 0039                              _CCP1_InterruptHandler 0029  
                           lcd_4bit_set_cursor@lcd 0048                        __end_of_ecu_layer_intialize 2E78  
                           lcd_4bit_set_cursor@ret 004D                                         ?_vfpfcnvrt 0044  
                           lcd_4bit_set_cursor@row 0049                               ?_dc_motor_move_right 0042  
                      __end_of_gpio_pin_initialize 2AB0                                 __end_of_btn_values 1011  
                      __end_of_gpio_pin_read_logic 26E8                     gpio_pin_initialize@_pin_config 0042  
                            _TMR1_InterruptHandler 0009                        keypad_get_value@_keypad_obj 0042  
                                       sprintf@fmt 0054                                           ___xxtofl 19E4  
                            ??_dc_motor_initialize 0046                                    ___lwdiv@divisor 003C  
                                  ___lwdiv@counter 0040                          __end_of_keypad_initialize 2990  
                                         __ptext10 2F8A                                           __ptext11 2D86  
                                         __ptext20 2A52                                           __ptext12 243E  
                                         __ptext21 1CDA                                           __ptext13 22C2  
                                         __ptext30 281E                                           __ptext22 24EE  
                                         __ptext14 2DEE                                           __ptext31 2786  
                                         __ptext23 2C2A                                           __ptext15 2F64  
                                         __ptext40 21EA                                           __ptext32 2AB0  
                                         __ptext24 2BA4                                           __ptext16 2E4E  
                                         __ptext41 2386                                           __ptext33 2B5C  
                                         __ptext25 19E4                                           __ptext17 2104  
                                         __ptext50 2F0E                                           __ptext34 2B0C  
                                         __ptext26 28B4                                           __ptext18 2928  
                                         __ptext51 2F6A                                           __ptext43 2F38  
                                         __ptext35 2E78                                           __ptext27 1F10  
                                         __ptext19 2E1E                                           __ptext52 2F6E  
                                         __ptext44 2F5C                                           __ptext36 1E00  
                                         __ptext28 1032                                           __ptext53 2F72  
                                         __ptext45 2F44                                           __ptext37 29F2  
                                         __ptext29 2C6A                                           __ptext54 2F76  
                                         __ptext46 2F50                                           __ptext38 2E9E  
                                         __ptext55 2F7A                                           __ptext47 2EC0  
                                         __ptext39 2D1A                                           __ptext56 2F8C  
                                         __ptext48 2EDA                                           __ptext57 2F7E  
                                         __ptext49 2EF4                                           __ptext58 2F82  
                                         __ptext59 2F86                    configure_voltage_reference@_adc 003A  
                           dc_motor_move_right@ret 0043                                           _keypad_1 00D9  
                                     _MSSP_SPI_ISR 2F6A                convert_uint16_to_string@DataCounter 00F5  
                                 _keypad_get_value 2016                   __end_of_convert_uint16_to_string 2786  
                                         isa$xinst 0000                                           int$flags 007B  
                                         _vfprintf 2BEA                              ??_dc_motor_move_right 0043  
                                   _lcd_send_4bits 2B0C                                         _INTCONbits 0FF2  
                   keypad_get_value@l_rows_counter 0048                       __end_of_gpio_pin_write_logic 1F10  
                                         intlevel2 0000                                          sprintf@ap 0057  
                      __end_of_ADC_StartConversion 2EC0                     lcd_4bit_send_enable_signal@lcd 0042  
                   lcd_4bit_send_enable_signal@ret 0043                          _EUSART_TxInterruptHandler 00B0  
                  __end_of_ADC_GetConversionResult 243E                       keypad_initialize@_keypad_obj 0045  
                           __end_of_lcd_send_4bits 2B5C                       dc_motor_move_right@_dc_motor 0042  
                                      ??_vfpfcnvrt 0047                        __end_of_lcd_4bit_set_cursor 281E  
                                         sprintf@f 0058                                           sprintf@s 0053  
                                   _port_registers 00BB                                        _SSPCON1bits 0FC6  
                            _CCP2_InterruptHandler 0027                        lcd_4bit_send_char_data@data 0046  
                            _TMR2_InterruptHandler 0005                                  ?_InterruptManager 0039  
                            __end_of_dc_motor_stop 2CE2                         ??_lcd_4bit_send_string_pos 0053  
