

Microchip MPLAB XC8 Assembler V2.45 build 20230818022343 
                                                                                               Thu Dec 14 01:23:40 2023

Microchip MPLAB XC8 C Compiler v2.45 (Free license) build 20230818022343 Og1 
     1                           	processor	18F4620
     2                           	fnconf	rparam,??,?,0
     3                           	pagewidth 120
     4                           	opt	flic
     5                           	psect	idataCOMRAM,global,class=CODE,delta=1,noexec
     6                           	psect	idataBANK0,global,class=CODE,delta=1,noexec
     7                           	psect	smallconst,global,reloc=2,class=SMALLCONST,delta=1,noexec
     8                           	psect	cinit,global,reloc=2,class=CODE,delta=1
     9                           	psect	bssCOMRAM,global,class=COMRAM,space=1,delta=1,lowdata,noexec
    10                           	psect	dataCOMRAM,global,class=COMRAM,space=1,delta=1,lowdata,noexec
    11                           	psect	bssBANK0,global,class=BANK0,space=1,delta=1,lowdata,noexec
    12                           	psect	dataBANK0,global,class=BANK0,space=1,delta=1,lowdata,noexec
    13                           	psect	cstackBANK0,global,class=BANK0,space=1,delta=1,lowdata,noexec
    14                           	psect	cstackCOMRAM,global,class=COMRAM,space=1,delta=1,lowdata,noexec
    15                           	psect	text0,global,reloc=2,class=CODE,delta=1
    16                           	psect	text1,global,reloc=2,class=CODE,delta=1
    17                           	psect	text2,global,reloc=2,class=CODE,delta=1
    18                           	psect	text3,global,reloc=2,class=CODE,delta=1
    19                           	psect	text4,global,reloc=2,class=CODE,delta=1
    20                           	psect	text5,global,reloc=2,class=CODE,delta=1
    21                           	psect	text6,global,reloc=2,class=CODE,delta=1,group=3
    22                           	psect	text7,global,reloc=2,class=CODE,delta=1,group=1
    23                           	psect	text8,global,reloc=2,class=CODE,delta=1,group=1
    24                           	psect	text9,global,reloc=2,class=CODE,delta=1,group=3
    25                           	psect	text10,global,reloc=2,class=CODE,delta=1,group=3
    26                           	psect	text11,global,reloc=2,class=CODE,delta=1,group=3
    27                           	psect	text12,global,reloc=2,class=CODE,delta=1,group=2
    28                           	psect	text13,global,reloc=2,class=CODE,delta=1,group=2
    29                           	psect	text14,global,reloc=2,class=CODE,delta=1,group=3
    30                           	psect	text15,global,reloc=2,class=CODE,delta=1
    31                           	psect	text16,global,reloc=2,class=CODE,delta=1
    32                           	psect	text17,global,reloc=2,class=CODE,delta=1
    33                           	psect	text18,global,reloc=2,class=CODE,delta=1
    34                           	psect	text19,global,reloc=2,class=CODE,delta=1
    35                           	psect	text20,global,reloc=2,class=CODE,delta=1
    36                           	psect	text21,global,reloc=2,class=CODE,delta=1
    37                           	psect	text22,global,reloc=2,class=CODE,delta=1
    38                           	psect	text23,global,reloc=2,class=CODE,delta=1,inline
    39                           	psect	text24,global,reloc=2,class=CODE,delta=1,inline
    40                           	psect	text25,global,reloc=2,class=CODE,delta=1,group=2
    41                           	psect	text26,global,reloc=2,class=CODE,delta=1,group=2
    42                           	psect	text27,global,reloc=2,class=CODE,delta=1,group=2
    43                           	psect	text28,global,reloc=2,class=CODE,delta=1,group=2
    44                           	psect	text29,global,reloc=2,class=CODE,delta=1
    45                           	psect	text30,global,reloc=2,class=CODE,delta=1
    46                           	psect	text31,global,reloc=2,class=CODE,delta=1
    47                           	psect	text32,global,reloc=2,class=CODE,delta=1
    48                           	psect	text33,global,reloc=2,class=CODE,delta=1
    49                           	psect	text34,global,reloc=2,class=CODE,delta=1
    50                           	psect	text35,global,reloc=2,class=CODE,delta=1
    51                           	psect	text36,global,reloc=2,class=CODE,delta=1
    52                           	psect	text37,global,reloc=2,class=CODE,delta=1
    53                           	psect	text38,global,reloc=2,class=CODE,delta=1
    54                           	psect	text39,global,reloc=2,class=CODE,delta=1
    55                           	psect	text40,global,reloc=2,class=CODE,delta=1,inline
    56                           	psect	text41,global,reloc=2,class=CODE,delta=1
    57                           	psect	intcode,global,reloc=2,class=CODE,delta=1
    58                           	psect	intcode_body,global,reloc=2,class=CODE,delta=1
    59                           	psect	text43,global,reloc=2,class=CODE,delta=1
    60                           	psect	text44,global,reloc=2,class=CODE,delta=1
    61                           	psect	text45,global,reloc=2,class=CODE,delta=1
    62                           	psect	text46,global,reloc=2,class=CODE,delta=1
    63                           	psect	text47,global,reloc=2,class=CODE,delta=1
    64                           	psect	text48,global,reloc=2,class=CODE,delta=1
    65                           	psect	text49,global,reloc=2,class=CODE,delta=1
    66                           	psect	text50,global,reloc=2,class=CODE,delta=1
    67                           	psect	text51,global,reloc=2,class=CODE,delta=1
    68                           	psect	text52,global,reloc=2,class=CODE,delta=1
    69                           	psect	text53,global,reloc=2,class=CODE,delta=1
    70                           	psect	text54,global,reloc=2,class=CODE,delta=1
    71                           	psect	text55,global,reloc=2,class=CODE,delta=1
    72                           	psect	text56,global,reloc=2,class=CODE,delta=1
    73                           	psect	text57,global,reloc=2,class=CODE,delta=1
    74                           	psect	text58,global,reloc=2,class=CODE,delta=1
    75                           	psect	text59,global,reloc=2,class=CODE,delta=1
    76                           	psect	intsave_regs,global,class=BIGRAM,space=1,delta=1,noexec
    77                           	psect	rparam,global,class=COMRAM,space=1,delta=1,noexec
    78                           	psect	temp,global,ovrld,common,class=COMRAM,space=1,delta=1
    79                           	psect	config,global,abs,ovrld,class=CONFIG,space=4,delta=1,noexec
    80   000000                     
    81                           ; Generated 23/03/2023 GMT
    82                           ; 
    83                           ; Copyright © 2023, Microchip Technology Inc. and its subsidiaries ("Microchip")
    84                           ; All rights reserved.
    85                           ; 
    86                           ; This software is developed by Microchip Technology Inc. and its subsidiaries ("Microch
      +                          ip").
    87                           ; 
    88                           ; Redistribution and use in source and binary forms, with or without modification, are
    89                           ; permitted provided that the following conditions are met:
    90                           ; 
    91                           ;     1. Redistributions of source code must retain the above copyright notice, this lis
      +                          t of
    92                           ;        conditions and the following disclaimer.
    93                           ; 
    94                           ;     2. Redistributions in binary form must reproduce the above copyright notice, this 
      +                          list
    95                           ;        of conditions and the following disclaimer in the documentation and/or other
    96                           ;        materials provided with the distribution. Publication is not required when
    97                           ;        this file is used in an embedded application.
    98                           ; 
    99                           ;     3. Microchip's name may not be used to endorse or promote products derived from th
      +                          is
   100                           ;        software without specific prior written permission.
   101                           ; 
   102                           ; THIS SOFTWARE IS PROVIDED BY MICROCHIP "AS IS" AND ANY EXPRESS OR IMPLIED WARRANTIES,
   103                           ; INCLUDING, BUT NOT LIMITED TO, THE IMPLIED WARRANTIES OF MERCHANTABILITY AND FITNESS F
      +                          OR
   104                           ; PURPOSE ARE DISCLAIMED.  IN NO EVENT SHALL MICROCHIP BE LIABLE FOR ANY DIRECT, INDIREC
      +                          T,
   105                           ; INCIDENTAL, SPECIAL, EXEMPLARY, OR CONSEQUENTIAL DAMAGES (INCLUDING BUT NOT LIMITED TO
   106                           ; PROCUREMENT OF SUBSTITUTE GOODS OR SERVICES; LOSS OF USE, DATA OR PROFITS; OR BUSINESS
   107                           ; INTERRUPTION) HOWSOEVER CAUSED AND ON ANY THEORY OF LIABILITY, WHETHER IN CONTRACT, ST
      +                          RICT
   108                           ; LIABILITY, OR TORT (INCLUDING NEGLIGENCE OR OTHERWISE) ARISING IN ANY WAY OUT OF THE U
      +                          SE OF
   109                           ; THIS SOFTWARE, EVEN IF ADVISED OF THE POSSIBILITY OF SUCH DAMAGE.
   110                           ; 
   111                           ; 
   112                           ; Code-generator required, PIC18F4620 Definitions
   113                           ; 
   114                           ; SFR Addresses
   115   000000                     
   116                           	psect	idataCOMRAM
   117   002F8E                     __pidataCOMRAM:
   118                           	callstack 0
   119                           
   120                           ;initializer for MSSP_SPI_Slave_Mode_GPIO_PIN_Configurations@F3130
   121   002F8E  68                 	db	104
   122                           
   123                           ;initializer for MSSP_SPI_Slave_Mode_GPIO_PIN_Configurations@F3128
   124   002F8F  5A                 	db	90
   125                           
   126                           ;initializer for MSSP_SPI_Slave_Mode_GPIO_PIN_Configurations@F3126
   127   002F90  62                 	db	98
   128                           
   129                           ;initializer for MSSP_SPI_Slave_Mode_GPIO_PIN_Configurations@F3124
   130   002F91  2A                 	db	42
   131                           
   132                           ;initializer for MSSP_SPI_Msster_Mode_GPIO_PIN_Configurations@F3119
   133   002F92  1A                 	db	26
   134                           
   135                           ;initializer for MSSP_SPI_Msster_Mode_GPIO_PIN_Configurations@F3117
   136   002F93  62                 	db	98
   137                           
   138                           ;initializer for MSSP_SPI_Msster_Mode_GPIO_PIN_Configurations@F3115
   139   002F94  2A                 	db	42
   140                           
   141                           ;initializer for _RB7_Flag
   142   002F95  01                 	db	1
   143                           
   144                           ;initializer for _RB6_Flag
   145   002F96  01                 	db	1
   146                           
   147                           ;initializer for _RB5_Flag
   148   002F97  01                 	db	1
   149                           
   150                           ;initializer for _RB4_Flag
   151   002F98  01                 	db	1
   152                           
   153                           ;initializer for _dc_motor_2
   154   002F99  12                 	db	18
   155   002F9A  1A                 	db	26
   156                           
   157                           ;initializer for _dc_motor_1
   158   002F9B  02                 	db	2
   159   002F9C  0A                 	db	10
   160                           
   161                           ;initializer for _led1
   162   002F9D  03                 	db	3
   163                           
   164                           	psect	idataBANK0
   165   002E88                     __pidataBANK0:
   166                           	callstack 0
   167                           
   168                           ;initializer for _port_registers
   169   002E88  80                 	db	128
   170   002E89  0F                 	db	15
   171   002E8A  81                 	db	129
   172   002E8B  0F                 	db	15
   173   002E8C  82                 	db	130
   174   002E8D  0F                 	db	15
   175   002E8E  83                 	db	131
   176   002E8F  0F                 	db	15
   177   002E90  84                 	db	132
   178   002E91  0F                 	db	15
   179                           
   180                           ;initializer for _lat_registers
   181   002E92  89                 	db	137
   182   002E93  0F                 	db	15
   183   002E94  8A                 	db	138
   184   002E95  0F                 	db	15
   185   002E96  8B                 	db	139
   186   002E97  0F                 	db	15
   187   002E98  8C                 	db	140
   188   002E99  0F                 	db	15
   189   002E9A  8D                 	db	141
   190   002E9B  0F                 	db	15
   191                           
   192                           ;initializer for _tris_registers
   193   002E9C  92                 	db	146
   194   002E9D  0F                 	db	15
   195   002E9E  93                 	db	147
   196   002E9F  0F                 	db	15
   197   002EA0  94                 	db	148
   198   002EA1  0F                 	db	15
   199   002EA2  95                 	db	149
   200   002EA3  0F                 	db	15
   201   002EA4  96                 	db	150
   202   002EA5  0F                 	db	15
   203                           
   204                           ;initializer for _adc_1
   205   002EA6  00                 	db	0
   206   002EA7  00                 	db	0
   207   002EA8  00                 	db	0
   208   002EA9  05                 	db	5
   209   002EAA  05                 	db	5
   210   002EAB  00                 	db	0
   211   002EAC  02                 	db	2
   212                           
   213                           ;initializer for _lcd_1
   214   002EAD  31                 	db	49
   215   002EAE  39                 	db	57
   216   002EAF  22                 	db	34
   217   002EB0  2A                 	db	42
   218   002EB1  32                 	db	50
   219   002EB2  3A                 	db	58
   220                           
   221                           	psect	smallconst
   222   001000                     __psmallconst:
   223                           	callstack 0
   224   001000  00                 	db	0
   225   001001                     _btn_values:
   226                           	callstack 0
   227   001001  37                 	db	55
   228   001002  38                 	db	56
   229   001003  39                 	db	57
   230   001004  2F                 	db	47
   231   001005  34                 	db	52
   232   001006  35                 	db	53
   233   001007  36                 	db	54
   234   001008  2A                 	db	42
   235   001009  31                 	db	49
   236   00100A  32                 	db	50
   237   00100B  33                 	db	51
   238   00100C  2D                 	db	45
   239   00100D  23                 	db	35
   240   00100E  30                 	db	48
   241   00100F  3D                 	db	61
   242   001010  2B                 	db	43
   243   001011                     __end_of_btn_values:
   244                           	callstack 0
   245   000000                     _SPBRGH	set	4016
   246   000000                     _SPBRG	set	4015
   247   000000                     _TXREG	set	4013
   248   000000                     _TXSTAbits	set	4012
   249   000000                     _RCREG	set	4014
   250   000000                     _TMR3L	set	4018
   251   000000                     _TMR3H	set	4019
   252   000000                     _TMR2	set	4044
   253   000000                     _T2CONbits	set	4042
   254   000000                     _TMR1L	set	4046
   255   000000                     _TMR1H	set	4047
   256   000000                     _T1CONbits	set	4045
   257   000000                     _TMR0L	set	4054
   258   000000                     _TMR0H	set	4055
   259   000000                     _T0CONbits	set	4053
   260   000000                     _INTCON2bits	set	4081
   261   000000                     _INTCON3bits	set	4080
   262   000000                     _ADCON1bits	set	4033
   263   000000                     _ADRESL	set	4035
   264   000000                     _ADRESH	set	4036
   265   000000                     _INTCONbits	set	4082
   266   000000                     _TRISD	set	3989
   267   000000                     _TRISC	set	3988
   268   000000                     _TRISB	set	3987
   269   000000                     _TRISE	set	3990
   270   000000                     _TRISCbits	set	3988
   271   000000                     _PORTBbits	set	3969
   272   000000                     _PIE1bits	set	3997
   273   000000                     _ADCON2bits	set	4032
   274   000000                     _ADCON0bits	set	4034
   275   000000                     _PORTE	set	3972
   276   000000                     _PORTD	set	3971
   277   000000                     _PORTC	set	3970
   278   000000                     _PORTB	set	3969
   279   000000                     _PORTA	set	3968
   280   000000                     _LATA	set	3977
   281   000000                     _TRISA	set	3986
   282   000000                     _PIE2bits	set	4000
   283   000000                     _CCP2CONbits	set	4026
   284   000000                     _CCP1CONbits	set	4029
   285   000000                     _PIR1bits	set	3998
   286   000000                     _SSPCON1bits	set	4038
   287   000000                     _PR2	set	4043
   288   000000                     _CCPR1L	set	4030
   289   000000                     _CCPR2L	set	4027
   290   000000                     _RCSTAbits	set	4011
   291   000000                     _T3CONbits	set	4017
   292   000000                     _PIR2bits	set	4001
   293   000000                     _LATE	set	3981
   294   000000                     _LATD	set	3980
   295   000000                     _LATC	set	3979
   296   000000                     _LATB	set	3978
   297   000000                     _SSPBUF	set	4041
   298   000000                     _SSPSTATbits	set	4039
   299   000000                     _BAUDCONbits	set	4024
   300   001011                     STR_10:
   301   001011  41                 	db	65	;'A'
   302   001012  69                 	db	105	;'i'
   303   001013  72                 	db	114	;'r'
   304   001014  20                 	db	32
   305   001015  43                 	db	67	;'C'
   306   001016  6F                 	db	111	;'o'
   307   001017  6E                 	db	110	;'n'
   308   001018  64                 	db	100	;'d'
   309   001019  69                 	db	105	;'i'
   310   00101A  74                 	db	116	;'t'
   311   00101B  69                 	db	105	;'i'
   312   00101C  6F                 	db	111	;'o'
   313   00101D  6E                 	db	110	;'n'
   314   00101E  69                 	db	105	;'i'
   315   00101F  6E                 	db	110	;'n'
   316   001020  67                 	db	103	;'g'
   317   001021  20                 	db	32
   318   001022  4F                 	db	79	;'O'
   319   001023  6E                 	db	110	;'n'
   320   001024  00                 	db	0
   321   001025                     STR_7:
   322   001025  20                 	db	32
   323   001026  20                 	db	32
   324   001027  20                 	db	32
   325   001028  20                 	db	32
   326   001029  20                 	db	32
   327   00102A  20                 	db	32
   328   00102B  20                 	db	32
   329   00102C  20                 	db	32
   330   00102D  20                 	db	32
   331   00102E  20                 	db	32
   332   00102F  20                 	db	32
   333   001030  20                 	db	32
   334   001031  20                 	db	32
   335   001032  20                 	db	32
   336   001033  20                 	db	32
   337   001034  20                 	db	32
   338   001035  00                 	db	0
   339   001036                     STR_8:
   340   001036  47                 	db	71	;'G'
   341   001037  65                 	db	101	;'e'
   342   001038  74                 	db	116	;'t'
   343   001039  74                 	db	116	;'t'
   344   00103A  69                 	db	105	;'i'
   345   00103B  6E                 	db	110	;'n'
   346   00103C  67                 	db	103	;'g'
   347   00103D  20                 	db	32
   348   00103E  68                 	db	104	;'h'
   349   00103F  6F                 	db	111	;'o'
   350   001040  74                 	db	116	;'t'
   351   001041  74                 	db	116	;'t'
   352   001042  65                 	db	101	;'e'
   353   001043  72                 	db	114	;'r'
   354   001044  20                 	db	32
   355   001045  00                 	db	0
   356   001046                     STR_9:
   357   001046  43                 	db	67	;'C'
   358   001047  6F                 	db	111	;'o'
   359   001048  6F                 	db	111	;'o'
   360   001049  6C                 	db	108	;'l'
   361   00104A  65                 	db	101	;'e'
   362   00104B  72                 	db	114	;'r'
   363   00104C  20                 	db	32
   364   00104D  62                 	db	98	;'b'
   365   00104E  6F                 	db	111	;'o'
   366   00104F  6F                 	db	111	;'o'
   367   001050  73                 	db	115	;'s'
   368   001051  74                 	db	116	;'t'
   369   001052  20                 	db	32
   370   001053  6F                 	db	111	;'o'
   371   001054  6E                 	db	110	;'n'
   372   001055  00                 	db	0
   373   001056                     STR_6:
   374   001056  47                 	db	71	;'G'
   375   001057  65                 	db	101	;'e'
   376   001058  74                 	db	116	;'t'
   377   001059  74                 	db	116	;'t'
   378   00105A  69                 	db	105	;'i'
   379   00105B  6E                 	db	110	;'n'
   380   00105C  67                 	db	103	;'g'
   381   00105D  20                 	db	32
   382   00105E  63                 	db	99	;'c'
   383   00105F  6F                 	db	111	;'o'
   384   001060  6F                 	db	111	;'o'
   385   001061  6C                 	db	108	;'l'
   386   001062  65                 	db	101	;'e'
   387   001063  72                 	db	114	;'r'
   388   001064  00                 	db	0
   389   001065                     STR_5:
   390   001065  49                 	db	73	;'I'
   391   001066  74                 	db	116	;'t'
   392   001067  27                 	db	39
   393   001068  73                 	db	115	;'s'
   394   001069  20                 	db	32
   395   00106A  68                 	db	104	;'h'
   396   00106B  6F                 	db	111	;'o'
   397   00106C  74                 	db	116	;'t'
   398   00106D  20                 	db	32
   399   00106E  6E                 	db	110	;'n'
   400   00106F  6F                 	db	111	;'o'
   401   001070  77                 	db	119	;'w'
   402   001071  00                 	db	0
   403   001072                     STR_4:
   404   001072  54                 	db	84	;'T'
   405   001073  65                 	db	101	;'e'
   406   001074  6D                 	db	109	;'m'
   407   001075  70                 	db	112	;'p'
   408   001076  3A                 	db	58	;':'
   409   001077  20                 	db	32
   410   001078  00                 	db	0
   411   001079                     STR_1:
   412   001079  25                 	db	37
   413   00107A  69                 	db	105	;'i'
   414   00107B  00                 	db	0
   415   00107C  00                 	db	0	; dummy byte at the end
   416   000000                     
   417                           ; #config settings
   418                           
   419                           	psect	cinit
   420   0029F0                     __pcinit:
   421                           	callstack 0
   422   0029F0                     start_initialization:
   423                           	callstack 0
   424   0029F0                     __initialization:
   425                           	callstack 0
   426                           
   427                           ; Initialize objects allocated to BANK0 (43 bytes)
   428                           ; load TBLPTR registers with __pidataBANK0
   429   0029F0  0E88               	movlw	low __pidataBANK0
   430   0029F2  6EF6               	movwf	tblptrl,c
   431   0029F4  0E2E               	movlw	high __pidataBANK0
   432   0029F6  6EF7               	movwf	tblptrh,c
   433   0029F8  0E00               	movlw	low (__pidataBANK0 shr (0+16))
   434   0029FA  6EF8               	movwf	tblptru,c
   435   0029FC  EE00  F0BD         	lfsr	0,__pdataBANK0
   436   002A00  EE10 F02B          	lfsr	1,43
   437   002A04                     copy_data0:
   438   002A04  0009               	tblrd		*+
   439   002A06  CFF5 FFEE          	movff	tablat,postinc0
   440   002A0A  50E5               	movf	postdec1,w,c
   441   002A0C  50E1               	movf	fsr1l,w,c
   442   002A0E  E1FA               	bnz	copy_data0
   443                           
   444                           ; Initialize objects allocated to COMRAM (16 bytes)
   445                           ; load TBLPTR registers with __pidataCOMRAM
   446   002A10  0E8E               	movlw	low __pidataCOMRAM
   447   002A12  6EF6               	movwf	tblptrl,c
   448   002A14  0E2F               	movlw	high __pidataCOMRAM
   449   002A16  6EF7               	movwf	tblptrh,c
   450   002A18  0E00               	movlw	low (__pidataCOMRAM shr (0+16))
   451   002A1A  6EF8               	movwf	tblptru,c
   452   002A1C  EE00  F06E         	lfsr	0,__pdataCOMRAM
   453   002A20  EE10 F010          	lfsr	1,16
   454   002A24                     copy_data1:
   455   002A24  0009               	tblrd		*+
   456   002A26  CFF5 FFEE          	movff	tablat,postinc0
   457   002A2A  50E5               	movf	postdec1,w,c
   458   002A2C  50E1               	movf	fsr1l,w,c
   459   002A2E  E1FA               	bnz	copy_data1
   460                           
   461                           ; Clear objects allocated to BANK0 (61 bytes)
   462   002A30  EE00  F080         	lfsr	0,__pbssBANK0
   463   002A34  0E3D               	movlw	61
   464   002A36                     clear_0:
   465   002A36  6AEE               	clrf	postinc0,c
   466   002A38  06E8               	decf	wreg,f,c
   467   002A3A  E1FD               	bnz	clear_0
   468                           
   469                           ; Clear objects allocated to COMRAM (53 bytes)
   470   002A3C  EE00  F039         	lfsr	0,__pbssCOMRAM
   471   002A40  0E35               	movlw	53
   472   002A42                     clear_1:
   473   002A42  6AEE               	clrf	postinc0,c
   474   002A44  06E8               	decf	wreg,f,c
   475   002A46  E1FD               	bnz	clear_1
   476   002A48                     end_of_initialization:
   477                           	callstack 0
   478   002A48                     __end_of__initialization:
   479                           	callstack 0
   480   002A48  907E               	bcf	int$flags,0,c	;clear compiler interrupt flag (level 1)
   481   002A4A  927E               	bcf	int$flags,1,c	;clear compiler interrupt flag (level 2)
   482   002A4C  0100               	movlb	0
   483   002A4E  EF37  F00C         	goto	_main	;jump to C main() function
   484                           
   485                           	psect	bssCOMRAM
   486   000039                     __pbssCOMRAM:
   487                           	callstack 0
   488   000039                     _lm35_res_1_Celsius_mv:
   489                           	callstack 0
   490   000039                     	ds	2
   491   00003B                     _timer3_preload:
   492                           	callstack 0
   493   00003B                     	ds	2
   494   00003D                     _timer1_preload:
   495                           	callstack 0
   496   00003D                     	ds	2
   497   00003F                     _TMR1_InterruptHandler:
   498                           	callstack 0
   499   00003F                     	ds	2
   500   000041                     _timer0_preload:
   501                           	callstack 0
   502   000041                     	ds	2
   503   000043                     _TMR0_InterruptHandler:
   504                           	callstack 0
   505   000043                     	ds	2
   506   000045                     _SPI_InterruptHandler:
   507                           	callstack 0
   508   000045                     	ds	2
   509   000047                     _RB7_InterruptHandler_LOW:
   510                           	callstack 0
   511   000047                     	ds	2
   512   000049                     _RB7_InterruptHandler_HIGH:
   513                           	callstack 0
   514   000049                     	ds	2
   515   00004B                     _RB6_InterruptHandler_LOW:
   516                           	callstack 0
   517   00004B                     	ds	2
   518   00004D                     _RB6_InterruptHandler_HIGH:
   519                           	callstack 0
   520   00004D                     	ds	2
   521   00004F                     _RB5_InterruptHandler_LOW:
   522                           	callstack 0
   523   00004F                     	ds	2
   524   000051                     _RB5_InterruptHandler_HIGH:
   525                           	callstack 0
   526   000051                     	ds	2
   527   000053                     _RB4_InterruptHandler_LOW:
   528                           	callstack 0
   529   000053                     	ds	2
   530   000055                     _RB4_InterruptHandler_HIGH:
   531                           	callstack 0
   532   000055                     	ds	2
   533   000057                     _INT2_InterruptHandler:
   534                           	callstack 0
   535   000057                     	ds	2
   536   000059                     _INT1_InterruptHandler:
   537                           	callstack 0
   538   000059                     	ds	2
   539   00005B                     _INT0_InterruptHandler:
   540                           	callstack 0
   541   00005B                     	ds	2
   542   00005D                     _CCP2_InterruptHandler:
   543                           	callstack 0
   544   00005D                     	ds	2
   545   00005F                     _CCP1_InterruptHandler:
   546                           	callstack 0
   547   00005F                     	ds	2
   548   000061                     _ADC_InterruptHandler:
   549                           	callstack 0
   550   000061                     	ds	2
   551   000063                     _flags:
   552                           	callstack 0
   553   000063                     	ds	1
   554   000064                     _timer2_preload:
   555                           	callstack 0
   556   000064                     	ds	1
   557   000065                     relay_turn_off@F3067:
   558                           	callstack 0
   559   000065                     	ds	1
   560   000066                     relay_turn_on@F3062:
   561                           	callstack 0
   562   000066                     	ds	1
   563   000067                     relay_initialize@F3057:
   564                           	callstack 0
   565   000067                     	ds	1
   566   000068                     led_turn_toggle@F3132:
   567                           	callstack 0
   568   000068                     	ds	1
   569   000069                     led_turn_off@F3127:
   570                           	callstack 0
   571   000069                     	ds	1
   572   00006A                     led_turn_on@F3122:
   573                           	callstack 0
   574   00006A                     	ds	1
   575   00006B                     led_initialize@F3117:
   576                           	callstack 0
   577   00006B                     	ds	1
   578   00006C                     _lm35_res_1:
   579                           	callstack 0
   580   00006C                     	ds	2
   581                           
   582                           	psect	dataCOMRAM
   583   00006E                     __pdataCOMRAM:
   584                           	callstack 0
   585   00006E                     MSSP_SPI_Slave_Mode_GPIO_PIN_Configurations@F3130:
   586                           	callstack 0
   587   00006E                     	ds	1
   588   00006F                     MSSP_SPI_Slave_Mode_GPIO_PIN_Configurations@F3128:
   589                           	callstack 0
   590   00006F                     	ds	1
   591   000070                     MSSP_SPI_Slave_Mode_GPIO_PIN_Configurations@F3126:
   592                           	callstack 0
   593   000070                     	ds	1
   594   000071                     MSSP_SPI_Slave_Mode_GPIO_PIN_Configurations@F3124:
   595                           	callstack 0
   596   000071                     	ds	1
   597   000072                     MSSP_SPI_Msster_Mode_GPIO_PIN_Configurations@F3119:
   598                           	callstack 0
   599   000072                     	ds	1
   600   000073                     MSSP_SPI_Msster_Mode_GPIO_PIN_Configurations@F3117:
   601                           	callstack 0
   602   000073                     	ds	1
   603   000074                     MSSP_SPI_Msster_Mode_GPIO_PIN_Configurations@F3115:
   604                           	callstack 0
   605   000074                     	ds	1
   606   000075                     _RB7_Flag:
   607                           	callstack 0
   608   000075                     	ds	1
   609   000076                     _RB6_Flag:
   610                           	callstack 0
   611   000076                     	ds	1
   612   000077                     _RB5_Flag:
   613                           	callstack 0
   614   000077                     	ds	1
   615   000078                     _RB4_Flag:
   616                           	callstack 0
   617   000078                     	ds	1
   618   000079                     _dc_motor_2:
   619                           	callstack 0
   620   000079                     	ds	2
   621   00007B                     _dc_motor_1:
   622                           	callstack 0
   623   00007B                     	ds	2
   624   00007D                     _led1:
   625                           	callstack 0
   626   00007D                     	ds	1
   627                           
   628                           	psect	bssBANK0
   629   000080                     __pbssBANK0:
   630                           	callstack 0
   631   000080                     _dbuf:
   632                           	callstack 0
   633   000080                     	ds	32
   634   0000A0                     	ds	6
   635   0000A6                     _width:
   636                           	callstack 0
   637   0000A6                     	ds	2
   638   0000A8                     _prec:
   639                           	callstack 0
   640   0000A8                     	ds	2
   641   0000AA                     _EUSART_OverrunErrorHandler:
   642                           	callstack 0
   643   0000AA                     	ds	2
   644   0000AC                     _EUSART_FramingErrorHandler:
   645                           	callstack 0
   646   0000AC                     	ds	2
   647   0000AE                     _EUSART_RxInterruptHandler:
   648                           	callstack 0
   649   0000AE                     	ds	2
   650   0000B0                     _EUSART_TxInterruptHandler:
   651                           	callstack 0
   652   0000B0                     	ds	2
   653   0000B2                     _TMR3_InterruptHandler:
   654                           	callstack 0
   655   0000B2                     	ds	2
   656   0000B4                     _TMR2_InterruptHandler:
   657                           	callstack 0
   658   0000B4                     	ds	2
   659   0000B6                     _lm35_res_1_txt:
   660                           	callstack 0
   661   0000B6                     	ds	7
   662                           
   663                           	psect	dataBANK0
   664   0000BD                     __pdataBANK0:
   665                           	callstack 0
   666   0000BD                     _port_registers:
   667                           	callstack 0
   668   0000BD                     	ds	10
   669   0000C7                     _lat_registers:
   670                           	callstack 0
   671   0000C7                     	ds	10
   672   0000D1                     _tris_registers:
   673                           	callstack 0
   674   0000D1                     	ds	10
   675   0000DB                     _adc_1:
   676                           	callstack 0
   677   0000DB                     	ds	7
   678   0000E2                     _lcd_1:
   679                           	callstack 0
   680   0000E2                     	ds	6
   681                           
   682                           	psect	cstackBANK0
   683   0000E8                     __pcstackBANK0:
   684                           	callstack 0
   685   0000E8                     main@ret:
   686                           	callstack 0
   687                           
   688                           ; 1 bytes @ 0x0
   689   0000E8                     	ds	1
   690                           
   691                           	psect	cstackCOMRAM
   692   000001                     __pcstackCOMRAM:
   693                           	callstack 0
   694   000001                     RB4_ISR@RB4_Source:
   695                           	callstack 0
   696   000001                     RB5_ISR@RB5_Source:
   697                           	callstack 0
   698   000001                     RB6_ISR@RB6_Source:
   699                           	callstack 0
   700   000001                     RB7_ISR@RB7_Source:
   701                           	callstack 0
   702   000001                     
   703                           ; 1 bytes @ 0x0
   704   000001                     	ds	1
   705   000002                     ??_adc_input_channel_port_configure:
   706   000002                     ?___awdiv:
   707                           	callstack 0
   708   000002                     ?___awmod:
   709                           	callstack 0
   710   000002                     ?___lwdiv:
   711                           	callstack 0
   712   000002                     ?___xxtofl:
   713                           	callstack 0
   714   000002                     ADC_StartConversion@_adc:
   715                           	callstack 0
   716   000002                     ADC_GetConversionResult@_adc:
   717                           	callstack 0
   718   000002                     select_result_format@_adc:
   719                           	callstack 0
   720   000002                     configure_voltage_reference@_adc:
   721                           	callstack 0
   722   000002                     gpio_pin_direction_initialize@_pin_config:
   723                           	callstack 0
   724   000002                     gpio_pin_write_logic@_pin_config:
   725                           	callstack 0
   726   000002                     memset@dest:
   727                           	callstack 0
   728   000002                     ___awdiv@dividend:
   729                           	callstack 0
   730   000002                     ___awmod@dividend:
   731                           	callstack 0
   732   000002                     ___lwdiv@dividend:
   733                           	callstack 0
   734   000002                     fputc@c:
   735                           	callstack 0
   736   000002                     ___xxtofl@val:
   737                           	callstack 0
   738                           
   739                           ; 4 bytes @ 0x1
   740   000002                     	ds	1
   741   000003                     ??_gpio_pin_direction_initialize:
   742   000003                     ADC_StartConversion@ret:
   743                           	callstack 0
   744   000003                     ADC_GetConversionResult@conversion_result:
   745                           	callstack 0
   746   000003                     gpio_pin_write_logic@logic:
   747                           	callstack 0
   748   000003                     memset@c:
   749                           	callstack 0
   750                           
   751                           ; 2 bytes @ 0x2
   752   000003                     	ds	1
   753   000004                     ??_gpio_pin_write_logic:
   754   000004                     ??_ADC_GetConversionResult:
   755   000004                     adc_input_channel_port_configure@channel:
   756                           	callstack 0
   757   000004                     fputc@fp:
   758                           	callstack 0
   759   000004                     ___awdiv@divisor:
   760                           	callstack 0
   761   000004                     ___awmod@divisor:
   762                           	callstack 0
   763   000004                     ___lwdiv@divisor:
   764                           	callstack 0
   765                           
   766                           ; 2 bytes @ 0x3
   767   000004                     	ds	1
   768   000005                     ??_fputc:
   769   000005                     ADC_Init@_adc:
   770                           	callstack 0
   771   000005                     ADC_SelectChannel@_adc:
   772                           	callstack 0
   773   000005                     memset@n:
   774                           	callstack 0
   775                           
   776                           ; 2 bytes @ 0x4
   777   000005                     	ds	1
   778   000006                     ??_ADC_Init:
   779   000006                     ??___xxtofl:
   780   000006                     ADC_SelectChannel@channel:
   781                           	callstack 0
   782   000006                     ___awdiv@counter:
   783                           	callstack 0
   784   000006                     ___awmod@counter:
   785                           	callstack 0
   786   000006                     ___lwdiv@counter:
   787                           	callstack 0
   788                           
   789                           ; 1 bytes @ 0x5
   790   000006                     	ds	1
   791   000007                     ??_ADC_SelectChannel:
   792   000007                     ADC_Init@ret:
   793                           	callstack 0
   794   000007                     ADC_GetConversionResult@ret:
   795                           	callstack 0
   796   000007                     ___awdiv@sign:
   797                           	callstack 0
   798   000007                     ___awmod@sign:
   799                           	callstack 0
   800   000007                     memset@p:
   801                           	callstack 0
   802   000007                     ___lwdiv@quotient:
   803                           	callstack 0
   804                           
   805                           ; 2 bytes @ 0x6
   806   000007                     	ds	1
   807   000008                     ?_abs:
   808                           	callstack 0
   809   000008                     ADC_SelectChannel@ret:
   810                           	callstack 0
   811   000008                     gpio_pin_direction_initialize@ret:
   812                           	callstack 0
   813   000008                     ___awdiv@quotient:
   814                           	callstack 0
   815   000008                     abs@a:
   816                           	callstack 0
   817                           
   818                           ; 2 bytes @ 0x7
   819   000008                     	ds	1
   820   000009                     led_initialize@led:
   821                           	callstack 0
   822   000009                     ADC_GetConversion_Blocking@_adc:
   823                           	callstack 0
   824   000009                     gpio_pin_write_logic@ret:
   825                           	callstack 0
   826                           
   827                           ; 1 bytes @ 0x8
   828   000009                     	ds	1
   829   00000A                     ??_abs:
   830   00000A                     ??_led_initialize:
   831   00000A                     lcd_send_4bits@lcd:
   832                           	callstack 0
   833   00000A                     lcd_4bit_send_enable_signal@lcd:
   834                           	callstack 0
   835   00000A                     dc_motor_move_right@_dc_motor:
   836                           	callstack 0
   837   00000A                     dc_motor_stop@_dc_motor:
   838                           	callstack 0
   839   00000A                     led_turn_on@led:
   840                           	callstack 0
   841   00000A                     led_turn_off@led:
   842                           	callstack 0
   843   00000A                     ADC_GetConversion_Blocking@channel:
   844                           	callstack 0
   845   00000A                     gpio_pin_initialize@_pin_config:
   846                           	callstack 0
   847   00000A                     ___xxtofl@sign:
   848                           	callstack 0
   849                           
   850                           ; 1 bytes @ 0x9
   851   00000A                     	ds	1
   852   00000B                     ??_gpio_pin_initialize:
   853   00000B                     ??_led_turn_on:
   854   00000B                     ??_led_turn_off:
   855   00000B                     lcd_send_4bits@_data_command:
   856                           	callstack 0
   857   00000B                     lcd_4bit_send_enable_signal@ret:
   858                           	callstack 0
   859   00000B                     dc_motor_move_right@ret:
   860                           	callstack 0
   861   00000B                     dc_motor_stop@ret:
   862                           	callstack 0
   863   00000B                     led_initialize@ret:
   864                           	callstack 0
   865   00000B                     ADC_GetConversion_Blocking@conversion_result:
   866                           	callstack 0
   867   00000B                     ___xxtofl@exp:
   868                           	callstack 0
   869                           
   870                           ; 1 bytes @ 0xA
   871   00000B                     	ds	1
   872   00000C                     lcd_send_4bits@ret:
   873                           	callstack 0
   874   00000C                     led_initialize@pin_obj:
   875                           	callstack 0
   876   00000C                     led_turn_on@ret:
   877                           	callstack 0
   878   00000C                     led_turn_off@ret:
   879                           	callstack 0
   880   00000C                     ADC_GetConversion_Blocking@ret:
   881                           	callstack 0
   882   00000C                     gpio_pin_initialize@ret:
   883                           	callstack 0
   884   00000C                     vfpfcnvrt@fp:
   885                           	callstack 0
   886   00000C                     ___xxtofl@arg:
   887                           	callstack 0
   888                           
   889                           ; 4 bytes @ 0xB
   890   00000C                     	ds	1
   891   00000D                     lcd_4bit_send_command@lcd:
   892                           	callstack 0
   893   00000D                     lcd_4bit_send_char_data@lcd:
   894                           	callstack 0
   895   00000D                     dc_motor_initialize@_dc_motor:
   896                           	callstack 0
   897   00000D                     led_turn_on@pin_obj:
   898                           	callstack 0
   899   00000D                     led_turn_off@pin_obj:
   900                           	callstack 0
   901   00000D                     vfpfcnvrt@fmt:
   902                           	callstack 0
   903                           
   904                           ; 1 bytes @ 0xC
   905   00000D                     	ds	1
   906   00000E                     lcd_4bit_send_command@command:
   907                           	callstack 0
   908   00000E                     lcd_4bit_send_char_data@data:
   909                           	callstack 0
   910   00000E                     dc_motor_initialize@ret:
   911                           	callstack 0
   912   00000E                     vfpfcnvrt@ap:
   913                           	callstack 0
   914                           
   915                           ; 1 bytes @ 0xD
   916   00000E                     	ds	1
   917   00000F                     ??_vfpfcnvrt:
   918   00000F                     lcd_4bit_send_command@ret:
   919                           	callstack 0
   920                           
   921                           ; 1 bytes @ 0xE
   922   00000F                     	ds	1
   923   000010                     ?___flmul:
   924                           	callstack 0
   925   000010                     lcd_4bit_intialize@lcd:
   926                           	callstack 0
   927   000010                     lcd_4bit_set_cursor@lcd:
   928                           	callstack 0
   929   000010                     vfpfcnvrt@done:
   930                           	callstack 0
   931   000010                     ___flmul@b:
   932                           	callstack 0
   933                           
   934                           ; 4 bytes @ 0xF
   935   000010                     	ds	1
   936   000011                     ??_lcd_4bit_intialize:
   937   000011                     lcd_4bit_set_cursor@row:
   938                           	callstack 0
   939   000011                     vfpfcnvrt@cp:
   940                           	callstack 0
   941                           
   942                           ; 1 bytes @ 0x10
   943   000011                     	ds	1
   944   000012                     lcd_4bit_intialize@l_data_pins_counter:
   945                           	callstack 0
   946   000012                     lcd_4bit_set_cursor@coulmn:
   947                           	callstack 0
   948   000012                     vfpfcnvrt@convarg:
   949                           	callstack 0
   950                           
   951                           ; 4 bytes @ 0x11
   952   000012                     	ds	1
   953   000013                     ??_lcd_4bit_set_cursor:
   954   000013                     lcd_4bit_intialize@ret:
   955                           	callstack 0
   956                           
   957                           ; 1 bytes @ 0x12
   958   000013                     	ds	1
   959   000014                     ___flmul@a:
   960                           	callstack 0
   961                           
   962                           ; 4 bytes @ 0x13
   963   000014                     	ds	1
   964   000015                     lcd_4bit_set_cursor@ret:
   965                           	callstack 0
   966                           
   967                           ; 1 bytes @ 0x14
   968   000015                     	ds	1
   969   000016                     lcd_4bit_send_string_pos@lcd:
   970                           	callstack 0
   971   000016                     vfpfcnvrt@c:
   972                           	callstack 0
   973                           
   974                           ; 1 bytes @ 0x15
   975   000016                     	ds	1
   976   000017                     ?_vfprintf:
   977                           	callstack 0
   978   000017                     lcd_4bit_send_string_pos@row:
   979                           	callstack 0
   980   000017                     vfprintf@fp:
   981                           	callstack 0
   982                           
   983                           ; 1 bytes @ 0x16
   984   000017                     	ds	1
   985   000018                     ??___flmul:
   986   000018                     lcd_4bit_send_string_pos@column:
   987                           	callstack 0
   988   000018                     vfprintf@fmt:
   989                           	callstack 0
   990                           
   991                           ; 1 bytes @ 0x17
   992   000018                     	ds	1
   993   000019                     vfprintf@ap:
   994                           	callstack 0
   995   000019                     lcd_4bit_send_string_pos@str:
   996                           	callstack 0
   997                           
   998                           ; 2 bytes @ 0x18
   999   000019                     	ds	1
  1000   00001A                     vfprintf@cfmt:
  1001                           	callstack 0
  1002                           
  1003                           ; 1 bytes @ 0x19
  1004   00001A                     	ds	1
  1005   00001B                     ?_sprintf:
  1006                           	callstack 0
  1007   00001B                     lcd_4bit_send_string_pos@ret:
  1008                           	callstack 0
  1009   00001B                     sprintf@s:
  1010                           	callstack 0
  1011                           
  1012                           ; 1 bytes @ 0x1A
  1013   00001B                     	ds	1
  1014   00001C                     ??_Air_Conditioning_On:
  1015   00001C                     ___flmul@sign:
  1016                           	callstack 0
  1017   00001C                     sprintf@fmt:
  1018                           	callstack 0
  1019                           
  1020                           ; 1 bytes @ 0x1B
  1021   00001C                     	ds	1
  1022   00001D                     ___flmul@aexp:
  1023                           	callstack 0
  1024                           
  1025                           ; 1 bytes @ 0x1C
  1026   00001D                     	ds	1
  1027   00001E                     ___flmul@grs:
  1028                           	callstack 0
  1029                           
  1030                           ; 4 bytes @ 0x1D
  1031   00001E                     	ds	1
  1032   00001F                     sprintf@ap:
  1033                           	callstack 0
  1034                           
  1035                           ; 1 bytes @ 0x1E
  1036   00001F                     	ds	1
  1037   000020                     sprintf@f:
  1038                           	callstack 0
  1039                           
  1040                           ; 12 bytes @ 0x1F
  1041   000020                     	ds	2
  1042   000022                     ___flmul@bexp:
  1043                           	callstack 0
  1044                           
  1045                           ; 1 bytes @ 0x21
  1046   000022                     	ds	1
  1047   000023                     ___flmul@prod:
  1048                           	callstack 0
  1049                           
  1050                           ; 4 bytes @ 0x22
  1051   000023                     	ds	4
  1052   000027                     ___flmul@temp:
  1053                           	callstack 0
  1054                           
  1055                           ; 2 bytes @ 0x26
  1056   000027                     	ds	2
  1057   000029                     ?___fltol:
  1058                           	callstack 0
  1059   000029                     ___fltol@f1:
  1060                           	callstack 0
  1061                           
  1062                           ; 4 bytes @ 0x28
  1063   000029                     	ds	3
  1064   00002C                     convert_uint16_to_string@value:
  1065                           	callstack 0
  1066                           
  1067                           ; 2 bytes @ 0x2B
  1068   00002C                     	ds	1
  1069   00002D                     ??___fltol:
  1070                           
  1071                           ; 1 bytes @ 0x2C
  1072   00002D                     	ds	1
  1073   00002E                     convert_uint16_to_string@str:
  1074                           	callstack 0
  1075                           
  1076                           ; 1 bytes @ 0x2D
  1077   00002E                     	ds	1
  1078   00002F                     convert_uint16_to_string@Temp_String:
  1079                           	callstack 0
  1080                           
  1081                           ; 6 bytes @ 0x2E
  1082   00002F                     	ds	2
  1083   000031                     ___fltol@sign1:
  1084                           	callstack 0
  1085                           
  1086                           ; 1 bytes @ 0x30
  1087   000031                     	ds	1
  1088   000032                     ___fltol@exp1:
  1089                           	callstack 0
  1090                           
  1091                           ; 1 bytes @ 0x31
  1092   000032                     	ds	3
  1093   000035                     convert_uint16_to_string@ret:
  1094                           	callstack 0
  1095                           
  1096                           ; 1 bytes @ 0x34
  1097   000035                     	ds	1
  1098   000036                     convert_uint16_to_string@DataCounter:
  1099                           	callstack 0
  1100                           
  1101                           ; 1 bytes @ 0x35
  1102   000036                     	ds	1
  1103   000037                     ??_main:
  1104                           
  1105                           ; 1 bytes @ 0x36
  1106   000037                     	ds	2
  1107                           
  1108 ;;
  1109 ;;Main: autosize = 0, tempsize = 2, incstack = 0, save=0
  1110 ;;
  1111 ;; *************** function _main *****************
  1112 ;; Defined at:
  1113 ;;		line 15 in file "app1.c"
  1114 ;; Parameters:    Size  Location     Type
  1115 ;;		None
  1116 ;; Auto vars:     Size  Location     Type
  1117 ;;  ret             1    0[BANK0 ] unsigned char 
  1118 ;; Return value:  Size  Location     Type
  1119 ;;                  2  1551[None  ] int 
  1120 ;; Registers used:
  1121 ;;		wreg, fsr0l, fsr0h, fsr1l, fsr1h, fsr2l, fsr2h, status,2, status,0, tblptrl, tblptrh, tblptru, prodl, prodh, cstack
  1122 ;; Tracked objects:
  1123 ;;		On entry : 0/0
  1124 ;;		On exit  : 0/0
  1125 ;;		Unchanged: 0/0
  1126 ;; Data sizes:     COMRAM   BANK0   BANK1   BANK2   BANK3   BANK4   BANK5   BANK6   BANK7   BANK8   BANK9  BANK10  BANK1
      +1  BANK12  BANK13  BANK14  BANK15
  1127 ;;      Params:         0       0       0       0       0       0       0       0       0       0       0       0       
      +0       0       0       0       0
  1128 ;;      Locals:         0       1       0       0       0       0       0       0       0       0       0       0       
      +0       0       0       0       0
  1129 ;;      Temps:          2       0       0       0       0       0       0       0       0       0       0       0       
      +0       0       0       0       0
  1130 ;;      Totals:         2       1       0       0       0       0       0       0       0       0       0       0       
      +0       0       0       0       0
  1131 ;;Total ram usage:        3 bytes
  1132 ;; Hardware stack levels required when called: 8
  1133 ;; This function calls:
  1134 ;;		_ADC_GetConversion_Blocking
  1135 ;;		_Air_Conditioning_On
  1136 ;;		___flmul
  1137 ;;		___fltol
  1138 ;;		___lwdiv
  1139 ;;		___xxtofl
  1140 ;;		_application_intialize
  1141 ;;		_convert_uint16_to_string
  1142 ;;		_dc_motor_move_right
  1143 ;;		_dc_motor_stop
  1144 ;;		_lcd_4bit_send_string_pos
  1145 ;;		_led_turn_off
  1146 ;;		_led_turn_on
  1147 ;; This function is called by:
  1148 ;;		Startup code after reset
  1149 ;; This function uses a non-reentrant model
  1150 ;;
  1151                           
  1152                           	psect	text0
  1153   00186E                     __ptext0:
  1154                           	callstack 0
  1155   00186E                     _main:
  1156                           	callstack 23
  1157   00186E                     
  1158                           ;app1.c: 17:     application_intialize();
  1159   00186E  ECE5  F017         	call	_application_intialize	;wreg free
  1160   001872                     
  1161                           ;app1.c: 19:         Air_Conditioning_On();
  1162   001872  ECDE  F015         	call	_Air_Conditioning_On	;wreg free
  1163   001876                     l8895:
  1164   001876  0EDB               	movlw	low _adc_1
  1165   001878  6E09               	movwf	ADC_GetConversion_Blocking@_adc^0,c
  1166   00187A  0E00               	movlw	0
  1167   00187C  6E0A               	movwf	ADC_GetConversion_Blocking@channel^0,c
  1168   00187E  0E6C               	movlw	low _lm35_res_1
  1169   001880  6E0B               	movwf	ADC_GetConversion_Blocking@conversion_result^0,c
  1170   001882  EC29  F015         	call	_ADC_GetConversion_Blocking	;wreg free
  1171   001886                     
  1172                           ;app1.c: 23:         lm35_res_1_Celsius_mv = lm35_res_1 * 4.88f;
  1173   001886  0EF6               	movlw	246
  1174   001888  6E14               	movwf	___flmul@a^0,c
  1175   00188A  0E28               	movlw	40
  1176   00188C  6E15               	movwf	(___flmul@a+1)^0,c
  1177   00188E  0E9C               	movlw	156
  1178   001890  6E16               	movwf	(___flmul@a+2)^0,c
  1179   001892  0E40               	movlw	64
  1180   001894  6E17               	movwf	(___flmul@a+3)^0,c
  1181   001896  C06C  F002         	movff	_lm35_res_1,___xxtofl@val
  1182   00189A  C06D  F003         	movff	_lm35_res_1+1,___xxtofl@val+1
  1183   00189E  6A04               	clrf	(___xxtofl@val+2)^0,c
  1184   0018A0  6A05               	clrf	(___xxtofl@val+3)^0,c
  1185   0018A2  0E00               	movlw	0
  1186   0018A4  EC16  F00E         	call	___xxtofl
  1187   0018A8  C002  F010         	movff	?___xxtofl,___flmul@b
  1188   0018AC  C003  F011         	movff	?___xxtofl+1,___flmul@b+1
  1189   0018B0  C004  F012         	movff	?___xxtofl+2,___flmul@b+2
  1190   0018B4  C005  F013         	movff	?___xxtofl+3,___flmul@b+3
  1191   0018B8  EC3F  F008         	call	___flmul	;wreg free
  1192   0018BC  C010  F029         	movff	?___flmul,___fltol@f1
  1193   0018C0  C011  F02A         	movff	?___flmul+1,___fltol@f1+1
  1194   0018C4  C012  F02B         	movff	?___flmul+2,___fltol@f1+2
  1195   0018C8  C013  F02C         	movff	?___flmul+3,___fltol@f1+3
  1196   0018CC  EC0B  F010         	call	___fltol	;wreg free
  1197   0018D0  C029  F039         	movff	?___fltol,_lm35_res_1_Celsius_mv
  1198   0018D4  C02A  F03A         	movff	?___fltol+1,_lm35_res_1_Celsius_mv+1
  1199   0018D8                     
  1200                           ;app1.c: 24:         lm35_res_1_Celsius_mv /= 10;
  1201   0018D8  C039  F002         	movff	_lm35_res_1_Celsius_mv,___lwdiv@dividend
  1202   0018DC  C03A  F003         	movff	_lm35_res_1_Celsius_mv+1,___lwdiv@dividend+1
  1203   0018E0  0E00               	movlw	0
  1204   0018E2  6E05               	movwf	(___lwdiv@divisor+1)^0,c
  1205   0018E4  0E0A               	movlw	10
  1206   0018E6  6E04               	movwf	___lwdiv@divisor^0,c
  1207   0018E8  EC86  F014         	call	___lwdiv	;wreg free
  1208   0018EC  C002  F039         	movff	?___lwdiv,_lm35_res_1_Celsius_mv
  1209   0018F0  C003  F03A         	movff	?___lwdiv+1,_lm35_res_1_Celsius_mv+1
  1210   0018F4  C039  F02C         	movff	_lm35_res_1_Celsius_mv,convert_uint16_to_string@value
  1211   0018F8  C03A  F02D         	movff	_lm35_res_1_Celsius_mv+1,convert_uint16_to_string@value+1
  1212   0018FC  0EB6               	movlw	low _lm35_res_1_txt
  1213   0018FE  6E2E               	movwf	convert_uint16_to_string@str^0,c
  1214   001900  EC2E  F013         	call	_convert_uint16_to_string	;wreg free
  1215   001904  0EE2               	movlw	low _lcd_1
  1216   001906  6E16               	movwf	lcd_4bit_send_string_pos@lcd^0,c
  1217   001908  0E01               	movlw	1
  1218   00190A  6E17               	movwf	lcd_4bit_send_string_pos@row^0,c
  1219   00190C  0E01               	movlw	1
  1220   00190E  6E18               	movwf	lcd_4bit_send_string_pos@column^0,c
  1221   001910  0E72               	movlw	low STR_4
  1222   001912  6E19               	movwf	lcd_4bit_send_string_pos@str^0,c
  1223   001914  5019               	movf	lcd_4bit_send_string_pos@str^0,w,c
  1224   001916  A4D8               	btfss	status,2,c
  1225   001918  0E10               	movlw	high __smallconst
  1226   00191A  6E1A               	movwf	(lcd_4bit_send_string_pos@str+1)^0,c
  1227   00191C  ECC7  F013         	call	_lcd_4bit_send_string_pos	;wreg free
  1228   001920  0EE2               	movlw	low _lcd_1
  1229   001922  6E16               	movwf	lcd_4bit_send_string_pos@lcd^0,c
  1230   001924  0E01               	movlw	1
  1231   001926  6E17               	movwf	lcd_4bit_send_string_pos@row^0,c
  1232   001928  0E07               	movlw	7
  1233   00192A  6E18               	movwf	lcd_4bit_send_string_pos@column^0,c
  1234   00192C  0EB6               	movlw	low _lm35_res_1_txt
  1235   00192E  6E19               	movwf	lcd_4bit_send_string_pos@str^0,c
  1236   001930  6A1A               	clrf	(lcd_4bit_send_string_pos@str+1)^0,c
  1237   001932  ECC7  F013         	call	_lcd_4bit_send_string_pos	;wreg free
  1238   001936                     
  1239                           ;app1.c: 28:         if(lm35_res_1_Celsius_mv > 20){
  1240   001936  503A               	movf	(_lm35_res_1_Celsius_mv+1)^0,w,c
  1241   001938  E109               	bnz	u8390
  1242   00193A  0E15               	movlw	21
  1243   00193C  5C39               	subwf	_lm35_res_1_Celsius_mv^0,w,c
  1244   00193E  A0D8               	btfss	status,0,c
  1245   001940  EFA4  F00C         	goto	u8391
  1246   001944  EFA6  F00C         	goto	u8390
  1247   001948                     u8391:
  1248   001948  EFBA  F00C         	goto	l8913
  1249   00194C                     u8390:
  1250   00194C  0EE2               	movlw	low _lcd_1
  1251   00194E  6E16               	movwf	lcd_4bit_send_string_pos@lcd^0,c
  1252   001950  0E02               	movlw	2
  1253   001952  6E17               	movwf	lcd_4bit_send_string_pos@row^0,c
  1254   001954  0E02               	movlw	2
  1255   001956  6E18               	movwf	lcd_4bit_send_string_pos@column^0,c
  1256   001958  0E65               	movlw	low STR_5
  1257   00195A  6E19               	movwf	lcd_4bit_send_string_pos@str^0,c
  1258   00195C  5019               	movf	lcd_4bit_send_string_pos@str^0,w,c
  1259   00195E  A4D8               	btfss	status,2,c
  1260   001960  0E10               	movlw	high __smallconst
  1261   001962  6E1A               	movwf	(lcd_4bit_send_string_pos@str+1)^0,c
  1262   001964  ECC7  F013         	call	_lcd_4bit_send_string_pos	;wreg free
  1263   001968  0E7B               	movlw	low _dc_motor_1
  1264   00196A  6E0A               	movwf	dc_motor_move_right@_dc_motor^0,c
  1265   00196C  ECA8  F016         	call	_dc_motor_move_right	;wreg free
  1266                           
  1267                           ;app1.c: 34:         }
  1268   001970  EFE5  F00C         	goto	l8921
  1269   001974                     l8913:
  1270   001974  503A               	movf	(_lm35_res_1_Celsius_mv+1)^0,w,c
  1271   001976  E107               	bnz	u8401
  1272   001978  0E14               	movlw	20
  1273   00197A  5C39               	subwf	_lm35_res_1_Celsius_mv^0,w,c
  1274   00197C  B0D8               	btfsc	status,0,c
  1275   00197E  EFC3  F00C         	goto	u8401
  1276   001982  EFC5  F00C         	goto	u8400
  1277   001986                     u8401:
  1278   001986  EFE5  F00C         	goto	l8921
  1279   00198A                     u8400:
  1280   00198A  0EE2               	movlw	low _lcd_1
  1281   00198C  6E16               	movwf	lcd_4bit_send_string_pos@lcd^0,c
  1282   00198E  0E02               	movlw	2
  1283   001990  6E17               	movwf	lcd_4bit_send_string_pos@row^0,c
  1284   001992  0E02               	movlw	2
  1285   001994  6E18               	movwf	lcd_4bit_send_string_pos@column^0,c
  1286   001996  0E56               	movlw	low STR_6
  1287   001998  6E19               	movwf	lcd_4bit_send_string_pos@str^0,c
  1288   00199A  5019               	movf	lcd_4bit_send_string_pos@str^0,w,c
  1289   00199C  A4D8               	btfss	status,2,c
  1290   00199E  0E10               	movlw	high __smallconst
  1291   0019A0  6E1A               	movwf	(lcd_4bit_send_string_pos@str+1)^0,c
  1292   0019A2  ECC7  F013         	call	_lcd_4bit_send_string_pos	;wreg free
  1293   0019A6  0E7B               	movlw	low _dc_motor_1
  1294   0019A8  6E0A               	movwf	dc_motor_stop@_dc_motor^0,c
  1295   0019AA  EC8C  F016         	call	_dc_motor_stop	;wreg free
  1296   0019AE  0EE2               	movlw	low _lcd_1
  1297   0019B0  6E16               	movwf	lcd_4bit_send_string_pos@lcd^0,c
  1298   0019B2  0E03               	movlw	3
  1299   0019B4  6E17               	movwf	lcd_4bit_send_string_pos@row^0,c
  1300   0019B6  0E02               	movlw	2
  1301   0019B8  6E18               	movwf	lcd_4bit_send_string_pos@column^0,c
  1302   0019BA  0E25               	movlw	low STR_7
  1303   0019BC  6E19               	movwf	lcd_4bit_send_string_pos@str^0,c
  1304   0019BE  5019               	movf	lcd_4bit_send_string_pos@str^0,w,c
  1305   0019C0  A4D8               	btfss	status,2,c
  1306   0019C2  0E10               	movlw	high __smallconst
  1307   0019C4  6E1A               	movwf	(lcd_4bit_send_string_pos@str+1)^0,c
  1308   0019C6  ECC7  F013         	call	_lcd_4bit_send_string_pos	;wreg free
  1309   0019CA                     l8921:
  1310                           
  1311                           ;app1.c: 40:         if(lm35_res_1_Celsius_mv > 25){
  1312   0019CA  503A               	movf	(_lm35_res_1_Celsius_mv+1)^0,w,c
  1313   0019CC  E109               	bnz	u8410
  1314   0019CE  0E1A               	movlw	26
  1315   0019D0  5C39               	subwf	_lm35_res_1_Celsius_mv^0,w,c
  1316   0019D2  A0D8               	btfss	status,0,c
  1317   0019D4  EFEE  F00C         	goto	u8411
  1318   0019D8  EFF0  F00C         	goto	u8410
  1319   0019DC                     u8411:
  1320   0019DC  EF25  F00D         	goto	l8931
  1321   0019E0                     u8410:
  1322   0019E0                     
  1323                           ;app1.c: 41:             ret = lcd_4bit_send_string_pos(&lcd_1,2,2,"Getting hotter ");
  1324   0019E0  0EE2               	movlw	low _lcd_1
  1325   0019E2  6E16               	movwf	lcd_4bit_send_string_pos@lcd^0,c
  1326   0019E4  0E02               	movlw	2
  1327   0019E6  6E17               	movwf	lcd_4bit_send_string_pos@row^0,c
  1328   0019E8  0E02               	movlw	2
  1329   0019EA  6E18               	movwf	lcd_4bit_send_string_pos@column^0,c
  1330   0019EC  0E36               	movlw	low STR_8
  1331   0019EE  6E19               	movwf	lcd_4bit_send_string_pos@str^0,c
  1332   0019F0  5019               	movf	lcd_4bit_send_string_pos@str^0,w,c
  1333   0019F2  A4D8               	btfss	status,2,c
  1334   0019F4  0E10               	movlw	high __smallconst
  1335   0019F6  6E1A               	movwf	(lcd_4bit_send_string_pos@str+1)^0,c
  1336   0019F8  ECC7  F013         	call	_lcd_4bit_send_string_pos	;wreg free
  1337   0019FC  0100               	movlb	0	; () banked
  1338   0019FE  6FE8               	movwf	main@ret& (0+255),b
  1339                           
  1340                           ;app1.c: 42:             ret = lcd_4bit_send_string_pos(&lcd_1,3,2,"Cooler boost on");
  1341   001A00  0EE2               	movlw	low _lcd_1
  1342   001A02  6E16               	movwf	lcd_4bit_send_string_pos@lcd^0,c
  1343   001A04  0E03               	movlw	3
  1344   001A06  6E17               	movwf	lcd_4bit_send_string_pos@row^0,c
  1345   001A08  0E02               	movlw	2
  1346   001A0A  6E18               	movwf	lcd_4bit_send_string_pos@column^0,c
  1347   001A0C  0E46               	movlw	low STR_9
  1348   001A0E  6E19               	movwf	lcd_4bit_send_string_pos@str^0,c
  1349   001A10  5019               	movf	lcd_4bit_send_string_pos@str^0,w,c
  1350   001A12  A4D8               	btfss	status,2,c
  1351   001A14  0E10               	movlw	high __smallconst
  1352   001A16  6E1A               	movwf	(lcd_4bit_send_string_pos@str+1)^0,c
  1353   001A18  ECC7  F013         	call	_lcd_4bit_send_string_pos	;wreg free
  1354   001A1C  0100               	movlb	0	; () banked
  1355   001A1E  6FE8               	movwf	main@ret& (0+255),b
  1356   001A20                     
  1357                           ; BSR set to: 0
  1358                           ;app1.c: 43:             _delay((unsigned long)((500)*(8000000/4000.0)));
  1359   001A20  0E06               	movlw	6
  1360   001A22  6E38               	movwf	(??_main+1)^0,c
  1361   001A24  0E13               	movlw	19
  1362   001A26  6E37               	movwf	??_main^0,c
  1363   001A28  0EAE               	movlw	174
  1364   001A2A                     u8427:
  1365   001A2A  2EE8               	decfsz	wreg,f,c
  1366   001A2C  D7FE               	bra	u8427
  1367   001A2E  2E37               	decfsz	??_main^0,f,c
  1368   001A30  D7FC               	bra	u8427
  1369   001A32  2E38               	decfsz	(??_main+1)^0,f,c
  1370   001A34  D7FA               	bra	u8427
  1371   001A36  0E79               	movlw	low _dc_motor_2
  1372   001A38  6E0A               	movwf	dc_motor_move_right@_dc_motor^0,c
  1373   001A3A  ECA8  F016         	call	_dc_motor_move_right	;wreg free
  1374   001A3E  0E7D               	movlw	low _led1
  1375   001A40  6E0A               	movwf	led_turn_on@led^0,c
  1376   001A42  EC12  F014         	call	_led_turn_on	;wreg free
  1377                           
  1378                           ;app1.c: 46:         }
  1379   001A46  EF3B  F00C         	goto	l8895
  1380   001A4A                     l8931:
  1381                           
  1382                           ;app1.c: 48:             ret = dc_motor_stop(&dc_motor_2);
  1383   001A4A  0E79               	movlw	low _dc_motor_2
  1384   001A4C  6E0A               	movwf	dc_motor_stop@_dc_motor^0,c
  1385   001A4E  EC8C  F016         	call	_dc_motor_stop	;wreg free
  1386   001A52  0100               	movlb	0	; () banked
  1387   001A54  6FE8               	movwf	main@ret& (0+255),b
  1388                           
  1389                           ;app1.c: 49:             ret = led_turn_off(&led1);
  1390   001A56  0E7D               	movlw	low _led1
  1391   001A58  6E0A               	movwf	led_turn_off@led^0,c
  1392   001A5A  EC4C  F014         	call	_led_turn_off	;wreg free
  1393   001A5E  0100               	movlb	0	; () banked
  1394   001A60  6FE8               	movwf	main@ret& (0+255),b
  1395   001A62  EF3B  F00C         	goto	l8895
  1396   001A66  EF07  F000         	goto	start
  1397   001A6A                     __end_of_main:
  1398                           	callstack 0
  1399                           
  1400 ;; *************** function _led_turn_on *****************
  1401 ;; Defined at:
  1402 ;;		line 36 in file "ECU_Layer/LED/ecu_led.c"
  1403 ;; Parameters:    Size  Location     Type
  1404 ;;  led             1    9[COMRAM] PTR const struct .
  1405 ;;		 -> led1(1), 
  1406 ;; Auto vars:     Size  Location     Type
  1407 ;;  pin_obj         1   12[COMRAM] struct .
  1408 ;;  ret             1   11[COMRAM] unsigned char 
  1409 ;; Return value:  Size  Location     Type
  1410 ;;                  1    wreg      unsigned char 
  1411 ;; Registers used:
  1412 ;;		wreg, fsr2l, fsr2h, status,2, status,0, prodl, prodh, cstack
  1413 ;; Tracked objects:
  1414 ;;		On entry : 0/0
  1415 ;;		On exit  : 0/0
  1416 ;;		Unchanged: 0/0
  1417 ;; Data sizes:     COMRAM   BANK0   BANK1   BANK2   BANK3   BANK4   BANK5   BANK6   BANK7   BANK8   BANK9  BANK10  BANK1
      +1  BANK12  BANK13  BANK14  BANK15
  1418 ;;      Params:         1       0       0       0       0       0       0       0       0       0       0       0       
      +0       0       0       0       0
  1419 ;;      Locals:         2       0       0       0       0       0       0       0       0       0       0       0       
      +0       0       0       0       0
  1420 ;;      Temps:          1       0       0       0       0       0       0       0       0       0       0       0       
      +0       0       0       0       0
  1421 ;;      Totals:         4       0       0       0       0       0       0       0       0       0       0       0       
      +0       0       0       0       0
  1422 ;;Total ram usage:        4 bytes
  1423 ;; Hardware stack levels used: 1
  1424 ;; Hardware stack levels required when called: 3
  1425 ;; This function calls:
  1426 ;;		_gpio_pin_write_logic
  1427 ;; This function is called by:
  1428 ;;		_main
  1429 ;; This function uses a non-reentrant model
  1430 ;;
  1431                           
  1432                           	psect	text1
  1433   002824                     __ptext1:
  1434                           	callstack 0
  1435   002824                     _led_turn_on:
  1436                           	callstack 27
  1437   002824                     
  1438                           ;ECU_Layer/LED/ecu_led.c: 37: std_ReturnType ret = (std_ReturnType) 0x01;
  1439   002824  0E01               	movlw	1
  1440   002826  6E0C               	movwf	led_turn_on@ret^0,c
  1441                           
  1442                           ;ECU_Layer/LED/ecu_led.c: 38:  if (((void*)0) == led ){
  1443   002828  500A               	movf	led_turn_on@led^0,w,c
  1444   00282A  A4D8               	btfss	status,2,c
  1445   00282C  EF1A  F014         	goto	u7341
  1446   002830  EF1C  F014         	goto	u7340
  1447   002834                     u7341:
  1448   002834  EF20  F014         	goto	l276
  1449   002838                     u7340:
  1450   002838                     
  1451                           ;ECU_Layer/LED/ecu_led.c: 39:         ret = (std_ReturnType) 0x00 ;
  1452   002838  0E00               	movlw	0
  1453   00283A  6E0C               	movwf	led_turn_on@ret^0,c
  1454                           
  1455                           ;ECU_Layer/LED/ecu_led.c: 40:     }
  1456   00283C  EF4A  F014         	goto	l8007
  1457   002840                     l276:
  1458                           
  1459                           ;ECU_Layer/LED/ecu_led.c: 42:           pin_config_t pin_obj = {.port= led->port_name, .
      +                          pin =led->pin,
  1460   002840  C06A  F00D         	movff	led_turn_on@F3122,led_turn_on@pin_obj
  1461   002844  500A               	movf	led_turn_on@led^0,w,c
  1462   002846  6ED9               	movwf	fsr2l,c
  1463   002848  6ADA               	clrf	fsr2h,c
  1464   00284A  50DF               	movf	223,w,c
  1465   00284C  0B0F               	andlw	15
  1466   00284E  6E0B               	movwf	??_led_turn_on^0,c
  1467   002850  500D               	movf	led_turn_on@pin_obj^0,w,c
  1468   002852  180B               	xorwf	??_led_turn_on^0,w,c
  1469   002854  0BF8               	andlw	-8
  1470   002856  180B               	xorwf	??_led_turn_on^0,w,c
  1471   002858  6E0D               	movwf	led_turn_on@pin_obj^0,c
  1472   00285A  500A               	movf	led_turn_on@led^0,w,c
  1473   00285C  6ED9               	movwf	fsr2l,c
  1474   00285E  6ADA               	clrf	fsr2h,c
  1475   002860  38DF               	swapf	223,w,c
  1476   002862  0B07               	andlw	7
  1477   002864  6E0B               	movwf	??_led_turn_on^0,c
  1478   002866  460B               	rlncf	??_led_turn_on^0,f,c
  1479   002868  460B               	rlncf	??_led_turn_on^0,f,c
  1480   00286A  460B               	rlncf	??_led_turn_on^0,f,c
  1481   00286C  500D               	movf	led_turn_on@pin_obj^0,w,c
  1482   00286E  180B               	xorwf	??_led_turn_on^0,w,c
  1483   002870  0BC7               	andlw	-57
  1484   002872  180B               	xorwf	??_led_turn_on^0,w,c
  1485   002874  6E0D               	movwf	led_turn_on@pin_obj^0,c
  1486   002876  9C0D               	bcf	led_turn_on@pin_obj^0,6,c
  1487   002878  500A               	movf	led_turn_on@led^0,w,c
  1488   00287A  6ED9               	movwf	fsr2l,c
  1489   00287C  6ADA               	clrf	fsr2h,c
  1490   00287E  AEDF               	btfss	indf2,7,c
  1491   002880  D002               	bra	u7355
  1492   002882  8E0D               	bsf	led_turn_on@pin_obj^0,7,c
  1493   002884  D001               	bra	u7357
  1494   002886                     u7355:
  1495   002886  9E0D               	bcf	led_turn_on@pin_obj^0,7,c
  1496   002888                     u7357:
  1497   002888                     
  1498                           ;ECU_Layer/LED/ecu_led.c: 44:           gpio_pin_write_logic(&pin_obj,HIGH);
  1499   002888  0E0D               	movlw	low led_turn_on@pin_obj
  1500   00288A  6E02               	movwf	gpio_pin_write_logic@_pin_config^0,c
  1501   00288C  0E01               	movlw	1
  1502   00288E  6E03               	movwf	gpio_pin_write_logic@logic^0,c
  1503   002890  EC83  F00F         	call	_gpio_pin_write_logic	;wreg free
  1504   002894                     l8007:
  1505                           
  1506                           ;ECU_Layer/LED/ecu_led.c: 47:  return ret ;
  1507   002894  500C               	movf	led_turn_on@ret^0,w,c
  1508   002896  0012               	return		;funcret
  1509   002898                     __end_of_led_turn_on:
  1510                           	callstack 0
  1511                           
  1512 ;; *************** function _led_turn_off *****************
  1513 ;; Defined at:
  1514 ;;		line 57 in file "ECU_Layer/LED/ecu_led.c"
  1515 ;; Parameters:    Size  Location     Type
  1516 ;;  led             1    9[COMRAM] PTR const struct .
  1517 ;;		 -> led1(1), 
  1518 ;; Auto vars:     Size  Location     Type
  1519 ;;  pin_obj         1   12[COMRAM] struct .
  1520 ;;  ret             1   11[COMRAM] unsigned char 
  1521 ;; Return value:  Size  Location     Type
  1522 ;;                  1    wreg      unsigned char 
  1523 ;; Registers used:
  1524 ;;		wreg, fsr2l, fsr2h, status,2, status,0, prodl, prodh, cstack
  1525 ;; Tracked objects:
  1526 ;;		On entry : 0/0
  1527 ;;		On exit  : 0/0
  1528 ;;		Unchanged: 0/0
  1529 ;; Data sizes:     COMRAM   BANK0   BANK1   BANK2   BANK3   BANK4   BANK5   BANK6   BANK7   BANK8   BANK9  BANK10  BANK1
      +1  BANK12  BANK13  BANK14  BANK15
  1530 ;;      Params:         1       0       0       0       0       0       0       0       0       0       0       0       
      +0       0       0       0       0
  1531 ;;      Locals:         2       0       0       0       0       0       0       0       0       0       0       0       
      +0       0       0       0       0
  1532 ;;      Temps:          1       0       0       0       0       0       0       0       0       0       0       0       
      +0       0       0       0       0
  1533 ;;      Totals:         4       0       0       0       0       0       0       0       0       0       0       0       
      +0       0       0       0       0
  1534 ;;Total ram usage:        4 bytes
  1535 ;; Hardware stack levels used: 1
  1536 ;; Hardware stack levels required when called: 3
  1537 ;; This function calls:
  1538 ;;		_gpio_pin_write_logic
  1539 ;; This function is called by:
  1540 ;;		_main
  1541 ;; This function uses a non-reentrant model
  1542 ;;
  1543                           
  1544                           	psect	text2
  1545   002898                     __ptext2:
  1546                           	callstack 0
  1547   002898                     _led_turn_off:
  1548                           	callstack 27
  1549   002898                     
  1550                           ;ECU_Layer/LED/ecu_led.c: 58: std_ReturnType ret = (std_ReturnType) 0x01;
  1551   002898  0E01               	movlw	1
  1552   00289A  6E0C               	movwf	led_turn_off@ret^0,c
  1553                           
  1554                           ;ECU_Layer/LED/ecu_led.c: 59:  if (((void*)0) == led ){
  1555   00289C  500A               	movf	led_turn_off@led^0,w,c
  1556   00289E  A4D8               	btfss	status,2,c
  1557   0028A0  EF54  F014         	goto	u7361
  1558   0028A4  EF56  F014         	goto	u7360
  1559   0028A8                     u7361:
  1560   0028A8  EF5A  F014         	goto	l283
  1561   0028AC                     u7360:
  1562   0028AC                     
  1563                           ;ECU_Layer/LED/ecu_led.c: 60:         ret = (std_ReturnType) 0x00 ;
  1564   0028AC  0E00               	movlw	0
  1565   0028AE  6E0C               	movwf	led_turn_off@ret^0,c
  1566                           
  1567                           ;ECU_Layer/LED/ecu_led.c: 61:     }
  1568   0028B0  EF84  F014         	goto	l8023
  1569   0028B4                     l283:
  1570                           
  1571                           ;ECU_Layer/LED/ecu_led.c: 63:             pin_config_t pin_obj = {.port= led->port_name,
      +                           .pin =led->pin,
  1572   0028B4  C069  F00D         	movff	led_turn_off@F3127,led_turn_off@pin_obj
  1573   0028B8  500A               	movf	led_turn_off@led^0,w,c
  1574   0028BA  6ED9               	movwf	fsr2l,c
  1575   0028BC  6ADA               	clrf	fsr2h,c
  1576   0028BE  50DF               	movf	223,w,c
  1577   0028C0  0B0F               	andlw	15
  1578   0028C2  6E0B               	movwf	??_led_turn_off^0,c
  1579   0028C4  500D               	movf	led_turn_off@pin_obj^0,w,c
  1580   0028C6  180B               	xorwf	??_led_turn_off^0,w,c
  1581   0028C8  0BF8               	andlw	-8
  1582   0028CA  180B               	xorwf	??_led_turn_off^0,w,c
  1583   0028CC  6E0D               	movwf	led_turn_off@pin_obj^0,c
  1584   0028CE  500A               	movf	led_turn_off@led^0,w,c
  1585   0028D0  6ED9               	movwf	fsr2l,c
  1586   0028D2  6ADA               	clrf	fsr2h,c
  1587   0028D4  38DF               	swapf	223,w,c
  1588   0028D6  0B07               	andlw	7
  1589   0028D8  6E0B               	movwf	??_led_turn_off^0,c
  1590   0028DA  460B               	rlncf	??_led_turn_off^0,f,c
  1591   0028DC  460B               	rlncf	??_led_turn_off^0,f,c
  1592   0028DE  460B               	rlncf	??_led_turn_off^0,f,c
  1593   0028E0  500D               	movf	led_turn_off@pin_obj^0,w,c
  1594   0028E2  180B               	xorwf	??_led_turn_off^0,w,c
  1595   0028E4  0BC7               	andlw	-57
  1596   0028E6  180B               	xorwf	??_led_turn_off^0,w,c
  1597   0028E8  6E0D               	movwf	led_turn_off@pin_obj^0,c
  1598   0028EA  9C0D               	bcf	led_turn_off@pin_obj^0,6,c
  1599   0028EC  500A               	movf	led_turn_off@led^0,w,c
  1600   0028EE  6ED9               	movwf	fsr2l,c
  1601   0028F0  6ADA               	clrf	fsr2h,c
  1602   0028F2  AEDF               	btfss	indf2,7,c
  1603   0028F4  D002               	bra	u7375
  1604   0028F6  8E0D               	bsf	led_turn_off@pin_obj^0,7,c
  1605   0028F8  D001               	bra	u7377
  1606   0028FA                     u7375:
  1607   0028FA  9E0D               	bcf	led_turn_off@pin_obj^0,7,c
  1608   0028FC                     u7377:
  1609   0028FC                     
  1610                           ;ECU_Layer/LED/ecu_led.c: 65:           gpio_pin_write_logic(&pin_obj,LOW);
  1611   0028FC  0E0D               	movlw	low led_turn_off@pin_obj
  1612   0028FE  6E02               	movwf	gpio_pin_write_logic@_pin_config^0,c
  1613   002900  0E00               	movlw	0
  1614   002902  6E03               	movwf	gpio_pin_write_logic@logic^0,c
  1615   002904  EC83  F00F         	call	_gpio_pin_write_logic	;wreg free
  1616   002908                     l8023:
  1617                           
  1618                           ;ECU_Layer/LED/ecu_led.c: 68:  return ret ;
  1619   002908  500C               	movf	led_turn_off@ret^0,w,c
  1620   00290A  0012               	return		;funcret
  1621   00290C                     __end_of_led_turn_off:
  1622                           	callstack 0
  1623                           
  1624 ;; *************** function _dc_motor_stop *****************
  1625 ;; Defined at:
  1626 ;;		line 74 in file "ECU_Layer/DC_Motor/ecu_dc_motor.c"
  1627 ;; Parameters:    Size  Location     Type
  1628 ;;  _dc_motor       1    9[COMRAM] PTR const struct .
  1629 ;;		 -> dc_motor_2(2), dc_motor_1(2), 
  1630 ;; Auto vars:     Size  Location     Type
  1631 ;;  ret             1   10[COMRAM] unsigned char 
  1632 ;; Return value:  Size  Location     Type
  1633 ;;                  1    wreg      unsigned char 
  1634 ;; Registers used:
  1635 ;;		wreg, fsr2l, fsr2h, status,2, status,0, prodl, prodh, cstack
  1636 ;; Tracked objects:
  1637 ;;		On entry : 0/0
  1638 ;;		On exit  : 0/0
  1639 ;;		Unchanged: 0/0
  1640 ;; Data sizes:     COMRAM   BANK0   BANK1   BANK2   BANK3   BANK4   BANK5   BANK6   BANK7   BANK8   BANK9  BANK10  BANK1
      +1  BANK12  BANK13  BANK14  BANK15
  1641 ;;      Params:         1       0       0       0       0       0       0       0       0       0       0       0       
      +0       0       0       0       0
  1642 ;;      Locals:         1       0       0       0       0       0       0       0       0       0       0       0       
      +0       0       0       0       0
  1643 ;;      Temps:          0       0       0       0       0       0       0       0       0       0       0       0       
      +0       0       0       0       0
  1644 ;;      Totals:         2       0       0       0       0       0       0       0       0       0       0       0       
      +0       0       0       0       0
  1645 ;;Total ram usage:        2 bytes
  1646 ;; Hardware stack levels used: 1
  1647 ;; Hardware stack levels required when called: 3
  1648 ;; This function calls:
  1649 ;;		_gpio_pin_write_logic
  1650 ;; This function is called by:
  1651 ;;		_main
  1652 ;; This function uses a non-reentrant model
  1653 ;;
  1654                           
  1655                           	psect	text3
  1656   002D18                     __ptext3:
  1657                           	callstack 0
  1658   002D18                     _dc_motor_stop:
  1659                           	callstack 27
  1660   002D18                     
  1661                           ;ECU_Layer/DC_Motor/ecu_dc_motor.c: 75:      std_ReturnType ret = (std_ReturnType) 0x01;
  1662   002D18  0E01               	movlw	1
  1663   002D1A  6E0B               	movwf	dc_motor_stop@ret^0,c
  1664                           
  1665                           ;ECU_Layer/DC_Motor/ecu_dc_motor.c: 76:      if(((void*)0) == _dc_motor){
  1666   002D1C  500A               	movf	dc_motor_stop@_dc_motor^0,w,c
  1667   002D1E  A4D8               	btfss	status,2,c
  1668   002D20  EF94  F016         	goto	u7331
  1669   002D24  EF96  F016         	goto	u7330
  1670   002D28                     u7331:
  1671   002D28  EF9A  F016         	goto	l7989
  1672   002D2C                     u7330:
  1673   002D2C                     
  1674                           ;ECU_Layer/DC_Motor/ecu_dc_motor.c: 77:         ret = (std_ReturnType) 0x00;
  1675   002D2C  0E00               	movlw	0
  1676   002D2E  6E0B               	movwf	dc_motor_stop@ret^0,c
  1677                           
  1678                           ;ECU_Layer/DC_Motor/ecu_dc_motor.c: 78:     }
  1679   002D30  EFA6  F016         	goto	l7991
  1680   002D34                     l7989:
  1681                           
  1682                           ;ECU_Layer/DC_Motor/ecu_dc_motor.c: 80:         gpio_pin_write_logic(&(_dc_motor->dc_mot
      +                          or_pin[0x00U]), LOW);
  1683   002D34  C00A  F002         	movff	dc_motor_stop@_dc_motor,gpio_pin_write_logic@_pin_config
  1684   002D38  0E00               	movlw	0
  1685   002D3A  6E03               	movwf	gpio_pin_write_logic@logic^0,c
  1686   002D3C  EC83  F00F         	call	_gpio_pin_write_logic	;wreg free
  1687                           
  1688                           ;ECU_Layer/DC_Motor/ecu_dc_motor.c: 81:         gpio_pin_write_logic(&(_dc_motor->dc_mot
      +                          or_pin[0x01U]), LOW);
  1689   002D40  280A               	incf	dc_motor_stop@_dc_motor^0,w,c
  1690   002D42  6E02               	movwf	gpio_pin_write_logic@_pin_config^0,c
  1691   002D44  0E00               	movlw	0
  1692   002D46  6E03               	movwf	gpio_pin_write_logic@logic^0,c
  1693   002D48  EC83  F00F         	call	_gpio_pin_write_logic	;wreg free
  1694   002D4C                     l7991:
  1695                           
  1696                           ;ECU_Layer/DC_Motor/ecu_dc_motor.c: 83:      return ret;
  1697   002D4C  500B               	movf	dc_motor_stop@ret^0,w,c
  1698   002D4E  0012               	return		;funcret
  1699   002D50                     __end_of_dc_motor_stop:
  1700                           	callstack 0
  1701                           
  1702 ;; *************** function _dc_motor_move_right *****************
  1703 ;; Defined at:
  1704 ;;		line 36 in file "ECU_Layer/DC_Motor/ecu_dc_motor.c"
  1705 ;; Parameters:    Size  Location     Type
  1706 ;;  _dc_motor       1    9[COMRAM] PTR const struct .
  1707 ;;		 -> dc_motor_2(2), dc_motor_1(2), 
  1708 ;; Auto vars:     Size  Location     Type
  1709 ;;  ret             1   10[COMRAM] unsigned char 
  1710 ;; Return value:  Size  Location     Type
  1711 ;;                  1    wreg      unsigned char 
  1712 ;; Registers used:
  1713 ;;		wreg, fsr2l, fsr2h, status,2, status,0, prodl, prodh, cstack
  1714 ;; Tracked objects:
  1715 ;;		On entry : 0/0
  1716 ;;		On exit  : 0/0
  1717 ;;		Unchanged: 0/0
  1718 ;; Data sizes:     COMRAM   BANK0   BANK1   BANK2   BANK3   BANK4   BANK5   BANK6   BANK7   BANK8   BANK9  BANK10  BANK1
      +1  BANK12  BANK13  BANK14  BANK15
  1719 ;;      Params:         1       0       0       0       0       0       0       0       0       0       0       0       
      +0       0       0       0       0
  1720 ;;      Locals:         1       0       0       0       0       0       0       0       0       0       0       0       
      +0       0       0       0       0
  1721 ;;      Temps:          0       0       0       0       0       0       0       0       0       0       0       0       
      +0       0       0       0       0
  1722 ;;      Totals:         2       0       0       0       0       0       0       0       0       0       0       0       
      +0       0       0       0       0
  1723 ;;Total ram usage:        2 bytes
  1724 ;; Hardware stack levels used: 1
  1725 ;; Hardware stack levels required when called: 3
  1726 ;; This function calls:
  1727 ;;		_gpio_pin_write_logic
  1728 ;; This function is called by:
  1729 ;;		_main
  1730 ;; This function uses a non-reentrant model
  1731 ;;
  1732                           
  1733                           	psect	text4
  1734   002D50                     __ptext4:
  1735                           	callstack 0
  1736   002D50                     _dc_motor_move_right:
  1737                           	callstack 27
  1738   002D50                     
  1739                           ;ECU_Layer/DC_Motor/ecu_dc_motor.c: 37:      std_ReturnType ret = (std_ReturnType) 0x01;
  1740   002D50  0E01               	movlw	1
  1741   002D52  6E0B               	movwf	dc_motor_move_right@ret^0,c
  1742                           
  1743                           ;ECU_Layer/DC_Motor/ecu_dc_motor.c: 38:      if(((void*)0) == _dc_motor){
  1744   002D54  500A               	movf	dc_motor_move_right@_dc_motor^0,w,c
  1745   002D56  A4D8               	btfss	status,2,c
  1746   002D58  EFB0  F016         	goto	u7321
  1747   002D5C  EFB2  F016         	goto	u7320
  1748   002D60                     u7321:
  1749   002D60  EFB6  F016         	goto	l7979
  1750   002D64                     u7320:
  1751   002D64                     
  1752                           ;ECU_Layer/DC_Motor/ecu_dc_motor.c: 39:         ret = (std_ReturnType) 0x00;
  1753   002D64  0E00               	movlw	0
  1754   002D66  6E0B               	movwf	dc_motor_move_right@ret^0,c
  1755                           
  1756                           ;ECU_Layer/DC_Motor/ecu_dc_motor.c: 40:     }
  1757   002D68  EFC2  F016         	goto	l7981
  1758   002D6C                     l7979:
  1759                           
  1760                           ;ECU_Layer/DC_Motor/ecu_dc_motor.c: 42:         gpio_pin_write_logic(&(_dc_motor->dc_mot
      +                          or_pin[0x00U]), HIGH);
  1761   002D6C  C00A  F002         	movff	dc_motor_move_right@_dc_motor,gpio_pin_write_logic@_pin_config
  1762   002D70  0E01               	movlw	1
  1763   002D72  6E03               	movwf	gpio_pin_write_logic@logic^0,c
  1764   002D74  EC83  F00F         	call	_gpio_pin_write_logic	;wreg free
  1765                           
  1766                           ;ECU_Layer/DC_Motor/ecu_dc_motor.c: 43:         gpio_pin_write_logic(&(_dc_motor->dc_mot
      +                          or_pin[0x01U]), LOW);
  1767   002D78  280A               	incf	dc_motor_move_right@_dc_motor^0,w,c
  1768   002D7A  6E02               	movwf	gpio_pin_write_logic@_pin_config^0,c
  1769   002D7C  0E00               	movlw	0
  1770   002D7E  6E03               	movwf	gpio_pin_write_logic@logic^0,c
  1771   002D80  EC83  F00F         	call	_gpio_pin_write_logic	;wreg free
  1772   002D84                     l7981:
  1773                           
  1774                           ;ECU_Layer/DC_Motor/ecu_dc_motor.c: 45:      return ret;
  1775   002D84  500B               	movf	dc_motor_move_right@ret^0,w,c
  1776   002D86  0012               	return		;funcret
  1777   002D88                     __end_of_dc_motor_move_right:
  1778                           	callstack 0
  1779                           
  1780 ;; *************** function _convert_uint16_to_string *****************
  1781 ;; Defined at:
  1782 ;;		line 404 in file "ECU_Layer/Chr_LCD/ecu_chr_lcd.c"
  1783 ;; Parameters:    Size  Location     Type
  1784 ;;  value           2   43[COMRAM] unsigned short 
  1785 ;;  str             1   45[COMRAM] PTR unsigned char 
  1786 ;;		 -> lm35_res_1_txt(7), 
  1787 ;; Auto vars:     Size  Location     Type
  1788 ;;  Temp_String     6   46[COMRAM] unsigned char [6]
  1789 ;;  DataCounter     1   53[COMRAM] unsigned char 
  1790 ;;  ret             1   52[COMRAM] unsigned char 
  1791 ;; Return value:  Size  Location     Type
  1792 ;;                  1    wreg      unsigned char 
  1793 ;; Registers used:
  1794 ;;		wreg, fsr1l, fsr1h, fsr2l, fsr2h, status,2, status,0, tblptrl, tblptrh, tblptru, cstack
  1795 ;; Tracked objects:
  1796 ;;		On entry : 0/0
  1797 ;;		On exit  : 0/0
  1798 ;;		Unchanged: 0/0
  1799 ;; Data sizes:     COMRAM   BANK0   BANK1   BANK2   BANK3   BANK4   BANK5   BANK6   BANK7   BANK8   BANK9  BANK10  BANK1
      +1  BANK12  BANK13  BANK14  BANK15
  1800 ;;      Params:         3       0       0       0       0       0       0       0       0       0       0       0       
      +0       0       0       0       0
  1801 ;;      Locals:         8       0       0       0       0       0       0       0       0       0       0       0       
      +0       0       0       0       0
  1802 ;;      Temps:          0       0       0       0       0       0       0       0       0       0       0       0       
      +0       0       0       0       0
  1803 ;;      Totals:        11       0       0       0       0       0       0       0       0       0       0       0       
      +0       0       0       0       0
  1804 ;;Total ram usage:       11 bytes
  1805 ;; Hardware stack levels used: 1
  1806 ;; Hardware stack levels required when called: 7
  1807 ;; This function calls:
  1808 ;;		_memset
  1809 ;;		_sprintf
  1810 ;; This function is called by:
  1811 ;;		_main
  1812 ;; This function uses a non-reentrant model
  1813 ;;
  1814                           
  1815                           	psect	text5
  1816   00265C                     __ptext5:
  1817                           	callstack 0
  1818   00265C                     _convert_uint16_to_string:
  1819                           	callstack 23
  1820   00265C                     
  1821                           ;ECU_Layer/Chr_LCD/ecu_chr_lcd.c: 405:     Std_ReturnType ret = (std_ReturnType) 0x01;
  1822   00265C  0E01               	movlw	1
  1823   00265E  6E35               	movwf	convert_uint16_to_string@ret^0,c
  1824   002660                     
  1825                           ;ECU_Layer/Chr_LCD/ecu_chr_lcd.c: 406:     uint8 Temp_String[6] = {0};
  1826   002660  EE20  F02F         	lfsr	2,convert_uint16_to_string@Temp_String
  1827   002664  0E05               	movlw	5
  1828   002666                     u7291:
  1829   002666  6ADE               	clrf	postinc2,c
  1830   002668  06E8               	decf	wreg,f,c
  1831   00266A  E2FD               	bc	u7291
  1832   00266C                     
  1833                           ;ECU_Layer/Chr_LCD/ecu_chr_lcd.c: 407:     uint8 DataCounter = 0;
  1834   00266C  0E00               	movlw	0
  1835   00266E  6E36               	movwf	convert_uint16_to_string@DataCounter^0,c
  1836   002670                     
  1837                           ;ECU_Layer/Chr_LCD/ecu_chr_lcd.c: 408:     if(((void*)0) == str){
  1838   002670  502E               	movf	convert_uint16_to_string@str^0,w,c
  1839   002672  A4D8               	btfss	status,2,c
  1840   002674  EF3E  F013         	goto	u7301
  1841   002678  EF40  F013         	goto	u7300
  1842   00267C                     u7301:
  1843   00267C  EF44  F013         	goto	l7959
  1844   002680                     u7300:
  1845   002680                     
  1846                           ;ECU_Layer/Chr_LCD/ecu_chr_lcd.c: 409:         ret = (std_ReturnType) 0x00;
  1847   002680  0E00               	movlw	0
  1848   002682  6E35               	movwf	convert_uint16_to_string@ret^0,c
  1849                           
  1850                           ;ECU_Layer/Chr_LCD/ecu_chr_lcd.c: 410:     }
  1851   002684  EF79  F013         	goto	l7971
  1852   002688                     l7959:
  1853                           
  1854                           ;ECU_Layer/Chr_LCD/ecu_chr_lcd.c: 412:         memset(str, ' ', 5);
  1855   002688  C02E  F002         	movff	convert_uint16_to_string@str,memset@dest
  1856   00268C  0E00               	movlw	0
  1857   00268E  6E04               	movwf	(memset@c+1)^0,c
  1858   002690  0E20               	movlw	32
  1859   002692  6E03               	movwf	memset@c^0,c
  1860   002694  0E00               	movlw	0
  1861   002696  6E06               	movwf	(memset@n+1)^0,c
  1862   002698  0E05               	movlw	5
  1863   00269A  6E05               	movwf	memset@n^0,c
  1864   00269C  EC14  F017         	call	_memset	;wreg free
  1865   0026A0                     
  1866                           ;ECU_Layer/Chr_LCD/ecu_chr_lcd.c: 413:         str[5] = '\0';
  1867   0026A0  502E               	movf	convert_uint16_to_string@str^0,w,c
  1868   0026A2  6ED9               	movwf	fsr2l,c
  1869   0026A4  6ADA               	clrf	fsr2h,c
  1870   0026A6  0E05               	movlw	5
  1871   0026A8  26D9               	addwf	fsr2l,f,c
  1872   0026AA  6ADF               	clrf	indf2,c
  1873   0026AC                     
  1874                           ;ECU_Layer/Chr_LCD/ecu_chr_lcd.c: 414:         sprintf((char *)Temp_String, "%i", value)
      +                          ;
  1875   0026AC  0E2F               	movlw	low convert_uint16_to_string@Temp_String
  1876   0026AE  6E1B               	movwf	sprintf@s^0,c
  1877   0026B0  0E79               	movlw	low STR_1
  1878   0026B2  6E1C               	movwf	sprintf@fmt^0,c
  1879   0026B4  C02C  F01D         	movff	convert_uint16_to_string@value,?_sprintf+2
  1880   0026B8  C02D  F01E         	movff	convert_uint16_to_string@value+1,?_sprintf+3
  1881   0026BC  ECE0  F016         	call	_sprintf	;wreg free
  1882                           
  1883                           ;ECU_Layer/Chr_LCD/ecu_chr_lcd.c: 415:         while(Temp_String[DataCounter] != '\0'){
  1884   0026C0  EF6D  F013         	goto	l7969
  1885   0026C4                     l7965:
  1886                           
  1887                           ;ECU_Layer/Chr_LCD/ecu_chr_lcd.c: 416:             str[DataCounter] = Temp_String[DataCo
      +                          unter];
  1888   0026C4  5036               	movf	convert_uint16_to_string@DataCounter^0,w,c
  1889   0026C6  0F2F               	addlw	low convert_uint16_to_string@Temp_String
  1890   0026C8  6ED9               	movwf	fsr2l,c
  1891   0026CA  6ADA               	clrf	fsr2h,c
  1892   0026CC  502E               	movf	convert_uint16_to_string@str^0,w,c
  1893   0026CE  2436               	addwf	convert_uint16_to_string@DataCounter^0,w,c
  1894   0026D0  6EE1               	movwf	fsr1l,c
  1895   0026D2  6AE2               	clrf	fsr1h,c
  1896   0026D4  CFDF FFE7          	movff	indf2,indf1
  1897   0026D8                     
  1898                           ;ECU_Layer/Chr_LCD/ecu_chr_lcd.c: 417:             DataCounter++;
  1899   0026D8  2A36               	incf	convert_uint16_to_string@DataCounter^0,f,c
  1900   0026DA                     l7969:
  1901                           
  1902                           ;ECU_Layer/Chr_LCD/ecu_chr_lcd.c: 415:         while(Temp_String[DataCounter] != '\0'){
  1903   0026DA  5036               	movf	convert_uint16_to_string@DataCounter^0,w,c
  1904   0026DC  0F2F               	addlw	low convert_uint16_to_string@Temp_String
  1905   0026DE  6ED9               	movwf	fsr2l,c
  1906   0026E0  6ADA               	clrf	fsr2h,c
  1907   0026E2  50DF               	movf	indf2,w,c
  1908   0026E4  A4D8               	btfss	status,2,c
  1909   0026E6  EF77  F013         	goto	u7311
  1910   0026EA  EF79  F013         	goto	u7310
  1911   0026EE                     u7311:
  1912   0026EE  EF62  F013         	goto	l7965
  1913   0026F2                     u7310:
  1914   0026F2                     l7971:
  1915                           
  1916                           ;ECU_Layer/Chr_LCD/ecu_chr_lcd.c: 420:     return ret;
  1917   0026F2  5035               	movf	convert_uint16_to_string@ret^0,w,c
  1918   0026F4  0012               	return		;funcret
  1919   0026F6                     __end_of_convert_uint16_to_string:
  1920                           	callstack 0
  1921                           
  1922 ;; *************** function _sprintf *****************
  1923 ;; Defined at:
  1924 ;;		line 9 in file "C:\Program Files\Microchip\xc8\v2.45\pic\sources\c99\common\nf_sprintf.c"
  1925 ;; Parameters:    Size  Location     Type
  1926 ;;  s               1   26[COMRAM] PTR unsigned char 
  1927 ;;		 -> convert_uint16_to_string@Temp_String(6), 
  1928 ;;  fmt             1   27[COMRAM] PTR const unsigned char 
  1929 ;;		 -> STR_3(3), STR_2(3), STR_1(3), 
  1930 ;; Auto vars:     Size  Location     Type
  1931 ;;  f              12   31[COMRAM] struct _IO_FILE
  1932 ;;  ret             2    0        int 
  1933 ;;  ap              1   30[COMRAM] PTR void [1]
  1934 ;;		 -> ?_sprintf(2), 
  1935 ;; Return value:  Size  Location     Type
  1936 ;;                  2   26[COMRAM] int 
  1937 ;; Registers used:
  1938 ;;		wreg, fsr1l, fsr1h, fsr2l, fsr2h, status,2, status,0, tblptrl, tblptrh, tblptru, cstack
  1939 ;; Tracked objects:
  1940 ;;		On entry : 0/0
  1941 ;;		On exit  : 0/0
  1942 ;;		Unchanged: 0/0
  1943 ;; Data sizes:     COMRAM   BANK0   BANK1   BANK2   BANK3   BANK4   BANK5   BANK6   BANK7   BANK8   BANK9  BANK10  BANK1
      +1  BANK12  BANK13  BANK14  BANK15
  1944 ;;      Params:         4       0       0       0       0       0       0       0       0       0       0       0       
      +0       0       0       0       0
  1945 ;;      Locals:        13       0       0       0       0       0       0       0       0       0       0       0       
      +0       0       0       0       0
  1946 ;;      Temps:          0       0       0       0       0       0       0       0       0       0       0       0       
      +0       0       0       0       0
  1947 ;;      Totals:        17       0       0       0       0       0       0       0       0       0       0       0       
      +0       0       0       0       0
  1948 ;;Total ram usage:       17 bytes
  1949 ;; Hardware stack levels used: 1
  1950 ;; Hardware stack levels required when called: 6
  1951 ;; This function calls:
  1952 ;;		_vfprintf
  1953 ;; This function is called by:
  1954 ;;		_convert_uint16_to_string
  1955 ;;		_convert_uint8_to_string
  1956 ;;		_convert_uint32_to_string
  1957 ;; This function uses a non-reentrant model
  1958 ;;
  1959                           
  1960                           	psect	text6
  1961   002DC0                     __ptext6:
  1962                           	callstack 0
  1963   002DC0                     _sprintf:
  1964                           	callstack 23
  1965   002DC0  0E1D               	movlw	low (?_sprintf+2)
  1966   002DC2  6E1F               	movwf	sprintf@ap^0,c
  1967   002DC4  C01B  F020         	movff	sprintf@s,sprintf@f
  1968   002DC8  0E00               	movlw	0
  1969   002DCA  6E24               	movwf	(sprintf@f+4)^0,c
  1970   002DCC  0E00               	movlw	0
  1971   002DCE  6E23               	movwf	(sprintf@f+3)^0,c
  1972   002DD0  0E00               	movlw	0
  1973   002DD2  6E2B               	movwf	(sprintf@f+11)^0,c
  1974   002DD4  0E00               	movlw	0
  1975   002DD6  6E2A               	movwf	(sprintf@f+10)^0,c
  1976   002DD8  0E20               	movlw	low sprintf@f
  1977   002DDA  6E17               	movwf	vfprintf@fp^0,c
  1978   002DDC  C01C  F018         	movff	sprintf@fmt,vfprintf@fmt
  1979   002DE0  0E1F               	movlw	low sprintf@ap
  1980   002DE2  6E19               	movwf	vfprintf@ap^0,c
  1981   002DE4  EC4C  F016         	call	_vfprintf	;wreg free
  1982   002DE8  501B               	movf	sprintf@s^0,w,c
  1983   002DEA  2423               	addwf	(sprintf@f+3)^0,w,c
  1984   002DEC  6ED9               	movwf	fsr2l,c
  1985   002DEE  6ADA               	clrf	fsr2h,c
  1986   002DF0  6ADF               	clrf	indf2,c
  1987   002DF2  0012               	return		;funcret
  1988   002DF4                     __end_of_sprintf:
  1989                           	callstack 0
  1990                           
  1991 ;; *************** function _vfprintf *****************
  1992 ;; Defined at:
  1993 ;;		line 1817 in file "C:\Program Files\Microchip\xc8\v2.45\pic\sources\c99\common\doprnt.c"
  1994 ;; Parameters:    Size  Location     Type
  1995 ;;  fp              1   22[COMRAM] PTR struct _IO_FILE
  1996 ;;		 -> sprintf@f(12), 
  1997 ;;  fmt             1   23[COMRAM] PTR const unsigned char 
  1998 ;;		 -> STR_3(3), STR_2(3), STR_1(3), 
  1999 ;;  ap              1   24[COMRAM] PTR PTR void 
  2000 ;;		 -> sprintf@ap(1), 
  2001 ;; Auto vars:     Size  Location     Type
  2002 ;;  cfmt            1   25[COMRAM] PTR unsigned char 
  2003 ;;		 -> STR_3(3), STR_2(3), STR_1(3), 
  2004 ;; Return value:  Size  Location     Type
  2005 ;;                  2   22[COMRAM] int 
  2006 ;; Registers used:
  2007 ;;		wreg, fsr1l, fsr1h, fsr2l, fsr2h, status,2, status,0, tblptrl, tblptrh, tblptru, cstack
  2008 ;; Tracked objects:
  2009 ;;		On entry : 0/0
  2010 ;;		On exit  : 0/0
  2011 ;;		Unchanged: 0/0
  2012 ;; Data sizes:     COMRAM   BANK0   BANK1   BANK2   BANK3   BANK4   BANK5   BANK6   BANK7   BANK8   BANK9  BANK10  BANK1
      +1  BANK12  BANK13  BANK14  BANK15
  2013 ;;      Params:         3       0       0       0       0       0       0       0       0       0       0       0       
      +0       0       0       0       0
  2014 ;;      Locals:         1       0       0       0       0       0       0       0       0       0       0       0       
      +0       0       0       0       0
  2015 ;;      Temps:          0       0       0       0       0       0       0       0       0       0       0       0       
      +0       0       0       0       0
  2016 ;;      Totals:         4       0       0       0       0       0       0       0       0       0       0       0       
      +0       0       0       0       0
  2017 ;;Total ram usage:        4 bytes
  2018 ;; Hardware stack levels used: 1
  2019 ;; Hardware stack levels required when called: 5
  2020 ;; This function calls:
  2021 ;;		_vfpfcnvrt
  2022 ;; This function is called by:
  2023 ;;		_sprintf
  2024 ;; This function uses a non-reentrant model
  2025 ;;
  2026                           
  2027                           	psect	text7
  2028   002C98                     __ptext7:
  2029                           	callstack 0
  2030   002C98                     _vfprintf:
  2031                           	callstack 23
  2032   002C98                     
  2033                           ;C:\Program Files\Microchip\xc8\v2.45\pic\sources\c99\common\doprnt.c: 1817: int vfprint
      +                          f(FILE *fp, const char *fmt, va_list ap);C:\Program Files\Microchip\xc8\v2.45\pic\source
      +                          s\c99\common\doprnt.c: 1818: {;C:\Program Files\Microchip\xc8\v2.45\pic\sources\c99\comm
      +                          on\doprnt.c: 1820:     char *cfmt;;C:\Program Files\Microchip\xc8\v2.45\pic\sources\c99\
      +                          common\doprnt.c: 1822:     cfmt = (char *)fmt;
  2034   002C98  C018  F01A         	movff	vfprintf@fmt,vfprintf@cfmt
  2035                           
  2036                           ;C:\Program Files\Microchip\xc8\v2.45\pic\sources\c99\common\doprnt.c: 1826:     while (
      +                          *cfmt) {
  2037   002C9C  EF58  F016         	goto	l7747
  2038   002CA0                     l7745:
  2039                           
  2040                           ;C:\Program Files\Microchip\xc8\v2.45\pic\sources\c99\common\doprnt.c: 1830:    vfpfcnvr
      +                          t(fp, &cfmt, ap);
  2041   002CA0  C017  F00C         	movff	vfprintf@fp,vfpfcnvrt@fp
  2042   002CA4  0E1A               	movlw	low vfprintf@cfmt
  2043   002CA6  6E0D               	movwf	vfpfcnvrt@fmt^0,c
  2044   002CA8  C019  F00E         	movff	vfprintf@ap,vfpfcnvrt@ap
  2045   002CAC  EC35  F00D         	call	_vfpfcnvrt	;wreg free
  2046   002CB0                     l7747:
  2047                           
  2048                           ;C:\Program Files\Microchip\xc8\v2.45\pic\sources\c99\common\doprnt.c: 1826:     while (
      +                          *cfmt) {
  2049   002CB0  C01A  FFF6         	movff	vfprintf@cfmt,tblptrl
  2050   002CB4                     	if	1	;There is more than 1 active tblptr byte
  2051   002CB4  0E10               	movlw	high __smallconst
  2052   002CB6  6EF7               	movwf	tblptrh,c
  2053   002CB8                     	endif
  2054   002CB8                     	if	1	;Program memory is < 0x10000, tblptru is always zero
  2055   002CB8  6AF8               	clrf	tblptru,c
  2056   002CBA                     	endif
  2057   002CBA                     	if	0	;tblptru may be non-zero
  2058   002CBA                     	endif
  2059   002CBA  0008               	tblrd		*
  2060   002CBC  50F5               	movf	tablat,w,c
  2061   002CBE  0900               	iorlw	0
  2062   002CC0  A4D8               	btfss	status,2,c
  2063   002CC2  EF65  F016         	goto	u7061
  2064   002CC6  EF67  F016         	goto	u7060
  2065   002CCA                     u7061:
  2066   002CCA  EF50  F016         	goto	l7745
  2067   002CCE                     u7060:
  2068   002CCE                     
  2069                           ;C:\Program Files\Microchip\xc8\v2.45\pic\sources\c99\common\doprnt.c: 1835:  return 0;
  2070   002CCE  0E00               	movlw	0
  2071   002CD0  6E18               	movwf	(?_vfprintf+1)^0,c
  2072   002CD2  0E00               	movlw	0
  2073   002CD4  6E17               	movwf	?_vfprintf^0,c
  2074   002CD6  0012               	return		;funcret
  2075   002CD8                     __end_of_vfprintf:
  2076                           	callstack 0
  2077                           
  2078 ;; *************** function _vfpfcnvrt *****************
  2079 ;; Defined at:
  2080 ;;		line 1177 in file "C:\Program Files\Microchip\xc8\v2.45\pic\sources\c99\common\doprnt.c"
  2081 ;; Parameters:    Size  Location     Type
  2082 ;;  fp              1   11[COMRAM] PTR struct _IO_FILE
  2083 ;;		 -> sprintf@f(12), 
  2084 ;;  fmt             1   12[COMRAM] PTR PTR unsigned char 
  2085 ;;		 -> vfprintf@cfmt(1), 
  2086 ;;  ap              1   13[COMRAM] PTR PTR void 
  2087 ;;		 -> sprintf@ap(1), 
  2088 ;; Auto vars:     Size  Location     Type
  2089 ;;  convarg         4   17[COMRAM] struct .
  2090 ;;  c               1   21[COMRAM] unsigned char 
  2091 ;;  cp              1   16[COMRAM] PTR unsigned char 
  2092 ;;		 -> STR_3(3), STR_2(3), STR_1(3), 
  2093 ;;  done            1   15[COMRAM] _Bool 
  2094 ;; Return value:  Size  Location     Type
  2095 ;;                  1    wreg      void 
  2096 ;; Registers used:
  2097 ;;		wreg, fsr1l, fsr1h, fsr2l, fsr2h, status,2, status,0, tblptrl, tblptrh, tblptru, cstack
  2098 ;; Tracked objects:
  2099 ;;		On entry : 0/0
  2100 ;;		On exit  : 0/0
  2101 ;;		Unchanged: 0/0
  2102 ;; Data sizes:     COMRAM   BANK0   BANK1   BANK2   BANK3   BANK4   BANK5   BANK6   BANK7   BANK8   BANK9  BANK10  BANK1
      +1  BANK12  BANK13  BANK14  BANK15
  2103 ;;      Params:         3       0       0       0       0       0       0       0       0       0       0       0       
      +0       0       0       0       0
  2104 ;;      Locals:         7       0       0       0       0       0       0       0       0       0       0       0       
      +0       0       0       0       0
  2105 ;;      Temps:          1       0       0       0       0       0       0       0       0       0       0       0       
      +0       0       0       0       0
  2106 ;;      Totals:        11       0       0       0       0       0       0       0       0       0       0       0       
      +0       0       0       0       0
  2107 ;;Total ram usage:       11 bytes
  2108 ;; Hardware stack levels used: 1
  2109 ;; Hardware stack levels required when called: 4
  2110 ;; This function calls:
  2111 ;;		___awdiv
  2112 ;;		___awmod
  2113 ;;		_abs
  2114 ;;		_fputc
  2115 ;; This function is called by:
  2116 ;;		_vfprintf
  2117 ;; This function uses a non-reentrant model
  2118 ;;
  2119                           
  2120                           	psect	text8
  2121   001A6A                     __ptext8:
  2122                           	callstack 0
  2123   001A6A                     _vfpfcnvrt:
  2124                           	callstack 23
  2125   001A6A                     
  2126                           ;C:\Program Files\Microchip\xc8\v2.45\pic\sources\c99\common\doprnt.c: 1177: vfpfcnvrt(F
      +                          ILE *fp, char *fmt[], va_list ap);C:\Program Files\Microchip\xc8\v2.45\pic\sources\c99\c
      +                          ommon\doprnt.c: 1178: {;C:\Program Files\Microchip\xc8\v2.45\pic\sources\c99\common\dopr
      +                          nt.c: 1179:     char c, *cp;;C:\Program Files\Microchip\xc8\v2.45\pic\sources\c99\common
      +                          \doprnt.c: 1180:     _Bool done;;C:\Program Files\Microchip\xc8\v2.45\pic\sources\c99\co
      +                          mmon\doprnt.c: 1188:  } convarg;;C:\Program Files\Microchip\xc8\v2.45\pic\sources\c99\co
      +                          mmon\doprnt.c: 1201:     if ((*fmt)[0] == '%') {
  2127   001A6A  500D               	movf	vfpfcnvrt@fmt^0,w,c
  2128   001A6C  6ED9               	movwf	fsr2l,c
  2129   001A6E  6ADA               	clrf	fsr2h,c
  2130   001A70  CFDF FFF6          	movff	indf2,tblptrl
  2131   001A74                     	if	1	;There is more than 1 active tblptr byte
  2132   001A74  0E10               	movlw	high __smallconst
  2133   001A76  6EF7               	movwf	tblptrh,c
  2134   001A78                     	endif
  2135   001A78                     	if	1	;Program memory is < 0x10000, tblptru is always zero
  2136   001A78  6AF8               	clrf	tblptru,c
  2137   001A7A                     	endif
  2138   001A7A                     	if	0	;tblptru may be non-zero
  2139   001A7A                     	endif
  2140   001A7A  0008               	tblrd		*
  2141   001A7C  50F5               	movf	tablat,w,c
  2142   001A7E  0A25               	xorlw	37
  2143   001A80  A4D8               	btfss	status,2,c
  2144   001A82  EF45  F00D         	goto	u6891
  2145   001A86  EF47  F00D         	goto	u6890
  2146   001A8A                     u6891:
  2147   001A8A  EF03  F00E         	goto	l7601
  2148   001A8E                     u6890:
  2149   001A8E                     
  2150                           ;C:\Program Files\Microchip\xc8\v2.45\pic\sources\c99\common\doprnt.c: 1202:         ++*
      +                          fmt;
  2151   001A8E  500D               	movf	vfpfcnvrt@fmt^0,w,c
  2152   001A90  6ED9               	movwf	fsr2l,c
  2153   001A92  6ADA               	clrf	fsr2h,c
  2154   001A94  2ADF               	incf	indf2,f,c
  2155   001A96                     
  2156                           ;C:\Program Files\Microchip\xc8\v2.45\pic\sources\c99\common\doprnt.c: 1204:         fla
      +                          gs = width = 0;
  2157   001A96  0E00               	movlw	0
  2158   001A98  0100               	movlb	0	; () banked
  2159   001A9A  6FA7               	movwf	(_width+1)& (0+255),b
  2160   001A9C  0E00               	movlw	0
  2161   001A9E  6FA6               	movwf	_width& (0+255),b
  2162   001AA0  C0A6  F063         	movff	_width,_flags
  2163   001AA4                     
  2164                           ; BSR set to: 0
  2165                           ;C:\Program Files\Microchip\xc8\v2.45\pic\sources\c99\common\doprnt.c: 1205:         pre
      +                          c = -1;
  2166   001AA4  69A8               	setf	_prec& (0+255),b
  2167   001AA6  69A9               	setf	(_prec+1)& (0+255),b
  2168   001AA8                     
  2169                           ; BSR set to: 0
  2170                           ;C:\Program Files\Microchip\xc8\v2.45\pic\sources\c99\common\doprnt.c: 1291:   cp = *fmt
      +                          ;
  2171   001AA8  500D               	movf	vfpfcnvrt@fmt^0,w,c
  2172   001AAA  6ED9               	movwf	fsr2l,c
  2173   001AAC  6ADA               	clrf	fsr2h,c
  2174   001AAE  50DF               	movf	indf2,w,c
  2175   001AB0  6E11               	movwf	vfpfcnvrt@cp^0,c
  2176   001AB2                     
  2177                           ; BSR set to: 0
  2178                           ;C:\Program Files\Microchip\xc8\v2.45\pic\sources\c99\common\doprnt.c: 1361:   if (*cp =
      +                          = 'd' || *cp == 'i') {
  2179   001AB2  C011  FFF6         	movff	vfpfcnvrt@cp,tblptrl
  2180   001AB6                     	if	1	;There is more than 1 active tblptr byte
  2181   001AB6  0E10               	movlw	high __smallconst
  2182   001AB8  6EF7               	movwf	tblptrh,c
  2183   001ABA                     	endif
  2184   001ABA                     	if	1	;Program memory is < 0x10000, tblptru is always zero
  2185   001ABA  6AF8               	clrf	tblptru,c
  2186   001ABC                     	endif
  2187   001ABC                     	if	0	;tblptru may be non-zero
  2188   001ABC                     	endif
  2189   001ABC  0008               	tblrd		*
  2190   001ABE  50F5               	movf	tablat,w,c
  2191   001AC0  0A64               	xorlw	100
  2192   001AC2  B4D8               	btfsc	status,2,c
  2193   001AC4  EF66  F00D         	goto	u6901
  2194   001AC8  EF68  F00D         	goto	u6900
  2195   001ACC                     u6901:
  2196   001ACC  EF77  F00D         	goto	l7571
  2197   001AD0                     u6900:
  2198   001AD0                     
  2199                           ; BSR set to: 0
  2200   001AD0  C011  FFF6         	movff	vfpfcnvrt@cp,tblptrl
  2201   001AD4                     	if	1	;There is more than 1 active tblptr byte
  2202   001AD4  0E10               	movlw	high __smallconst
  2203   001AD6  6EF7               	movwf	tblptrh,c
  2204   001AD8                     	endif
  2205   001AD8                     	if	1	;Program memory is < 0x10000, tblptru is always zero
  2206   001AD8  6AF8               	clrf	tblptru,c
  2207   001ADA                     	endif
  2208   001ADA                     	if	0	;tblptru may be non-zero
  2209   001ADA                     	endif
  2210   001ADA  0008               	tblrd		*
  2211   001ADC  50F5               	movf	tablat,w,c
  2212   001ADE  0A69               	xorlw	105
  2213   001AE0  A4D8               	btfss	status,2,c
  2214   001AE2  EF75  F00D         	goto	u6911
  2215   001AE6  EF77  F00D         	goto	u6910
  2216   001AEA                     u6911:
  2217   001AEA  EFFD  F00D         	goto	l7597
  2218   001AEE                     u6910:
  2219   001AEE                     l7571:
  2220                           
  2221                           ; BSR set to: 0
  2222                           ;C:\Program Files\Microchip\xc8\v2.45\pic\sources\c99\common\doprnt.c: 1404:    convarg.
      +                          sint = (vfpf_sint_t)(int)(*(int *)__va_arg(*(int **)ap, (int)0));
  2223   001AEE  500E               	movf	vfpfcnvrt@ap^0,w,c
  2224   001AF0  6ED9               	movwf	fsr2l,c
  2225   001AF2  6ADA               	clrf	fsr2h,c
  2226   001AF4  0E02               	movlw	2
  2227   001AF6  26DF               	addwf	indf2,f,c
  2228   001AF8  5CDF               	subwf	indf2,w,c
  2229   001AFA  6ED9               	movwf	fsr2l,c
  2230   001AFC  6ADA               	clrf	fsr2h,c
  2231   001AFE  CFDE F012          	movff	postinc2,vfpfcnvrt@convarg
  2232   001B02  CFDE F013          	movff	postinc2,vfpfcnvrt@convarg+1
  2233   001B06                     
  2234                           ; BSR set to: 0
  2235                           ;C:\Program Files\Microchip\xc8\v2.45\pic\sources\c99\common\doprnt.c: 1406:    *fmt = c
      +                          p+1;
  2236   001B06  500D               	movf	vfpfcnvrt@fmt^0,w,c
  2237   001B08  6ED9               	movwf	fsr2l,c
  2238   001B0A  6ADA               	clrf	fsr2h,c
  2239   001B0C  2811               	incf	vfpfcnvrt@cp^0,w,c
  2240   001B0E  6EDF               	movwf	indf2,c
  2241   001B10                     
  2242                           ; BSR set to: 0
  2243                           ;C:\Program Files\Microchip\xc8\v2.45\pic\sources\c99\common\doprnt.c: 1408:    c = size
      +                          of(dbuf);
  2244   001B10  0E20               	movlw	32
  2245   001B12  6E16               	movwf	vfpfcnvrt@c^0,c
  2246                           
  2247                           ;C:\Program Files\Microchip\xc8\v2.45\pic\sources\c99\common\doprnt.c: 1409:    done = c
      +                          onvarg.sint < 0;
  2248   001B14  BE13               	btfsc	(vfpfcnvrt@convarg+1)^0,7,c
  2249   001B16  EF8F  F00D         	goto	u6921
  2250   001B1A  EF92  F00D         	goto	u6920
  2251   001B1E                     u6921:
  2252   001B1E  0E01               	movlw	1
  2253   001B20  EF93  F00D         	goto	u6930
  2254   001B24                     u6920:
  2255   001B24  0E00               	movlw	0
  2256   001B26                     u6930:
  2257   001B26  6E10               	movwf	vfpfcnvrt@done^0,c
  2258   001B28                     l7577:
  2259                           
  2260                           ;C:\Program Files\Microchip\xc8\v2.45\pic\sources\c99\common\doprnt.c: 1411:     dbuf[--
      +                          c] = abs(convarg.sint % 10) + '0';
  2261   001B28  0616               	decf	vfpfcnvrt@c^0,f,c
  2262   001B2A  5016               	movf	vfpfcnvrt@c^0,w,c
  2263   001B2C  0F80               	addlw	low _dbuf
  2264   001B2E  6ED9               	movwf	fsr2l,c
  2265   001B30  6ADA               	clrf	fsr2h,c
  2266   001B32  C012  F002         	movff	vfpfcnvrt@convarg,___awmod@dividend
  2267   001B36  C013  F003         	movff	vfpfcnvrt@convarg+1,___awmod@dividend+1
  2268   001B3A  0E00               	movlw	0
  2269   001B3C  6E05               	movwf	(___awmod@divisor+1)^0,c
  2270   001B3E  0E0A               	movlw	10
  2271   001B40  6E04               	movwf	___awmod@divisor^0,c
  2272   001B42  EC2B  F012         	call	___awmod	;wreg free
  2273   001B46  C002  F008         	movff	?___awmod,abs@a
  2274   001B4A  C003  F009         	movff	?___awmod+1,abs@a+1
  2275   001B4E  ECFA  F016         	call	_abs	;wreg free
  2276   001B52  5008               	movf	?_abs^0,w,c
  2277   001B54  0F30               	addlw	48
  2278   001B56  6EDF               	movwf	indf2,c
  2279   001B58                     
  2280                           ;C:\Program Files\Microchip\xc8\v2.45\pic\sources\c99\common\doprnt.c: 1412:     convarg
      +                          .sint /= 10;
  2281   001B58  C012  F002         	movff	vfpfcnvrt@convarg,___awdiv@dividend
  2282   001B5C  C013  F003         	movff	vfpfcnvrt@convarg+1,___awdiv@dividend+1
  2283   001B60  0E00               	movlw	0
  2284   001B62  6E05               	movwf	(___awdiv@divisor+1)^0,c
  2285   001B64  0E0A               	movlw	10
  2286   001B66  6E04               	movwf	___awdiv@divisor^0,c
  2287   001B68  EC6D  F011         	call	___awdiv	;wreg free
  2288   001B6C  C002  F012         	movff	?___awdiv,vfpfcnvrt@convarg
  2289   001B70  C003  F013         	movff	?___awdiv+1,vfpfcnvrt@convarg+1
  2290   001B74                     
  2291                           ;C:\Program Files\Microchip\xc8\v2.45\pic\sources\c99\common\doprnt.c: 1416:    } while 
      +                          (convarg.sint != 0 && c != 0);
  2292   001B74  5012               	movf	vfpfcnvrt@convarg^0,w,c
  2293   001B76  1013               	iorwf	(vfpfcnvrt@convarg+1)^0,w,c
  2294   001B78  B4D8               	btfsc	status,2,c
  2295   001B7A  EFC1  F00D         	goto	u6941
  2296   001B7E  EFC3  F00D         	goto	u6940
  2297   001B82                     u6941:
  2298   001B82  EFCB  F00D         	goto	l7585
  2299   001B86                     u6940:
  2300   001B86  5016               	movf	vfpfcnvrt@c^0,w,c
  2301   001B88  A4D8               	btfss	status,2,c
  2302   001B8A  EFC9  F00D         	goto	u6951
  2303   001B8E  EFCB  F00D         	goto	u6950
  2304   001B92                     u6951:
  2305   001B92  EF94  F00D         	goto	l7577
  2306   001B96                     u6950:
  2307   001B96                     l7585:
  2308                           
  2309                           ;C:\Program Files\Microchip\xc8\v2.45\pic\sources\c99\common\doprnt.c: 1417:    if (c !=
      +                           0 && done) {
  2310   001B96  5016               	movf	vfpfcnvrt@c^0,w,c
  2311   001B98  B4D8               	btfsc	status,2,c
  2312   001B9A  EFD1  F00D         	goto	u6961
  2313   001B9E  EFD3  F00D         	goto	u6960
  2314   001BA2                     u6961:
  2315   001BA2  EFF2  F00D         	goto	l7595
  2316   001BA6                     u6960:
  2317   001BA6  5010               	movf	vfpfcnvrt@done^0,w,c
  2318   001BA8  B4D8               	btfsc	status,2,c
  2319   001BAA  EFD9  F00D         	goto	u6971
  2320   001BAE  EFDB  F00D         	goto	u6970
  2321   001BB2                     u6971:
  2322   001BB2  EFF2  F00D         	goto	l7595
  2323   001BB6                     u6970:
  2324   001BB6                     
  2325                           ;C:\Program Files\Microchip\xc8\v2.45\pic\sources\c99\common\doprnt.c: 1418:     dbuf[--
      +                          c] = '-';
  2326   001BB6  0616               	decf	vfpfcnvrt@c^0,f,c
  2327   001BB8  5016               	movf	vfpfcnvrt@c^0,w,c
  2328   001BBA  0F80               	addlw	low _dbuf
  2329   001BBC  6ED9               	movwf	fsr2l,c
  2330   001BBE  6ADA               	clrf	fsr2h,c
  2331   001BC0  0E2D               	movlw	45
  2332   001BC2  6EDF               	movwf	indf2,c
  2333   001BC4  EFF2  F00D         	goto	l7595
  2334   001BC8                     l7591:
  2335                           
  2336                           ;C:\Program Files\Microchip\xc8\v2.45\pic\sources\c99\common\doprnt.c: 1424:     fputc(d
      +                          buf[c++], fp);
  2337   001BC8  5016               	movf	vfpfcnvrt@c^0,w,c
  2338   001BCA  0F80               	addlw	low _dbuf
  2339   001BCC  6ED9               	movwf	fsr2l,c
  2340   001BCE  6ADA               	clrf	fsr2h,c
  2341   001BD0  50DF               	movf	indf2,w,c
  2342   001BD2  6E0F               	movwf	??_vfpfcnvrt^0,c
  2343   001BD4  500F               	movf	??_vfpfcnvrt^0,w,c
  2344   001BD6  6E02               	movwf	fputc@c^0,c
  2345   001BD8  6A03               	clrf	(fputc@c+1)^0,c
  2346   001BDA  C00C  F004         	movff	vfpfcnvrt@fp,fputc@fp
  2347   001BDE  ECD9  F012         	call	_fputc	;wreg free
  2348   001BE2  2A16               	incf	vfpfcnvrt@c^0,f,c
  2349   001BE4                     l7595:
  2350                           
  2351                           ;C:\Program Files\Microchip\xc8\v2.45\pic\sources\c99\common\doprnt.c: 1423:    while (c
      +                           != sizeof(dbuf)) {
  2352   001BE4  0E20               	movlw	32
  2353   001BE6  1816               	xorwf	vfpfcnvrt@c^0,w,c
  2354   001BE8  A4D8               	btfss	status,2,c
  2355   001BEA  EFF9  F00D         	goto	u6981
  2356   001BEE  EFFB  F00D         	goto	u6980
  2357   001BF2                     u6981:
  2358   001BF2  EFE4  F00D         	goto	l7591
  2359   001BF6                     u6980:
  2360   001BF6  EF15  F00E         	goto	l2291
  2361   001BFA                     l7597:
  2362                           
  2363                           ;C:\Program Files\Microchip\xc8\v2.45\pic\sources\c99\common\doprnt.c: 1806:         ++*
      +                          fmt;
  2364   001BFA  500D               	movf	vfpfcnvrt@fmt^0,w,c
  2365   001BFC  6ED9               	movwf	fsr2l,c
  2366   001BFE  6ADA               	clrf	fsr2h,c
  2367   001C00  2ADF               	incf	indf2,f,c
  2368   001C02  EF15  F00E         	goto	l2291
  2369   001C06                     l7601:
  2370                           
  2371                           ;C:\Program Files\Microchip\xc8\v2.45\pic\sources\c99\common\doprnt.c: 1811:     fputc((
      +                          int)(*fmt)[0], fp);
  2372   001C06  500D               	movf	vfpfcnvrt@fmt^0,w,c
  2373   001C08  6ED9               	movwf	fsr2l,c
  2374   001C0A  6ADA               	clrf	fsr2h,c
  2375   001C0C  CFDF FFF6          	movff	indf2,tblptrl
  2376   001C10                     	if	1	;There is more than 1 active tblptr byte
  2377   001C10  0E10               	movlw	high __smallconst
  2378   001C12  6EF7               	movwf	tblptrh,c
  2379   001C14                     	endif
  2380   001C14                     	if	1	;Program memory is < 0x10000, tblptru is always zero
  2381   001C14  6AF8               	clrf	tblptru,c
  2382   001C16                     	endif
  2383   001C16                     	if	0	;tblptru may be non-zero
  2384   001C16                     	endif
  2385   001C16  0008               	tblrd		*
  2386   001C18  50F5               	movf	tablat,w,c
  2387   001C1A  6E02               	movwf	fputc@c^0,c
  2388   001C1C  6A03               	clrf	(fputc@c+1)^0,c
  2389   001C1E  C00C  F004         	movff	vfpfcnvrt@fp,fputc@fp
  2390   001C22  ECD9  F012         	call	_fputc	;wreg free
  2391   001C26  EFFD  F00D         	goto	l7597
  2392   001C2A                     l2291:
  2393   001C2A  0012               	return		;funcret
  2394   001C2C                     __end_of_vfpfcnvrt:
  2395                           	callstack 0
  2396                           
  2397 ;; *************** function _fputc *****************
  2398 ;; Defined at:
  2399 ;;		line 8 in file "C:\Program Files\Microchip\xc8\v2.45\pic\sources\c99\common\nf_fputc.c"
  2400 ;; Parameters:    Size  Location     Type
  2401 ;;  c               2    1[COMRAM] int 
  2402 ;;  fp              1    3[COMRAM] PTR struct _IO_FILE
  2403 ;;		 -> sprintf@f(12), 
  2404 ;; Auto vars:     Size  Location     Type
  2405 ;;		None
  2406 ;; Return value:  Size  Location     Type
  2407 ;;                  2    1[COMRAM] int 
  2408 ;; Registers used:
  2409 ;;		wreg, fsr1l, fsr1h, fsr2l, fsr2h, status,2, status,0, cstack
  2410 ;; Tracked objects:
  2411 ;;		On entry : 0/0
  2412 ;;		On exit  : 0/0
  2413 ;;		Unchanged: 0/0
  2414 ;; Data sizes:     COMRAM   BANK0   BANK1   BANK2   BANK3   BANK4   BANK5   BANK6   BANK7   BANK8   BANK9  BANK10  BANK1
      +1  BANK12  BANK13  BANK14  BANK15
  2415 ;;      Params:         3       0       0       0       0       0       0       0       0       0       0       0       
      +0       0       0       0       0
  2416 ;;      Locals:         0       0       0       0       0       0       0       0       0       0       0       0       
      +0       0       0       0       0
  2417 ;;      Temps:          5       0       0       0       0       0       0       0       0       0       0       0       
      +0       0       0       0       0
  2418 ;;      Totals:         8       0       0       0       0       0       0       0       0       0       0       0       
      +0       0       0       0       0
  2419 ;;Total ram usage:        8 bytes
  2420 ;; Hardware stack levels used: 1
  2421 ;; Hardware stack levels required when called: 3
  2422 ;; This function calls:
  2423 ;;		_putch
  2424 ;; This function is called by:
  2425 ;;		_vfpfcnvrt
  2426 ;; This function uses a non-reentrant model
  2427 ;;
  2428                           
  2429                           	psect	text9
  2430   0025B2                     __ptext9:
  2431                           	callstack 0
  2432   0025B2                     _fputc:
  2433                           	callstack 23
  2434   0025B2  5004               	movf	fputc@fp^0,w,c
  2435   0025B4  B4D8               	btfsc	status,2,c
  2436   0025B6  EFDF  F012         	goto	u6771
  2437   0025BA  EFE1  F012         	goto	u6770
  2438   0025BE                     u6771:
  2439   0025BE  EFE9  F012         	goto	l7475
  2440   0025C2                     u6770:
  2441   0025C2  5004               	movf	fputc@fp^0,w,c
  2442   0025C4  A4D8               	btfss	status,2,c
  2443   0025C6  EFE7  F012         	goto	u6781
  2444   0025CA  EFE9  F012         	goto	u6780
  2445   0025CE                     u6781:
  2446   0025CE  EFEE  F012         	goto	l7477
  2447   0025D2                     u6780:
  2448   0025D2                     l7475:
  2449   0025D2  5002               	movf	fputc@c^0,w,c
  2450   0025D4  ECF8  F017         	call	_putch
  2451   0025D8  EF2D  F013         	goto	l2316
  2452   0025DC                     l7477:
  2453   0025DC  5004               	movf	fputc@fp^0,w,c
  2454   0025DE  6ED9               	movwf	fsr2l,c
  2455   0025E0  6ADA               	clrf	fsr2h,c
  2456   0025E2  0E0A               	movlw	10
  2457   0025E4  26D9               	addwf	fsr2l,f,c
  2458   0025E6  50DE               	movf	postinc2,w,c
  2459   0025E8  10DE               	iorwf	postinc2,w,c
  2460   0025EA  B4D8               	btfsc	status,2,c
  2461   0025EC  EFFA  F012         	goto	u6791
  2462   0025F0  EFFC  F012         	goto	u6790
  2463   0025F4                     u6791:
  2464   0025F4  EF15  F013         	goto	l7481
  2465   0025F8                     u6790:
  2466   0025F8  5004               	movf	fputc@fp^0,w,c
  2467   0025FA  6ED9               	movwf	fsr2l,c
  2468   0025FC  6ADA               	clrf	fsr2h,c
  2469   0025FE  0E0A               	movlw	10
  2470   002600  26D9               	addwf	fsr2l,f,c
  2471   002602  5004               	movf	fputc@fp^0,w,c
  2472   002604  6EE1               	movwf	fsr1l,c
  2473   002606  6AE2               	clrf	fsr1h,c
  2474   002608  0E03               	movlw	3
  2475   00260A  26E1               	addwf	fsr1l,f,c
  2476   00260C  50DE               	movf	postinc2,w,c
  2477   00260E  5CE6               	subwf	postinc1,w,c
  2478   002610  50E6               	movf	postinc1,w,c
  2479   002612  0A80               	xorlw	128
  2480   002614  6E09               	movwf	(??_fputc+4)^0,c
  2481   002616  50DE               	movf	postinc2,w,c
  2482   002618  0A80               	xorlw	128
  2483   00261A  5809               	subwfb	(??_fputc+4)^0,w,c
  2484   00261C  B0D8               	btfsc	status,0,c
  2485   00261E  EF13  F013         	goto	u6801
  2486   002622  EF15  F013         	goto	u6800
  2487   002626                     u6801:
  2488   002626  EF2D  F013         	goto	l2316
  2489   00262A                     u6800:
  2490   00262A                     l7481:
  2491   00262A  5004               	movf	fputc@fp^0,w,c
  2492   00262C  6ED9               	movwf	fsr2l,c
  2493   00262E  6ADA               	clrf	fsr2h,c
  2494   002630  0E03               	movlw	3
  2495   002632  26D9               	addwf	fsr2l,f,c
  2496   002634  50DF               	movf	indf2,w,c
  2497   002636  6E05               	movwf	??_fputc^0,c
  2498   002638  5004               	movf	fputc@fp^0,w,c
  2499   00263A  6ED9               	movwf	fsr2l,c
  2500   00263C  6ADA               	clrf	fsr2h,c
  2501   00263E  50DF               	movf	indf2,w,c
  2502   002640  2405               	addwf	??_fputc^0,w,c
  2503   002642  6ED9               	movwf	fsr2l,c
  2504   002644  6ADA               	clrf	fsr2h,c
  2505   002646  C002  FFDF         	movff	fputc@c,indf2
  2506   00264A  5004               	movf	fputc@fp^0,w,c
  2507   00264C  6ED9               	movwf	fsr2l,c
  2508   00264E  6ADA               	clrf	fsr2h,c
  2509   002650  0E03               	movlw	3
  2510   002652  26D9               	addwf	fsr2l,f,c
  2511   002654  2ADE               	incf	postinc2,f,c
  2512   002656  0E00               	movlw	0
  2513   002658  22DD               	addwfc	postdec2,f,c
  2514   00265A                     l2316:
  2515   00265A  0012               	return		;funcret
  2516   00265C                     __end_of_fputc:
  2517                           	callstack 0
  2518                           
  2519 ;; *************** function _putch *****************
  2520 ;; Defined at:
  2521 ;;		line 7 in file "C:\Program Files\Microchip\xc8\v2.45\pic\sources\c99\common\putch.c"
  2522 ;; Parameters:    Size  Location     Type
  2523 ;;  c               1    wreg     unsigned char 
  2524 ;; Auto vars:     Size  Location     Type
  2525 ;;  c               1    0[COMRAM] unsigned char 
  2526 ;; Return value:  Size  Location     Type
  2527 ;;                  1    wreg      void 
  2528 ;; Registers used:
  2529 ;;		wreg
  2530 ;; Tracked objects:
  2531 ;;		On entry : 0/0
  2532 ;;		On exit  : 0/0
  2533 ;;		Unchanged: 0/0
  2534 ;; Data sizes:     COMRAM   BANK0   BANK1   BANK2   BANK3   BANK4   BANK5   BANK6   BANK7   BANK8   BANK9  BANK10  BANK1
      +1  BANK12  BANK13  BANK14  BANK15
  2535 ;;      Params:         0       0       0       0       0       0       0       0       0       0       0       0       
      +0       0       0       0       0
  2536 ;;      Locals:         0       0       0       0       0       0       0       0       0       0       0       0       
      +0       0       0       0       0
  2537 ;;      Temps:          0       0       0       0       0       0       0       0       0       0       0       0       
      +0       0       0       0       0
  2538 ;;      Totals:         0       0       0       0       0       0       0       0       0       0       0       0       
      +0       0       0       0       0
  2539 ;;Total ram usage:        0 bytes
  2540 ;; Hardware stack levels used: 1
  2541 ;; Hardware stack levels required when called: 2
  2542 ;; This function calls:
  2543 ;;		Nothing
  2544 ;; This function is called by:
  2545 ;;		_fputc
  2546 ;; This function uses a non-reentrant model
  2547 ;;
  2548                           
  2549                           	psect	text10
  2550   002FF0                     __ptext10:
  2551                           	callstack 0
  2552   002FF0                     _putch:
  2553                           	callstack 23
  2554   002FF0  0012               	return		;funcret
  2555   002FF2                     __end_of_putch:
  2556                           	callstack 0
  2557                           
  2558 ;; *************** function _abs *****************
  2559 ;; Defined at:
  2560 ;;		line 1 in file "C:\Program Files\Microchip\xc8\v2.45\pic\sources\c99\common\abs.c"
  2561 ;; Parameters:    Size  Location     Type
  2562 ;;  a               2    7[COMRAM] int 
  2563 ;; Auto vars:     Size  Location     Type
  2564 ;;		None
  2565 ;; Return value:  Size  Location     Type
  2566 ;;                  2    7[COMRAM] int 
  2567 ;; Registers used:
  2568 ;;		wreg, status,2, status,0
  2569 ;; Tracked objects:
  2570 ;;		On entry : 0/0
  2571 ;;		On exit  : 0/0
  2572 ;;		Unchanged: 0/0
  2573 ;; Data sizes:     COMRAM   BANK0   BANK1   BANK2   BANK3   BANK4   BANK5   BANK6   BANK7   BANK8   BANK9  BANK10  BANK1
      +1  BANK12  BANK13  BANK14  BANK15
  2574 ;;      Params:         2       0       0       0       0       0       0       0       0       0       0       0       
      +0       0       0       0       0
  2575 ;;      Locals:         0       0       0       0       0       0       0       0       0       0       0       0       
      +0       0       0       0       0
  2576 ;;      Temps:          2       0       0       0       0       0       0       0       0       0       0       0       
      +0       0       0       0       0
  2577 ;;      Totals:         4       0       0       0       0       0       0       0       0       0       0       0       
      +0       0       0       0       0
  2578 ;;Total ram usage:        4 bytes
  2579 ;; Hardware stack levels used: 1
  2580 ;; Hardware stack levels required when called: 2
  2581 ;; This function calls:
  2582 ;;		Nothing
  2583 ;; This function is called by:
  2584 ;;		_vfpfcnvrt
  2585 ;; This function uses a non-reentrant model
  2586 ;;
  2587                           
  2588                           	psect	text11
  2589   002DF4                     __ptext11:
  2590                           	callstack 0
  2591   002DF4                     _abs:
  2592                           	callstack 24
  2593   002DF4  BE09               	btfsc	(abs@a+1)^0,7,c
  2594   002DF6  EFFF  F016         	goto	u6811
  2595   002DFA  EF01  F017         	goto	u6810
  2596   002DFE                     u6811:
  2597   002DFE  EF07  F017         	goto	l2301
  2598   002E02                     u6810:
  2599   002E02  C008  F008         	movff	abs@a,?_abs
  2600   002E06  C009  F009         	movff	abs@a+1,?_abs+1
  2601   002E0A  EF13  F017         	goto	l2304
  2602   002E0E                     l2301:
  2603   002E0E  C008  F00A         	movff	abs@a,??_abs
  2604   002E12  C009  F00B         	movff	abs@a+1,??_abs+1
  2605   002E16  1E0A               	comf	??_abs^0,f,c
  2606   002E18  1E0B               	comf	(??_abs+1)^0,f,c
  2607   002E1A  4A0A               	infsnz	??_abs^0,f,c
  2608   002E1C  2A0B               	incf	(??_abs+1)^0,f,c
  2609   002E1E  C00A  F008         	movff	??_abs,?_abs
  2610   002E22  C00B  F009         	movff	??_abs+1,?_abs+1
  2611   002E26                     l2304:
  2612   002E26  0012               	return		;funcret
  2613   002E28                     __end_of_abs:
  2614                           	callstack 0
  2615                           
  2616 ;; *************** function ___awmod *****************
  2617 ;; Defined at:
  2618 ;;		line 7 in file "C:\Program Files\Microchip\xc8\v2.45\pic\sources\c99\common\awmod.c"
  2619 ;; Parameters:    Size  Location     Type
  2620 ;;  dividend        2    1[COMRAM] int 
  2621 ;;  divisor         2    3[COMRAM] int 
  2622 ;; Auto vars:     Size  Location     Type
  2623 ;;  sign            1    6[COMRAM] unsigned char 
  2624 ;;  counter         1    5[COMRAM] unsigned char 
  2625 ;; Return value:  Size  Location     Type
  2626 ;;                  2    1[COMRAM] int 
  2627 ;; Registers used:
  2628 ;;		wreg, status,2, status,0
  2629 ;; Tracked objects:
  2630 ;;		On entry : 0/0
  2631 ;;		On exit  : 0/0
  2632 ;;		Unchanged: 0/0
  2633 ;; Data sizes:     COMRAM   BANK0   BANK1   BANK2   BANK3   BANK4   BANK5   BANK6   BANK7   BANK8   BANK9  BANK10  BANK1
      +1  BANK12  BANK13  BANK14  BANK15
  2634 ;;      Params:         4       0       0       0       0       0       0       0       0       0       0       0       
      +0       0       0       0       0
  2635 ;;      Locals:         2       0       0       0       0       0       0       0       0       0       0       0       
      +0       0       0       0       0
  2636 ;;      Temps:          0       0       0       0       0       0       0       0       0       0       0       0       
      +0       0       0       0       0
  2637 ;;      Totals:         6       0       0       0       0       0       0       0       0       0       0       0       
      +0       0       0       0       0
  2638 ;;Total ram usage:        6 bytes
  2639 ;; Hardware stack levels used: 1
  2640 ;; Hardware stack levels required when called: 2
  2641 ;; This function calls:
  2642 ;;		Nothing
  2643 ;; This function is called by:
  2644 ;;		_vfpfcnvrt
  2645 ;; This function uses a non-reentrant model
  2646 ;;
  2647                           
  2648                           	psect	text12
  2649   002456                     __ptext12:
  2650                           	callstack 0
  2651   002456                     ___awmod:
  2652                           	callstack 24
  2653   002456  0E00               	movlw	0
  2654   002458  6E07               	movwf	___awmod@sign^0,c
  2655   00245A  BE03               	btfsc	(___awmod@dividend+1)^0,7,c
  2656   00245C  EF34  F012         	goto	u6710
  2657   002460  EF32  F012         	goto	u6711
  2658   002464                     u6711:
  2659   002464  EF3A  F012         	goto	l7443
  2660   002468                     u6710:
  2661   002468  6C02               	negf	___awmod@dividend^0,c
  2662   00246A  1E03               	comf	(___awmod@dividend+1)^0,f,c
  2663   00246C  B0D8               	btfsc	status,0,c
  2664   00246E  2A03               	incf	(___awmod@dividend+1)^0,f,c
  2665   002470  0E01               	movlw	1
  2666   002472  6E07               	movwf	___awmod@sign^0,c
  2667   002474                     l7443:
  2668   002474  BE05               	btfsc	(___awmod@divisor+1)^0,7,c
  2669   002476  EF41  F012         	goto	u6720
  2670   00247A  EF3F  F012         	goto	u6721
  2671   00247E                     u6721:
  2672   00247E  EF45  F012         	goto	l7447
  2673   002482                     u6720:
  2674   002482  6C04               	negf	___awmod@divisor^0,c
  2675   002484  1E05               	comf	(___awmod@divisor+1)^0,f,c
  2676   002486  B0D8               	btfsc	status,0,c
  2677   002488  2A05               	incf	(___awmod@divisor+1)^0,f,c
  2678   00248A                     l7447:
  2679   00248A  5004               	movf	___awmod@divisor^0,w,c
  2680   00248C  1005               	iorwf	(___awmod@divisor+1)^0,w,c
  2681   00248E  B4D8               	btfsc	status,2,c
  2682   002490  EF4C  F012         	goto	u6731
  2683   002494  EF4E  F012         	goto	u6730
  2684   002498                     u6731:
  2685   002498  EF72  F012         	goto	l7463
  2686   00249C                     u6730:
  2687   00249C  0E01               	movlw	1
  2688   00249E  6E06               	movwf	___awmod@counter^0,c
  2689   0024A0  EF56  F012         	goto	l7453
  2690   0024A4                     l7451:
  2691   0024A4  90D8               	bcf	status,0,c
  2692   0024A6  3604               	rlcf	___awmod@divisor^0,f,c
  2693   0024A8  3605               	rlcf	(___awmod@divisor+1)^0,f,c
  2694   0024AA  2A06               	incf	___awmod@counter^0,f,c
  2695   0024AC                     l7453:
  2696   0024AC  AE05               	btfss	(___awmod@divisor+1)^0,7,c
  2697   0024AE  EF5B  F012         	goto	u6741
  2698   0024B2  EF5D  F012         	goto	u6740
  2699   0024B6                     u6741:
  2700   0024B6  EF52  F012         	goto	l7451
  2701   0024BA                     u6740:
  2702   0024BA                     l7455:
  2703   0024BA  5004               	movf	___awmod@divisor^0,w,c
  2704   0024BC  5C02               	subwf	___awmod@dividend^0,w,c
  2705   0024BE  5005               	movf	(___awmod@divisor+1)^0,w,c
  2706   0024C0  5803               	subwfb	(___awmod@dividend+1)^0,w,c
  2707   0024C2  A0D8               	btfss	status,0,c
  2708   0024C4  EF66  F012         	goto	u6751
  2709   0024C8  EF68  F012         	goto	u6750
  2710   0024CC                     u6751:
  2711   0024CC  EF6C  F012         	goto	l7459
  2712   0024D0                     u6750:
  2713   0024D0  5004               	movf	___awmod@divisor^0,w,c
  2714   0024D2  5E02               	subwf	___awmod@dividend^0,f,c
  2715   0024D4  5005               	movf	(___awmod@divisor+1)^0,w,c
  2716   0024D6  5A03               	subwfb	(___awmod@dividend+1)^0,f,c
  2717   0024D8                     l7459:
  2718   0024D8  90D8               	bcf	status,0,c
  2719   0024DA  3205               	rrcf	(___awmod@divisor+1)^0,f,c
  2720   0024DC  3204               	rrcf	___awmod@divisor^0,f,c
  2721   0024DE  2E06               	decfsz	___awmod@counter^0,f,c
  2722   0024E0  EF5D  F012         	goto	l7455
  2723   0024E4                     l7463:
  2724   0024E4  5007               	movf	___awmod@sign^0,w,c
  2725   0024E6  B4D8               	btfsc	status,2,c
  2726   0024E8  EF78  F012         	goto	u6761
  2727   0024EC  EF7A  F012         	goto	u6760
  2728   0024F0                     u6761:
  2729   0024F0  EF7E  F012         	goto	l7467
  2730   0024F4                     u6760:
  2731   0024F4  6C02               	negf	___awmod@dividend^0,c
  2732   0024F6  1E03               	comf	(___awmod@dividend+1)^0,f,c
  2733   0024F8  B0D8               	btfsc	status,0,c
  2734   0024FA  2A03               	incf	(___awmod@dividend+1)^0,f,c
  2735   0024FC                     l7467:
  2736   0024FC  C002  F002         	movff	___awmod@dividend,?___awmod
  2737   002500  C003  F003         	movff	___awmod@dividend+1,?___awmod+1
  2738   002504  0012               	return		;funcret
  2739   002506                     __end_of___awmod:
  2740                           	callstack 0
  2741                           
  2742 ;; *************** function ___awdiv *****************
  2743 ;; Defined at:
  2744 ;;		line 7 in file "C:\Program Files\Microchip\xc8\v2.45\pic\sources\c99\common\awdiv.c"
  2745 ;; Parameters:    Size  Location     Type
  2746 ;;  dividend        2    1[COMRAM] int 
  2747 ;;  divisor         2    3[COMRAM] int 
  2748 ;; Auto vars:     Size  Location     Type
  2749 ;;  quotient        2    7[COMRAM] int 
  2750 ;;  sign            1    6[COMRAM] unsigned char 
  2751 ;;  counter         1    5[COMRAM] unsigned char 
  2752 ;; Return value:  Size  Location     Type
  2753 ;;                  2    1[COMRAM] int 
  2754 ;; Registers used:
  2755 ;;		wreg, status,2, status,0
  2756 ;; Tracked objects:
  2757 ;;		On entry : 0/0
  2758 ;;		On exit  : 0/0
  2759 ;;		Unchanged: 0/0
  2760 ;; Data sizes:     COMRAM   BANK0   BANK1   BANK2   BANK3   BANK4   BANK5   BANK6   BANK7   BANK8   BANK9  BANK10  BANK1
      +1  BANK12  BANK13  BANK14  BANK15
  2761 ;;      Params:         4       0       0       0       0       0       0       0       0       0       0       0       
      +0       0       0       0       0
  2762 ;;      Locals:         4       0       0       0       0       0       0       0       0       0       0       0       
      +0       0       0       0       0
  2763 ;;      Temps:          0       0       0       0       0       0       0       0       0       0       0       0       
      +0       0       0       0       0
  2764 ;;      Totals:         8       0       0       0       0       0       0       0       0       0       0       0       
      +0       0       0       0       0
  2765 ;;Total ram usage:        8 bytes
  2766 ;; Hardware stack levels used: 1
  2767 ;; Hardware stack levels required when called: 2
  2768 ;; This function calls:
  2769 ;;		Nothing
  2770 ;; This function is called by:
  2771 ;;		_vfpfcnvrt
  2772 ;; This function uses a non-reentrant model
  2773 ;;
  2774                           
  2775                           	psect	text13
  2776   0022DA                     __ptext13:
  2777                           	callstack 0
  2778   0022DA                     ___awdiv:
  2779                           	callstack 24
  2780   0022DA  0E00               	movlw	0
  2781   0022DC  6E07               	movwf	___awdiv@sign^0,c
  2782   0022DE  BE05               	btfsc	(___awdiv@divisor+1)^0,7,c
  2783   0022E0  EF76  F011         	goto	u6650
  2784   0022E4  EF74  F011         	goto	u6651
  2785   0022E8                     u6651:
  2786   0022E8  EF7C  F011         	goto	l7399
  2787   0022EC                     u6650:
  2788   0022EC  6C04               	negf	___awdiv@divisor^0,c
  2789   0022EE  1E05               	comf	(___awdiv@divisor+1)^0,f,c
  2790   0022F0  B0D8               	btfsc	status,0,c
  2791   0022F2  2A05               	incf	(___awdiv@divisor+1)^0,f,c
  2792   0022F4  0E01               	movlw	1
  2793   0022F6  6E07               	movwf	___awdiv@sign^0,c
  2794   0022F8                     l7399:
  2795   0022F8  BE03               	btfsc	(___awdiv@dividend+1)^0,7,c
  2796   0022FA  EF83  F011         	goto	u6660
  2797   0022FE  EF81  F011         	goto	u6661
  2798   002302                     u6661:
  2799   002302  EF89  F011         	goto	l7405
  2800   002306                     u6660:
  2801   002306  6C02               	negf	___awdiv@dividend^0,c
  2802   002308  1E03               	comf	(___awdiv@dividend+1)^0,f,c
  2803   00230A  B0D8               	btfsc	status,0,c
  2804   00230C  2A03               	incf	(___awdiv@dividend+1)^0,f,c
  2805   00230E  0E01               	movlw	1
  2806   002310  1A07               	xorwf	___awdiv@sign^0,f,c
  2807   002312                     l7405:
  2808   002312  0E00               	movlw	0
  2809   002314  6E09               	movwf	(___awdiv@quotient+1)^0,c
  2810   002316  0E00               	movlw	0
  2811   002318  6E08               	movwf	___awdiv@quotient^0,c
  2812   00231A  5004               	movf	___awdiv@divisor^0,w,c
  2813   00231C  1005               	iorwf	(___awdiv@divisor+1)^0,w,c
  2814   00231E  B4D8               	btfsc	status,2,c
  2815   002320  EF94  F011         	goto	u6671
  2816   002324  EF96  F011         	goto	u6670
  2817   002328                     u6671:
  2818   002328  EFBE  F011         	goto	l7427
  2819   00232C                     u6670:
  2820   00232C  0E01               	movlw	1
  2821   00232E  6E06               	movwf	___awdiv@counter^0,c
  2822   002330  EF9E  F011         	goto	l7413
  2823   002334                     l7411:
  2824   002334  90D8               	bcf	status,0,c
  2825   002336  3604               	rlcf	___awdiv@divisor^0,f,c
  2826   002338  3605               	rlcf	(___awdiv@divisor+1)^0,f,c
  2827   00233A  2A06               	incf	___awdiv@counter^0,f,c
  2828   00233C                     l7413:
  2829   00233C  AE05               	btfss	(___awdiv@divisor+1)^0,7,c
  2830   00233E  EFA3  F011         	goto	u6681
  2831   002342  EFA5  F011         	goto	u6680
  2832   002346                     u6681:
  2833   002346  EF9A  F011         	goto	l7411
  2834   00234A                     u6680:
  2835   00234A                     l7415:
  2836   00234A  90D8               	bcf	status,0,c
  2837   00234C  3608               	rlcf	___awdiv@quotient^0,f,c
  2838   00234E  3609               	rlcf	(___awdiv@quotient+1)^0,f,c
  2839   002350  5004               	movf	___awdiv@divisor^0,w,c
  2840   002352  5C02               	subwf	___awdiv@dividend^0,w,c
  2841   002354  5005               	movf	(___awdiv@divisor+1)^0,w,c
  2842   002356  5803               	subwfb	(___awdiv@dividend+1)^0,w,c
  2843   002358  A0D8               	btfss	status,0,c
  2844   00235A  EFB1  F011         	goto	u6691
  2845   00235E  EFB3  F011         	goto	u6690
  2846   002362                     u6691:
  2847   002362  EFB8  F011         	goto	l7423
  2848   002366                     u6690:
  2849   002366  5004               	movf	___awdiv@divisor^0,w,c
  2850   002368  5E02               	subwf	___awdiv@dividend^0,f,c
  2851   00236A  5005               	movf	(___awdiv@divisor+1)^0,w,c
  2852   00236C  5A03               	subwfb	(___awdiv@dividend+1)^0,f,c
  2853   00236E  8008               	bsf	___awdiv@quotient^0,0,c
  2854   002370                     l7423:
  2855   002370  90D8               	bcf	status,0,c
  2856   002372  3205               	rrcf	(___awdiv@divisor+1)^0,f,c
  2857   002374  3204               	rrcf	___awdiv@divisor^0,f,c
  2858   002376  2E06               	decfsz	___awdiv@counter^0,f,c
  2859   002378  EFA5  F011         	goto	l7415
  2860   00237C                     l7427:
  2861   00237C  5007               	movf	___awdiv@sign^0,w,c
  2862   00237E  B4D8               	btfsc	status,2,c
  2863   002380  EFC4  F011         	goto	u6701
  2864   002384  EFC6  F011         	goto	u6700
  2865   002388                     u6701:
  2866   002388  EFCA  F011         	goto	l7431
  2867   00238C                     u6700:
  2868   00238C  6C08               	negf	___awdiv@quotient^0,c
  2869   00238E  1E09               	comf	(___awdiv@quotient+1)^0,f,c
  2870   002390  B0D8               	btfsc	status,0,c
  2871   002392  2A09               	incf	(___awdiv@quotient+1)^0,f,c
  2872   002394                     l7431:
  2873   002394  C008  F002         	movff	___awdiv@quotient,?___awdiv
  2874   002398  C009  F003         	movff	___awdiv@quotient+1,?___awdiv+1
  2875   00239C  0012               	return		;funcret
  2876   00239E                     __end_of___awdiv:
  2877                           	callstack 0
  2878                           
  2879 ;; *************** function _memset *****************
  2880 ;; Defined at:
  2881 ;;		line 3 in file "C:\Program Files\Microchip\xc8\v2.45\pic\sources\c99\common\memset.c"
  2882 ;; Parameters:    Size  Location     Type
  2883 ;;  dest            1    1[COMRAM] PTR void 
  2884 ;;		 -> lm35_res_1_txt(7), 
  2885 ;;  c               2    2[COMRAM] int 
  2886 ;;  n               2    4[COMRAM] unsigned int 
  2887 ;; Auto vars:     Size  Location     Type
  2888 ;;  p               1    6[COMRAM] PTR unsigned char 
  2889 ;;		 -> lm35_res_1_txt(7), 
  2890 ;; Return value:  Size  Location     Type
  2891 ;;                  1    wreg      PTR void 
  2892 ;; Registers used:
  2893 ;;		wreg, fsr2l, fsr2h, status,2, status,0
  2894 ;; Tracked objects:
  2895 ;;		On entry : 0/0
  2896 ;;		On exit  : 0/0
  2897 ;;		Unchanged: 0/0
  2898 ;; Data sizes:     COMRAM   BANK0   BANK1   BANK2   BANK3   BANK4   BANK5   BANK6   BANK7   BANK8   BANK9  BANK10  BANK1
      +1  BANK12  BANK13  BANK14  BANK15
  2899 ;;      Params:         5       0       0       0       0       0       0       0       0       0       0       0       
      +0       0       0       0       0
  2900 ;;      Locals:         1       0       0       0       0       0       0       0       0       0       0       0       
      +0       0       0       0       0
  2901 ;;      Temps:          0       0       0       0       0       0       0       0       0       0       0       0       
      +0       0       0       0       0
  2902 ;;      Totals:         6       0       0       0       0       0       0       0       0       0       0       0       
      +0       0       0       0       0
  2903 ;;Total ram usage:        6 bytes
  2904 ;; Hardware stack levels used: 1
  2905 ;; Hardware stack levels required when called: 2
  2906 ;; This function calls:
  2907 ;;		Nothing
  2908 ;; This function is called by:
  2909 ;;		_convert_uint16_to_string
  2910 ;;		_convert_uint8_to_string
  2911 ;;		_convert_uint32_to_string
  2912 ;; This function uses a non-reentrant model
  2913 ;;
  2914                           
  2915                           	psect	text14
  2916   002E28                     __ptext14:
  2917                           	callstack 0
  2918   002E28                     _memset:
  2919                           	callstack 27
  2920   002E28  C002  F007         	movff	memset@dest,memset@p
  2921   002E2C  EF1E  F017         	goto	l7813
  2922   002E30                     l7809:
  2923   002E30  5007               	movf	memset@p^0,w,c
  2924   002E32  6ED9               	movwf	fsr2l,c
  2925   002E34  6ADA               	clrf	fsr2h,c
  2926   002E36  C003  FFDF         	movff	memset@c,indf2
  2927   002E3A  2A07               	incf	memset@p^0,f,c
  2928   002E3C                     l7813:
  2929   002E3C  0605               	decf	memset@n^0,f,c
  2930   002E3E  A0D8               	btfss	status,0,c
  2931   002E40  0606               	decf	(memset@n+1)^0,f,c
  2932   002E42  2805               	incf	memset@n^0,w,c
  2933   002E44  E106               	bnz	u7141
  2934   002E46  2806               	incf	(memset@n+1)^0,w,c
  2935   002E48  A4D8               	btfss	status,2,c
  2936   002E4A  EF29  F017         	goto	u7141
  2937   002E4E  EF2B  F017         	goto	u7140
  2938   002E52                     u7141:
  2939   002E52  EF18  F017         	goto	l7809
  2940   002E56                     u7140:
  2941   002E56  0012               	return		;funcret
  2942   002E58                     __end_of_memset:
  2943                           	callstack 0
  2944                           
  2945 ;; *************** function _application_intialize *****************
  2946 ;; Defined at:
  2947 ;;		line 55 in file "app1.c"
  2948 ;; Parameters:    Size  Location     Type
  2949 ;;		None
  2950 ;; Auto vars:     Size  Location     Type
  2951 ;;  ret             1    0        unsigned char 
  2952 ;; Return value:  Size  Location     Type
  2953 ;;                  1    wreg      void 
  2954 ;; Registers used:
  2955 ;;		wreg, fsr2l, fsr2h, status,2, status,0, prodl, prodh, cstack
  2956 ;; Tracked objects:
  2957 ;;		On entry : 0/0
  2958 ;;		On exit  : 0/0
  2959 ;;		Unchanged: 0/0
  2960 ;; Data sizes:     COMRAM   BANK0   BANK1   BANK2   BANK3   BANK4   BANK5   BANK6   BANK7   BANK8   BANK9  BANK10  BANK1
      +1  BANK12  BANK13  BANK14  BANK15
  2961 ;;      Params:         0       0       0       0       0       0       0       0       0       0       0       0       
      +0       0       0       0       0
  2962 ;;      Locals:         0       0       0       0       0       0       0       0       0       0       0       0       
      +0       0       0       0       0
  2963 ;;      Temps:          0       0       0       0       0       0       0       0       0       0       0       0       
      +0       0       0       0       0
  2964 ;;      Totals:         0       0       0       0       0       0       0       0       0       0       0       0       
      +0       0       0       0       0
  2965 ;;Total ram usage:        0 bytes
  2966 ;; Hardware stack levels used: 1
  2967 ;; Hardware stack levels required when called: 7
  2968 ;; This function calls:
  2969 ;;		_ecu_layer_intialize
  2970 ;; This function is called by:
  2971 ;;		_main
  2972 ;; This function uses a non-reentrant model
  2973 ;;
  2974                           
  2975                           	psect	text15
  2976   002FCA                     __ptext15:
  2977                           	callstack 0
  2978   002FCA                     _application_intialize:
  2979                           	callstack 23
  2980   002FCA                     
  2981                           ;app1.c: 57:     ecu_layer_intialize();
  2982   002FCA  EC5A  F017         	call	_ecu_layer_intialize	;wreg free
  2983   002FCE  0012               	return		;funcret
  2984   002FD0                     __end_of_application_intialize:
  2985                           	callstack 0
  2986                           
  2987 ;; *************** function _ecu_layer_intialize *****************
  2988 ;; Defined at:
  2989 ;;		line 76 in file "ECU_Layer/ecu_layer_init.c"
  2990 ;; Parameters:    Size  Location     Type
  2991 ;;		None
  2992 ;; Auto vars:     Size  Location     Type
  2993 ;;  ret             1    0        unsigned char 
  2994 ;; Return value:  Size  Location     Type
  2995 ;;                  1    wreg      void 
  2996 ;; Registers used:
  2997 ;;		wreg, fsr2l, fsr2h, status,2, status,0, prodl, prodh, cstack
  2998 ;; Tracked objects:
  2999 ;;		On entry : 0/0
  3000 ;;		On exit  : 0/0
  3001 ;;		Unchanged: 0/0
  3002 ;; Data sizes:     COMRAM   BANK0   BANK1   BANK2   BANK3   BANK4   BANK5   BANK6   BANK7   BANK8   BANK9  BANK10  BANK1
      +1  BANK12  BANK13  BANK14  BANK15
  3003 ;;      Params:         0       0       0       0       0       0       0       0       0       0       0       0       
      +0       0       0       0       0
  3004 ;;      Locals:         0       0       0       0       0       0       0       0       0       0       0       0       
      +0       0       0       0       0
  3005 ;;      Temps:          0       0       0       0       0       0       0       0       0       0       0       0       
      +0       0       0       0       0
  3006 ;;      Totals:         0       0       0       0       0       0       0       0       0       0       0       0       
      +0       0       0       0       0
  3007 ;;Total ram usage:        0 bytes
  3008 ;; Hardware stack levels used: 1
  3009 ;; Hardware stack levels required when called: 6
  3010 ;; This function calls:
  3011 ;;		_ADC_Init
  3012 ;;		_dc_motor_initialize
  3013 ;;		_lcd_4bit_intialize
  3014 ;;		_led_initialize
  3015 ;; This function is called by:
  3016 ;;		_application_intialize
  3017 ;; This function uses a non-reentrant model
  3018 ;;
  3019                           
  3020                           	psect	text16
  3021   002EB4                     __ptext16:
  3022                           	callstack 0
  3023   002EB4                     _ecu_layer_intialize:
  3024                           	callstack 23
  3025   002EB4  0E7B               	movlw	low _dc_motor_1
  3026   002EB6  6E0D               	movwf	dc_motor_initialize@_dc_motor^0,c
  3027   002EB8  EC2C  F017         	call	_dc_motor_initialize	;wreg free
  3028   002EBC  0E79               	movlw	low _dc_motor_2
  3029   002EBE  6E0D               	movwf	dc_motor_initialize@_dc_motor^0,c
  3030   002EC0  EC2C  F017         	call	_dc_motor_initialize	;wreg free
  3031   002EC4  0EE2               	movlw	low _lcd_1
  3032   002EC6  6E10               	movwf	lcd_4bit_intialize@lcd^0,c
  3033   002EC8  EC8E  F010         	call	_lcd_4bit_intialize	;wreg free
  3034   002ECC  0EDB               	movlw	low _adc_1
  3035   002ECE  6E05               	movwf	ADC_Init@_adc^0,c
  3036   002ED0  EC83  F012         	call	_ADC_Init	;wreg free
  3037   002ED4  0E7D               	movlw	low _led1
  3038   002ED6  6E09               	movwf	led_initialize@led^0,c
  3039   002ED8  ECC0  F014         	call	_led_initialize	;wreg free
  3040   002EDC  0012               	return		;funcret
  3041   002EDE                     __end_of_ecu_layer_intialize:
  3042                           	callstack 0
  3043                           
  3044 ;; *************** function _led_initialize *****************
  3045 ;; Defined at:
  3046 ;;		line 15 in file "ECU_Layer/LED/ecu_led.c"
  3047 ;; Parameters:    Size  Location     Type
  3048 ;;  led             1    8[COMRAM] PTR const struct .
  3049 ;;		 -> led1(1), 
  3050 ;; Auto vars:     Size  Location     Type
  3051 ;;  pin_obj         1   11[COMRAM] struct .
  3052 ;;  ret             1   10[COMRAM] unsigned char 
  3053 ;; Return value:  Size  Location     Type
  3054 ;;                  1    wreg      unsigned char 
  3055 ;; Registers used:
  3056 ;;		wreg, fsr2l, fsr2h, status,2, status,0, prodl, prodh, cstack
  3057 ;; Tracked objects:
  3058 ;;		On entry : 0/0
  3059 ;;		On exit  : 0/0
  3060 ;;		Unchanged: 0/0
  3061 ;; Data sizes:     COMRAM   BANK0   BANK1   BANK2   BANK3   BANK4   BANK5   BANK6   BANK7   BANK8   BANK9  BANK10  BANK1
      +1  BANK12  BANK13  BANK14  BANK15
  3062 ;;      Params:         1       0       0       0       0       0       0       0       0       0       0       0       
      +0       0       0       0       0
  3063 ;;      Locals:         2       0       0       0       0       0       0       0       0       0       0       0       
      +0       0       0       0       0
  3064 ;;      Temps:          1       0       0       0       0       0       0       0       0       0       0       0       
      +0       0       0       0       0
  3065 ;;      Totals:         4       0       0       0       0       0       0       0       0       0       0       0       
      +0       0       0       0       0
  3066 ;;Total ram usage:        4 bytes
  3067 ;; Hardware stack levels used: 1
  3068 ;; Hardware stack levels required when called: 3
  3069 ;; This function calls:
  3070 ;;		_gpio_pin_direction_initialize
  3071 ;; This function is called by:
  3072 ;;		_ecu_layer_intialize
  3073 ;; This function uses a non-reentrant model
  3074 ;;
  3075                           
  3076                           	psect	text17
  3077   002980                     __ptext17:
  3078                           	callstack 0
  3079   002980                     _led_initialize:
  3080                           	callstack 25
  3081   002980                     
  3082                           ;ECU_Layer/LED/ecu_led.c: 16:     std_ReturnType ret = (std_ReturnType) 0x01;
  3083   002980  0E01               	movlw	1
  3084   002982  6E0B               	movwf	led_initialize@ret^0,c
  3085                           
  3086                           ;ECU_Layer/LED/ecu_led.c: 18:     if (((void*)0) == led ){
  3087   002984  5009               	movf	led_initialize@led^0,w,c
  3088   002986  A4D8               	btfss	status,2,c
  3089   002988  EFC8  F014         	goto	u7031
  3090   00298C  EFCA  F014         	goto	u7030
  3091   002990                     u7031:
  3092   002990  EFCE  F014         	goto	l269
  3093   002994                     u7030:
  3094   002994                     
  3095                           ;ECU_Layer/LED/ecu_led.c: 19:           ret = (std_ReturnType) 0x00 ;
  3096   002994  0E00               	movlw	0
  3097   002996  6E0B               	movwf	led_initialize@ret^0,c
  3098                           
  3099                           ;ECU_Layer/LED/ecu_led.c: 20:     }
  3100   002998  EFF6  F014         	goto	l7709
  3101   00299C                     l269:
  3102                           
  3103                           ;ECU_Layer/LED/ecu_led.c: 22:         pin_config_t pin_obj = {.port= led->port_name, .pi
      +                          n =led->pin,
  3104   00299C  C06B  F00C         	movff	led_initialize@F3117,led_initialize@pin_obj
  3105   0029A0  5009               	movf	led_initialize@led^0,w,c
  3106   0029A2  6ED9               	movwf	fsr2l,c
  3107   0029A4  6ADA               	clrf	fsr2h,c
  3108   0029A6  50DF               	movf	223,w,c
  3109   0029A8  0B0F               	andlw	15
  3110   0029AA  6E0A               	movwf	??_led_initialize^0,c
  3111   0029AC  500C               	movf	led_initialize@pin_obj^0,w,c
  3112   0029AE  180A               	xorwf	??_led_initialize^0,w,c
  3113   0029B0  0BF8               	andlw	-8
  3114   0029B2  180A               	xorwf	??_led_initialize^0,w,c
  3115   0029B4  6E0C               	movwf	led_initialize@pin_obj^0,c
  3116   0029B6  5009               	movf	led_initialize@led^0,w,c
  3117   0029B8  6ED9               	movwf	fsr2l,c
  3118   0029BA  6ADA               	clrf	fsr2h,c
  3119   0029BC  38DF               	swapf	223,w,c
  3120   0029BE  0B07               	andlw	7
  3121   0029C0  6E0A               	movwf	??_led_initialize^0,c
  3122   0029C2  460A               	rlncf	??_led_initialize^0,f,c
  3123   0029C4  460A               	rlncf	??_led_initialize^0,f,c
  3124   0029C6  460A               	rlncf	??_led_initialize^0,f,c
  3125   0029C8  500C               	movf	led_initialize@pin_obj^0,w,c
  3126   0029CA  180A               	xorwf	??_led_initialize^0,w,c
  3127   0029CC  0BC7               	andlw	-57
  3128   0029CE  180A               	xorwf	??_led_initialize^0,w,c
  3129   0029D0  6E0C               	movwf	led_initialize@pin_obj^0,c
  3130   0029D2  9C0C               	bcf	led_initialize@pin_obj^0,6,c
  3131   0029D4  5009               	movf	led_initialize@led^0,w,c
  3132   0029D6  6ED9               	movwf	fsr2l,c
  3133   0029D8  6ADA               	clrf	fsr2h,c
  3134   0029DA  AEDF               	btfss	indf2,7,c
  3135   0029DC  D002               	bra	u7045
  3136   0029DE  8E0C               	bsf	led_initialize@pin_obj^0,7,c
  3137   0029E0  D001               	bra	u7047
  3138   0029E2                     u7045:
  3139   0029E2  9E0C               	bcf	led_initialize@pin_obj^0,7,c
  3140   0029E4                     u7047:
  3141   0029E4                     
  3142                           ;ECU_Layer/LED/ecu_led.c: 24:         gpio_pin_direction_initialize(&pin_obj);
  3143   0029E4  0E0C               	movlw	low led_initialize@pin_obj
  3144   0029E6  6E02               	movwf	gpio_pin_direction_initialize@_pin_config^0,c
  3145   0029E8  ECF0  F00E         	call	_gpio_pin_direction_initialize	;wreg free
  3146   0029EC                     l7709:
  3147                           
  3148                           ;ECU_Layer/LED/ecu_led.c: 27:  return ret ;
  3149   0029EC  500B               	movf	led_initialize@ret^0,w,c
  3150   0029EE  0012               	return		;funcret
  3151   0029F0                     __end_of_led_initialize:
  3152                           	callstack 0
  3153                           
  3154 ;; *************** function _lcd_4bit_intialize *****************
  3155 ;; Defined at:
  3156 ;;		line 24 in file "ECU_Layer/Chr_LCD/ecu_chr_lcd.c"
  3157 ;; Parameters:    Size  Location     Type
  3158 ;;  lcd             1   15[COMRAM] PTR const struct .
  3159 ;;		 -> lcd_1(6), 
  3160 ;; Auto vars:     Size  Location     Type
  3161 ;;  ret             1   18[COMRAM] unsigned char 
  3162 ;;  l_data_pins_    1   17[COMRAM] unsigned char 
  3163 ;; Return value:  Size  Location     Type
  3164 ;;                  1    wreg      unsigned char 
  3165 ;; Registers used:
  3166 ;;		wreg, fsr2l, fsr2h, status,2, status,0, prodl, prodh, cstack
  3167 ;; Tracked objects:
  3168 ;;		On entry : 0/0
  3169 ;;		On exit  : 0/0
  3170 ;;		Unchanged: 0/0
  3171 ;; Data sizes:     COMRAM   BANK0   BANK1   BANK2   BANK3   BANK4   BANK5   BANK6   BANK7   BANK8   BANK9  BANK10  BANK1
      +1  BANK12  BANK13  BANK14  BANK15
  3172 ;;      Params:         1       0       0       0       0       0       0       0       0       0       0       0       
      +0       0       0       0       0
  3173 ;;      Locals:         2       0       0       0       0       0       0       0       0       0       0       0       
      +0       0       0       0       0
  3174 ;;      Temps:          1       0       0       0       0       0       0       0       0       0       0       0       
      +0       0       0       0       0
  3175 ;;      Totals:         4       0       0       0       0       0       0       0       0       0       0       0       
      +0       0       0       0       0
  3176 ;;Total ram usage:        4 bytes
  3177 ;; Hardware stack levels used: 1
  3178 ;; Hardware stack levels required when called: 5
  3179 ;; This function calls:
  3180 ;;		_gpio_pin_direction_initialize
  3181 ;;		_lcd_4bit_send_command
  3182 ;; This function is called by:
  3183 ;;		_ecu_layer_intialize
  3184 ;; This function uses a non-reentrant model
  3185 ;;
  3186                           
  3187                           	psect	text18
  3188   00211C                     __ptext18:
  3189                           	callstack 0
  3190   00211C                     _lcd_4bit_intialize:
  3191                           	callstack 23
  3192   00211C                     
  3193                           ;ECU_Layer/Chr_LCD/ecu_chr_lcd.c: 26:     uint8 l_data_pins_counter = 0;
  3194   00211C  0E00               	movlw	0
  3195   00211E  6E12               	movwf	lcd_4bit_intialize@l_data_pins_counter^0,c
  3196                           
  3197                           ;ECU_Layer/Chr_LCD/ecu_chr_lcd.c: 27:     if(((void*)0) == lcd){
  3198   002120  5010               	movf	lcd_4bit_intialize@lcd^0,w,c
  3199   002122  A4D8               	btfss	status,2,c
  3200   002124  EF96  F010         	goto	u6991
  3201   002128  EF98  F010         	goto	u6990
  3202   00212C                     u6991:
  3203   00212C  EF9C  F010         	goto	l7611
  3204   002130                     u6990:
  3205   002130                     
  3206                           ;ECU_Layer/Chr_LCD/ecu_chr_lcd.c: 28:         ret = (std_ReturnType) 0x00;
  3207   002130  0E00               	movlw	0
  3208   002132  6E13               	movwf	lcd_4bit_intialize@ret^0,c
  3209                           
  3210                           ;ECU_Layer/Chr_LCD/ecu_chr_lcd.c: 29:     }
  3211   002134  EFFF  F010         	goto	l7647
  3212   002138                     l7611:
  3213                           
  3214                           ;ECU_Layer/Chr_LCD/ecu_chr_lcd.c: 31:         ret = gpio_pin_direction_initialize(&(lcd-
      +                          >lcd_rs));
  3215   002138  C010  F002         	movff	lcd_4bit_intialize@lcd,gpio_pin_direction_initialize@_pin_config
  3216   00213C  ECF0  F00E         	call	_gpio_pin_direction_initialize	;wreg free
  3217   002140  6E13               	movwf	lcd_4bit_intialize@ret^0,c
  3218                           
  3219                           ;ECU_Layer/Chr_LCD/ecu_chr_lcd.c: 32:         ret = gpio_pin_direction_initialize(&(lcd-
      +                          >lcd_en));
  3220   002142  2810               	incf	lcd_4bit_intialize@lcd^0,w,c
  3221   002144  6E02               	movwf	gpio_pin_direction_initialize@_pin_config^0,c
  3222   002146  ECF0  F00E         	call	_gpio_pin_direction_initialize	;wreg free
  3223   00214A  6E13               	movwf	lcd_4bit_intialize@ret^0,c
  3224   00214C                     
  3225                           ;ECU_Layer/Chr_LCD/ecu_chr_lcd.c: 33:         for(l_data_pins_counter=0; l_data_pins_cou
      +                          nter<4; l_data_pins_counter++){
  3226   00214C  0E00               	movlw	0
  3227   00214E  6E12               	movwf	lcd_4bit_intialize@l_data_pins_counter^0,c
  3228   002150                     l7619:
  3229   002150  5010               	movf	lcd_4bit_intialize@lcd^0,w,c
  3230   002152  2412               	addwf	lcd_4bit_intialize@l_data_pins_counter^0,w,c
  3231   002154  0F02               	addlw	2
  3232   002156  6E02               	movwf	gpio_pin_direction_initialize@_pin_config^0,c
  3233   002158  ECF0  F00E         	call	_gpio_pin_direction_initialize	;wreg free
  3234   00215C                     
  3235                           ;ECU_Layer/Chr_LCD/ecu_chr_lcd.c: 35:         }
  3236   00215C  2A12               	incf	lcd_4bit_intialize@l_data_pins_counter^0,f,c
  3237   00215E  0E03               	movlw	3
  3238   002160  6412               	cpfsgt	lcd_4bit_intialize@l_data_pins_counter^0,c
  3239   002162  EFB5  F010         	goto	u7001
  3240   002166  EFB7  F010         	goto	u7000
  3241   00216A                     u7001:
  3242   00216A  EFA8  F010         	goto	l7619
  3243   00216E                     u7000:
  3244   00216E                     
  3245                           ;ECU_Layer/Chr_LCD/ecu_chr_lcd.c: 36:         _delay((unsigned long)((20)*(8000000/4000.
      +                          0)));
  3246   00216E  0E34               	movlw	52
  3247   002170  6E11               	movwf	??_lcd_4bit_intialize^0,c
  3248   002172  0EF2               	movlw	242
  3249   002174                     u8437:
  3250   002174  2EE8               	decfsz	wreg,f,c
  3251   002176  D7FE               	bra	u8437
  3252   002178  2E11               	decfsz	??_lcd_4bit_intialize^0,f,c
  3253   00217A  D7FC               	bra	u8437
  3254   00217C  C010  F00D         	movff	lcd_4bit_intialize@lcd,lcd_4bit_send_command@lcd
  3255   002180  0E38               	movlw	56
  3256   002182  6E0E               	movwf	lcd_4bit_send_command@command^0,c
  3257   002184  EC88  F015         	call	_lcd_4bit_send_command	;wreg free
  3258   002188                     
  3259                           ;ECU_Layer/Chr_LCD/ecu_chr_lcd.c: 38:         _delay((unsigned long)((5)*(8000000/4000.0
      +                          )));
  3260   002188  0E0D               	movlw	13
  3261   00218A  6E11               	movwf	??_lcd_4bit_intialize^0,c
  3262   00218C  0EFC               	movlw	252
  3263   00218E                     u8447:
  3264   00218E  2EE8               	decfsz	wreg,f,c
  3265   002190  D7FE               	bra	u8447
  3266   002192  2E11               	decfsz	??_lcd_4bit_intialize^0,f,c
  3267   002194  D7FC               	bra	u8447
  3268   002196  C010  F00D         	movff	lcd_4bit_intialize@lcd,lcd_4bit_send_command@lcd
  3269   00219A  0E38               	movlw	56
  3270   00219C  6E0E               	movwf	lcd_4bit_send_command@command^0,c
  3271   00219E  EC88  F015         	call	_lcd_4bit_send_command	;wreg free
  3272   0021A2                     
  3273                           ;ECU_Layer/Chr_LCD/ecu_chr_lcd.c: 40:         _delay((unsigned long)((150)*(8000000/4000
      +                          000.0)));
  3274   0021A2  0E64               	movlw	100
  3275   0021A4                     u8457:
  3276   0021A4  2EE8               	decfsz	wreg,f,c
  3277   0021A6  D7FE               	bra	u8457
  3278   0021A8  C010  F00D         	movff	lcd_4bit_intialize@lcd,lcd_4bit_send_command@lcd
  3279   0021AC  0E38               	movlw	56
  3280   0021AE  6E0E               	movwf	lcd_4bit_send_command@command^0,c
  3281   0021B0  EC88  F015         	call	_lcd_4bit_send_command	;wreg free
  3282   0021B4  C010  F00D         	movff	lcd_4bit_intialize@lcd,lcd_4bit_send_command@lcd
  3283   0021B8  0E01               	movlw	1
  3284   0021BA  6E0E               	movwf	lcd_4bit_send_command@command^0,c
  3285   0021BC  EC88  F015         	call	_lcd_4bit_send_command	;wreg free
  3286   0021C0  C010  F00D         	movff	lcd_4bit_intialize@lcd,lcd_4bit_send_command@lcd
  3287   0021C4  0E02               	movlw	2
  3288   0021C6  6E0E               	movwf	lcd_4bit_send_command@command^0,c
  3289   0021C8  EC88  F015         	call	_lcd_4bit_send_command	;wreg free
  3290   0021CC  C010  F00D         	movff	lcd_4bit_intialize@lcd,lcd_4bit_send_command@lcd
  3291   0021D0  0E06               	movlw	6
  3292   0021D2  6E0E               	movwf	lcd_4bit_send_command@command^0,c
  3293   0021D4  EC88  F015         	call	_lcd_4bit_send_command	;wreg free
  3294   0021D8  C010  F00D         	movff	lcd_4bit_intialize@lcd,lcd_4bit_send_command@lcd
  3295   0021DC  0E0C               	movlw	12
  3296   0021DE  6E0E               	movwf	lcd_4bit_send_command@command^0,c
  3297   0021E0  EC88  F015         	call	_lcd_4bit_send_command	;wreg free
  3298   0021E4  C010  F00D         	movff	lcd_4bit_intialize@lcd,lcd_4bit_send_command@lcd
  3299   0021E8  0E28               	movlw	40
  3300   0021EA  6E0E               	movwf	lcd_4bit_send_command@command^0,c
  3301   0021EC  EC88  F015         	call	_lcd_4bit_send_command	;wreg free
  3302   0021F0                     
  3303                           ;ECU_Layer/Chr_LCD/ecu_chr_lcd.c: 48:         ret = lcd_4bit_send_command(lcd, 0x80);
  3304   0021F0  C010  F00D         	movff	lcd_4bit_intialize@lcd,lcd_4bit_send_command@lcd
  3305   0021F4  0E80               	movlw	128
  3306   0021F6  6E0E               	movwf	lcd_4bit_send_command@command^0,c
  3307   0021F8  EC88  F015         	call	_lcd_4bit_send_command	;wreg free
  3308   0021FC  6E13               	movwf	lcd_4bit_intialize@ret^0,c
  3309   0021FE                     l7647:
  3310                           
  3311                           ;ECU_Layer/Chr_LCD/ecu_chr_lcd.c: 50:     return ret;
  3312   0021FE  5013               	movf	lcd_4bit_intialize@ret^0,w,c
  3313   002200  0012               	return		;funcret
  3314   002202                     __end_of_lcd_4bit_intialize:
  3315                           	callstack 0
  3316                           
  3317 ;; *************** function _dc_motor_initialize *****************
  3318 ;; Defined at:
  3319 ;;		line 17 in file "ECU_Layer/DC_Motor/ecu_dc_motor.c"
  3320 ;; Parameters:    Size  Location     Type
  3321 ;;  _dc_motor       1   12[COMRAM] PTR const struct .
  3322 ;;		 -> dc_motor_2(2), dc_motor_1(2), 
  3323 ;; Auto vars:     Size  Location     Type
  3324 ;;  ret             1   13[COMRAM] unsigned char 
  3325 ;; Return value:  Size  Location     Type
  3326 ;;                  1    wreg      unsigned char 
  3327 ;; Registers used:
  3328 ;;		wreg, fsr2l, fsr2h, status,2, status,0, prodl, prodh, cstack
  3329 ;; Tracked objects:
  3330 ;;		On entry : 0/0
  3331 ;;		On exit  : 0/0
  3332 ;;		Unchanged: 0/0
  3333 ;; Data sizes:     COMRAM   BANK0   BANK1   BANK2   BANK3   BANK4   BANK5   BANK6   BANK7   BANK8   BANK9  BANK10  BANK1
      +1  BANK12  BANK13  BANK14  BANK15
  3334 ;;      Params:         1       0       0       0       0       0       0       0       0       0       0       0       
      +0       0       0       0       0
  3335 ;;      Locals:         1       0       0       0       0       0       0       0       0       0       0       0       
      +0       0       0       0       0
  3336 ;;      Temps:          0       0       0       0       0       0       0       0       0       0       0       0       
      +0       0       0       0       0
  3337 ;;      Totals:         2       0       0       0       0       0       0       0       0       0       0       0       
      +0       0       0       0       0
  3338 ;;Total ram usage:        2 bytes
  3339 ;; Hardware stack levels used: 1
  3340 ;; Hardware stack levels required when called: 4
  3341 ;; This function calls:
  3342 ;;		_gpio_pin_initialize
  3343 ;; This function is called by:
  3344 ;;		_ecu_layer_intialize
  3345 ;; This function uses a non-reentrant model
  3346 ;;
  3347                           
  3348                           	psect	text19
  3349   002E58                     __ptext19:
  3350                           	callstack 0
  3351   002E58                     _dc_motor_initialize:
  3352                           	callstack 24
  3353   002E58                     
  3354                           ;ECU_Layer/DC_Motor/ecu_dc_motor.c: 18:      std_ReturnType ret = (std_ReturnType) 0x01;
  3355   002E58  0E01               	movlw	1
  3356   002E5A  6E0E               	movwf	dc_motor_initialize@ret^0,c
  3357                           
  3358                           ;ECU_Layer/DC_Motor/ecu_dc_motor.c: 19:      if(((void*)0) == _dc_motor){
  3359   002E5C  500D               	movf	dc_motor_initialize@_dc_motor^0,w,c
  3360   002E5E  A4D8               	btfss	status,2,c
  3361   002E60  EF34  F017         	goto	u7021
  3362   002E64  EF36  F017         	goto	u7020
  3363   002E68                     u7021:
  3364   002E68  EF3A  F017         	goto	l7691
  3365   002E6C                     u7020:
  3366   002E6C                     
  3367                           ;ECU_Layer/DC_Motor/ecu_dc_motor.c: 20:         ret = (std_ReturnType) 0x00;
  3368   002E6C  0E00               	movlw	0
  3369   002E6E  6E0E               	movwf	dc_motor_initialize@ret^0,c
  3370                           
  3371                           ;ECU_Layer/DC_Motor/ecu_dc_motor.c: 21:     }
  3372   002E70  EF42  F017         	goto	l7693
  3373   002E74                     l7691:
  3374                           
  3375                           ;ECU_Layer/DC_Motor/ecu_dc_motor.c: 23:         gpio_pin_initialize(&(_dc_motor->dc_moto
      +                          r_pin[0x00U]));
  3376   002E74  C00D  F00A         	movff	dc_motor_initialize@_dc_motor,gpio_pin_initialize@_pin_config
  3377   002E78  EC59  F015         	call	_gpio_pin_initialize	;wreg free
  3378                           
  3379                           ;ECU_Layer/DC_Motor/ecu_dc_motor.c: 24:         gpio_pin_initialize(&(_dc_motor->dc_moto
      +                          r_pin[0x01U]));
  3380   002E7C  280D               	incf	dc_motor_initialize@_dc_motor^0,w,c
  3381   002E7E  6E0A               	movwf	gpio_pin_initialize@_pin_config^0,c
  3382   002E80  EC59  F015         	call	_gpio_pin_initialize	;wreg free
  3383   002E84                     l7693:
  3384                           
  3385                           ;ECU_Layer/DC_Motor/ecu_dc_motor.c: 26:      return ret;
  3386   002E84  500E               	movf	dc_motor_initialize@ret^0,w,c
  3387   002E86  0012               	return		;funcret
  3388   002E88                     __end_of_dc_motor_initialize:
  3389                           	callstack 0
  3390                           
  3391 ;; *************** function _gpio_pin_initialize *****************
  3392 ;; Defined at:
  3393 ;;		line 149 in file "MCAL_Layer/GPIO/hal_gpio.c"
  3394 ;; Parameters:    Size  Location     Type
  3395 ;;  _pin_config     1    9[COMRAM] PTR const struct .
  3396 ;;		 -> dc_motor_2$dc_motor_pin(2), dc_motor_2(2), dc_motor_1$dc_motor_pin(2), dc_motor_1(2), 
  3397 ;;		 -> relay_initialize@pin_obj(1), 
  3398 ;; Auto vars:     Size  Location     Type
  3399 ;;  ret             1   11[COMRAM] unsigned char 
  3400 ;; Return value:  Size  Location     Type
  3401 ;;                  1    wreg      unsigned char 
  3402 ;; Registers used:
  3403 ;;		wreg, fsr2l, fsr2h, status,2, status,0, prodl, prodh, cstack
  3404 ;; Tracked objects:
  3405 ;;		On entry : 0/0
  3406 ;;		On exit  : 0/0
  3407 ;;		Unchanged: 0/0
  3408 ;; Data sizes:     COMRAM   BANK0   BANK1   BANK2   BANK3   BANK4   BANK5   BANK6   BANK7   BANK8   BANK9  BANK10  BANK1
      +1  BANK12  BANK13  BANK14  BANK15
  3409 ;;      Params:         1       0       0       0       0       0       0       0       0       0       0       0       
      +0       0       0       0       0
  3410 ;;      Locals:         1       0       0       0       0       0       0       0       0       0       0       0       
      +0       0       0       0       0
  3411 ;;      Temps:          1       0       0       0       0       0       0       0       0       0       0       0       
      +0       0       0       0       0
  3412 ;;      Totals:         3       0       0       0       0       0       0       0       0       0       0       0       
      +0       0       0       0       0
  3413 ;;Total ram usage:        3 bytes
  3414 ;; Hardware stack levels used: 1
  3415 ;; Hardware stack levels required when called: 3
  3416 ;; This function calls:
  3417 ;;		_gpio_pin_direction_initialize
  3418 ;;		_gpio_pin_write_logic
  3419 ;; This function is called by:
  3420 ;;		_dc_motor_initialize
  3421 ;;		_seven_segement_intialize
  3422 ;;		_keypad_initialize
  3423 ;;		_relay_initialize
  3424 ;; This function uses a non-reentrant model
  3425 ;;
  3426                           
  3427                           	psect	text20
  3428   002AB2                     __ptext20:
  3429                           	callstack 0
  3430   002AB2                     _gpio_pin_initialize:
  3431                           	callstack 24
  3432   002AB2                     
  3433                           ;MCAL_Layer/GPIO/hal_gpio.c: 150:     std_ReturnType ret = (std_ReturnType) 0x01 ;
  3434   002AB2  0E01               	movlw	1
  3435   002AB4  6E0C               	movwf	gpio_pin_initialize@ret^0,c
  3436                           
  3437                           ;MCAL_Layer/GPIO/hal_gpio.c: 151:         if (((void*)0) == _pin_config || _pin_config->
      +                          pin > 5 -1){
  3438   002AB6  500A               	movf	gpio_pin_initialize@_pin_config^0,w,c
  3439   002AB8  B4D8               	btfsc	status,2,c
  3440   002ABA  EF61  F015         	goto	u6821
  3441   002ABE  EF63  F015         	goto	u6820
  3442   002AC2                     u6821:
  3443   002AC2  EF73  F015         	goto	l7493
  3444   002AC6                     u6820:
  3445   002AC6  500A               	movf	gpio_pin_initialize@_pin_config^0,w,c
  3446   002AC8  6ED9               	movwf	fsr2l,c
  3447   002ACA  6ADA               	clrf	fsr2h,c
  3448   002ACC  30DF               	rrcf	223,w,c
  3449   002ACE  32E8               	rrcf	wreg,f,c
  3450   002AD0  32E8               	rrcf	wreg,f,c
  3451   002AD2  0B07               	andlw	7
  3452   002AD4  6E0B               	movwf	??_gpio_pin_initialize^0,c
  3453   002AD6  0E04               	movlw	4
  3454   002AD8  640B               	cpfsgt	??_gpio_pin_initialize^0,c
  3455   002ADA  EF71  F015         	goto	u6831
  3456   002ADE  EF73  F015         	goto	u6830
  3457   002AE2                     u6831:
  3458   002AE2  EF77  F015         	goto	l7495
  3459   002AE6                     u6830:
  3460   002AE6                     l7493:
  3461                           
  3462                           ;MCAL_Layer/GPIO/hal_gpio.c: 152:          ret = (std_ReturnType) 0x00;
  3463   002AE6  0E00               	movlw	0
  3464   002AE8  6E0C               	movwf	gpio_pin_initialize@ret^0,c
  3465                           
  3466                           ;MCAL_Layer/GPIO/hal_gpio.c: 153:     }
  3467   002AEA  EF86  F015         	goto	l7497
  3468   002AEE                     l7495:
  3469                           
  3470                           ;MCAL_Layer/GPIO/hal_gpio.c: 155:                  gpio_pin_direction_initialize(_pin_co
      +                          nfig);
  3471   002AEE  C00A  F002         	movff	gpio_pin_initialize@_pin_config,gpio_pin_direction_initialize@_pin_config
  3472   002AF2  ECF0  F00E         	call	_gpio_pin_direction_initialize	;wreg free
  3473                           
  3474                           ;MCAL_Layer/GPIO/hal_gpio.c: 156:                  gpio_pin_write_logic (_pin_config, _p
      +                          in_config->logic);
  3475   002AF6  C00A  F002         	movff	gpio_pin_initialize@_pin_config,gpio_pin_write_logic@_pin_config
  3476   002AFA  500A               	movf	gpio_pin_initialize@_pin_config^0,w,c
  3477   002AFC  6ED9               	movwf	fsr2l,c
  3478   002AFE  6ADA               	clrf	fsr2h,c
  3479   002B00  0E00               	movlw	0
  3480   002B02  BEDF               	btfsc	indf2,7,c
  3481   002B04  0E01               	movlw	1
  3482   002B06  6E03               	movwf	gpio_pin_write_logic@logic^0,c
  3483   002B08  EC83  F00F         	call	_gpio_pin_write_logic	;wreg free
  3484   002B0C                     l7497:
  3485                           
  3486                           ;MCAL_Layer/GPIO/hal_gpio.c: 158:     return ret ;
  3487   002B0C  500C               	movf	gpio_pin_initialize@ret^0,w,c
  3488   002B0E  0012               	return		;funcret
  3489   002B10                     __end_of_gpio_pin_initialize:
  3490                           	callstack 0
  3491                           
  3492 ;; *************** function _gpio_pin_direction_initialize *****************
  3493 ;; Defined at:
  3494 ;;		line 26 in file "MCAL_Layer/GPIO/hal_gpio.c"
  3495 ;; Parameters:    Size  Location     Type
  3496 ;;  _pin_config     1    1[COMRAM] PTR const struct .
  3497 ;;		 -> MSSP_SPI_Slave_Mode_GPIO_PIN_Configurations@SPI_SS(1), MSSP_SPI_Slave_Mode_GPIO_PIN_Configurations@SPI_CLK(1), M
      +SSP_SPI_Slave_Mode_GPIO_PIN_Configurations@SPI_SDI(1), MSSP_SPI_Slave_Mode_GPIO_PIN_Configurations@SPI_SDO(1), 
  3498 ;;		 -> MSSP_SPI_Msster_Mode_GPIO_PIN_Configurations@SPI_CLK(1), MSSP_SPI_Msster_Mode_GPIO_PIN_Configurations@SPI_SDI(1)
      +, MSSP_SPI_Msster_Mode_GPIO_PIN_Configurations@SPI_SDO(1), dc_motor_2$dc_motor_pin(2), 
  3499 ;;		 -> dc_motor_2(2), dc_motor_1$dc_motor_pin(2), dc_motor_1(2), lcd_1$lcd_data(4), 
  3500 ;;		 -> lcd_1(6), relay_initialize@pin_obj(1), led_initialize@pin_obj(1), 
  3501 ;; Auto vars:     Size  Location     Type
  3502 ;;  ret             1    7[COMRAM] unsigned char 
  3503 ;; Return value:  Size  Location     Type
  3504 ;;                  1    wreg      unsigned char 
  3505 ;; Registers used:
  3506 ;;		wreg, fsr2l, fsr2h, status,2, status,0, prodl, prodh
  3507 ;; Tracked objects:
  3508 ;;		On entry : 0/0
  3509 ;;		On exit  : 0/0
  3510 ;;		Unchanged: 0/0
  3511 ;; Data sizes:     COMRAM   BANK0   BANK1   BANK2   BANK3   BANK4   BANK5   BANK6   BANK7   BANK8   BANK9  BANK10  BANK1
      +1  BANK12  BANK13  BANK14  BANK15
  3512 ;;      Params:         1       0       0       0       0       0       0       0       0       0       0       0       
      +0       0       0       0       0
  3513 ;;      Locals:         1       0       0       0       0       0       0       0       0       0       0       0       
      +0       0       0       0       0
  3514 ;;      Temps:          5       0       0       0       0       0       0       0       0       0       0       0       
      +0       0       0       0       0
  3515 ;;      Totals:         7       0       0       0       0       0       0       0       0       0       0       0       
      +0       0       0       0       0
  3516 ;;Total ram usage:        7 bytes
  3517 ;; Hardware stack levels used: 1
  3518 ;; Hardware stack levels required when called: 2
  3519 ;; This function calls:
  3520 ;;		Nothing
  3521 ;; This function is called by:
  3522 ;;		_lcd_4bit_intialize
  3523 ;;		_led_initialize
  3524 ;;		_gpio_pin_initialize
  3525 ;;		_button_initialize
  3526 ;;		_lcd_8bit_intialize
  3527 ;;		_keypad_initialize
  3528 ;;		_CCP_Init
  3529 ;;		_Interrupt_RBx_Init
  3530 ;;		_Interrupt_INTx_Pin_Init
  3531 ;;		_MSSP_SPI_Msster_Mode_GPIO_PIN_Configurations
  3532 ;;		_MSSP_SPI_Slave_Mode_GPIO_PIN_Configurations
  3533 ;; This function uses a non-reentrant model
  3534 ;;
  3535                           
  3536                           	psect	text21
  3537   001DE0                     __ptext21:
  3538                           	callstack 0
  3539   001DE0                     _gpio_pin_direction_initialize:
  3540                           	callstack 25
  3541   001DE0                     
  3542                           ;MCAL_Layer/GPIO/hal_gpio.c: 27:     std_ReturnType ret = (std_ReturnType) 0x01;
  3543   001DE0  0E01               	movlw	1
  3544   001DE2  6E08               	movwf	gpio_pin_direction_initialize@ret^0,c
  3545                           
  3546                           ;MCAL_Layer/GPIO/hal_gpio.c: 28:     if (((void*)0) == _pin_config || _pin_config->pin >
      +                          8 -1 ){
  3547   001DE4  5002               	movf	gpio_pin_direction_initialize@_pin_config^0,w,c
  3548   001DE6  B4D8               	btfsc	status,2,c
  3549   001DE8  EFF8  F00E         	goto	u6591
  3550   001DEC  EFFA  F00E         	goto	u6590
  3551   001DF0                     u6591:
  3552   001DF0  EF0A  F00F         	goto	l7349
  3553   001DF4                     u6590:
  3554   001DF4  5002               	movf	gpio_pin_direction_initialize@_pin_config^0,w,c
  3555   001DF6  6ED9               	movwf	fsr2l,c
  3556   001DF8  6ADA               	clrf	fsr2h,c
  3557   001DFA  30DF               	rrcf	223,w,c
  3558   001DFC  32E8               	rrcf	wreg,f,c
  3559   001DFE  32E8               	rrcf	wreg,f,c
  3560   001E00  0B07               	andlw	7
  3561   001E02  6E03               	movwf	??_gpio_pin_direction_initialize^0,c
  3562   001E04  0E07               	movlw	7
  3563   001E06  6403               	cpfsgt	??_gpio_pin_direction_initialize^0,c
  3564   001E08  EF08  F00F         	goto	u6601
  3565   001E0C  EF0A  F00F         	goto	u6600
  3566   001E10                     u6601:
  3567   001E10  EF61  F00F         	goto	l7357
  3568   001E14                     u6600:
  3569   001E14                     l7349:
  3570                           
  3571                           ;MCAL_Layer/GPIO/hal_gpio.c: 29:         ret = (std_ReturnType) 0x00 ;
  3572   001E14  0E00               	movlw	0
  3573   001E16  6E08               	movwf	gpio_pin_direction_initialize@ret^0,c
  3574                           
  3575                           ;MCAL_Layer/GPIO/hal_gpio.c: 30:     }
  3576   001E18  EF81  F00F         	goto	l7359
  3577   001E1C                     l7351:
  3578                           
  3579                           ;MCAL_Layer/GPIO/hal_gpio.c: 34:                 (*tris_registers[_pin_config->port] &= 
      +                          ~((uint8)1 << _pin_config->pin));
  3580   001E1C  5002               	movf	gpio_pin_direction_initialize@_pin_config^0,w,c
  3581   001E1E  6ED9               	movwf	fsr2l,c
  3582   001E20  6ADA               	clrf	fsr2h,c
  3583   001E22  30DF               	rrcf	223,w,c
  3584   001E24  32E8               	rrcf	wreg,f,c
  3585   001E26  32E8               	rrcf	wreg,f,c
  3586   001E28  0B07               	andlw	7
  3587   001E2A  6E03               	movwf	??_gpio_pin_direction_initialize^0,c
  3588   001E2C  0E01               	movlw	1
  3589   001E2E  6E04               	movwf	(??_gpio_pin_direction_initialize+1)^0,c
  3590   001E30  2A03               	incf	??_gpio_pin_direction_initialize^0,f,c
  3591   001E32  EF1D  F00F         	goto	u6614
  3592   001E36                     u6615:
  3593   001E36  90D8               	bcf	status,0,c
  3594   001E38  3604               	rlcf	(??_gpio_pin_direction_initialize+1)^0,f,c
  3595   001E3A                     u6614:
  3596   001E3A  2E03               	decfsz	??_gpio_pin_direction_initialize^0,f,c
  3597   001E3C  EF1B  F00F         	goto	u6615
  3598   001E40  5004               	movf	(??_gpio_pin_direction_initialize+1)^0,w,c
  3599   001E42  0AFF               	xorlw	255
  3600   001E44  6E05               	movwf	(??_gpio_pin_direction_initialize+2)^0,c
  3601   001E46  5002               	movf	gpio_pin_direction_initialize@_pin_config^0,w,c
  3602   001E48  6ED9               	movwf	fsr2l,c
  3603   001E4A  6ADA               	clrf	fsr2h,c
  3604   001E4C  50DF               	movf	223,w,c
  3605   001E4E  0B07               	andlw	7
  3606   001E50  0D02               	mullw	2
  3607   001E52  50F3               	movf	243,w,c
  3608   001E54  0FD1               	addlw	low _tris_registers
  3609   001E56  6ED9               	movwf	fsr2l,c
  3610   001E58  6ADA               	clrf	fsr2h,c
  3611   001E5A  CFDE F006          	movff	postinc2,??_gpio_pin_direction_initialize+3
  3612   001E5E  CFDD F007          	movff	postdec2,??_gpio_pin_direction_initialize+4
  3613   001E62  C006  FFD9         	movff	??_gpio_pin_direction_initialize+3,fsr2l
  3614   001E66  C007  FFDA         	movff	??_gpio_pin_direction_initialize+4,fsr2h
  3615   001E6A  5005               	movf	(??_gpio_pin_direction_initialize+2)^0,w,c
  3616   001E6C  16DF               	andwf	indf2,f,c
  3617                           
  3618                           ;MCAL_Layer/GPIO/hal_gpio.c: 35:                 break;
  3619   001E6E  EF81  F00F         	goto	l7359
  3620   001E72                     l7353:
  3621                           
  3622                           ;MCAL_Layer/GPIO/hal_gpio.c: 37:                 (*tris_registers[_pin_config->port] |= 
      +                          ((uint8)1<<_pin_config->pin));
  3623   001E72  5002               	movf	gpio_pin_direction_initialize@_pin_config^0,w,c
  3624   001E74  6ED9               	movwf	fsr2l,c
  3625   001E76  6ADA               	clrf	fsr2h,c
  3626   001E78  30DF               	rrcf	223,w,c
  3627   001E7A  32E8               	rrcf	wreg,f,c
  3628   001E7C  32E8               	rrcf	wreg,f,c
  3629   001E7E  0B07               	andlw	7
  3630   001E80  6E03               	movwf	??_gpio_pin_direction_initialize^0,c
  3631   001E82  0E01               	movlw	1
  3632   001E84  6E04               	movwf	(??_gpio_pin_direction_initialize+1)^0,c
  3633   001E86  2A03               	incf	??_gpio_pin_direction_initialize^0,f,c
  3634   001E88  EF48  F00F         	goto	u6624
  3635   001E8C                     u6625:
  3636   001E8C  90D8               	bcf	status,0,c
  3637   001E8E  3604               	rlcf	(??_gpio_pin_direction_initialize+1)^0,f,c
  3638   001E90                     u6624:
  3639   001E90  2E03               	decfsz	??_gpio_pin_direction_initialize^0,f,c
  3640   001E92  EF46  F00F         	goto	u6625
  3641   001E96  5002               	movf	gpio_pin_direction_initialize@_pin_config^0,w,c
  3642   001E98  6ED9               	movwf	fsr2l,c
  3643   001E9A  6ADA               	clrf	fsr2h,c
  3644   001E9C  50DF               	movf	223,w,c
  3645   001E9E  0B07               	andlw	7
  3646   001EA0  0D02               	mullw	2
  3647   001EA2  50F3               	movf	243,w,c
  3648   001EA4  0FD1               	addlw	low _tris_registers
  3649   001EA6  6ED9               	movwf	fsr2l,c
  3650   001EA8  6ADA               	clrf	fsr2h,c
  3651   001EAA  CFDE F005          	movff	postinc2,??_gpio_pin_direction_initialize+2
  3652   001EAE  CFDD F006          	movff	postdec2,??_gpio_pin_direction_initialize+3
  3653   001EB2  C005  FFD9         	movff	??_gpio_pin_direction_initialize+2,fsr2l
  3654   001EB6  C006  FFDA         	movff	??_gpio_pin_direction_initialize+3,fsr2h
  3655   001EBA  5004               	movf	(??_gpio_pin_direction_initialize+1)^0,w,c
  3656   001EBC  12DF               	iorwf	indf2,f,c
  3657                           
  3658                           ;MCAL_Layer/GPIO/hal_gpio.c: 38:                 break;
  3659   001EBE  EF81  F00F         	goto	l7359
  3660   001EC2                     l7357:
  3661   001EC2  5002               	movf	gpio_pin_direction_initialize@_pin_config^0,w,c
  3662   001EC4  6ED9               	movwf	fsr2l,c
  3663   001EC6  6ADA               	clrf	fsr2h,c
  3664   001EC8  BCDF               	btfsc	indf2,6,c
  3665   001ECA  EF69  F00F         	goto	u6631
  3666   001ECE  EF6C  F00F         	goto	u6630
  3667   001ED2                     u6631:
  3668   001ED2  0E01               	movlw	1
  3669   001ED4  EF6D  F00F         	goto	u6640
  3670   001ED8                     u6630:
  3671   001ED8  0E00               	movlw	0
  3672   001EDA                     u6640:
  3673   001EDA  6E03               	movwf	??_gpio_pin_direction_initialize^0,c
  3674   001EDC  6A04               	clrf	(??_gpio_pin_direction_initialize+1)^0,c
  3675                           
  3676                           ; Switch on 2 bytes has been partitioned into a top level switch of size 1, and 1 sub-sw
      +                          itches
  3677                           ; Switch size 1, requested type "simple"
  3678                           ; Number of cases is 1, Range of values is 0 to 0
  3679                           ; switch strategies available:
  3680                           ; Name         Instructions Cycles
  3681                           ; simple_byte            4     3 (average)
  3682                           ;	Chosen strategy is simple_byte
  3683   001EDE  5004               	movf	(??_gpio_pin_direction_initialize+1)^0,w,c
  3684   001EE0  0A00               	xorlw	0	; case 0
  3685   001EE2  B4D8               	btfsc	status,2,c
  3686   001EE4  EF76  F00F         	goto	l9013
  3687   001EE8  EF0A  F00F         	goto	l7349
  3688   001EEC                     l9013:
  3689                           
  3690                           ; Switch size 1, requested type "simple"
  3691                           ; Number of cases is 2, Range of values is 0 to 1
  3692                           ; switch strategies available:
  3693                           ; Name         Instructions Cycles
  3694                           ; simple_byte            7     4 (average)
  3695                           ;	Chosen strategy is simple_byte
  3696   001EEC  5003               	movf	??_gpio_pin_direction_initialize^0,w,c
  3697   001EEE  0A00               	xorlw	0	; case 0
  3698   001EF0  B4D8               	btfsc	status,2,c
  3699   001EF2  EF0E  F00F         	goto	l7351
  3700   001EF6  0A01               	xorlw	1	; case 1
  3701   001EF8  B4D8               	btfsc	status,2,c
  3702   001EFA  EF39  F00F         	goto	l7353
  3703   001EFE  EF0A  F00F         	goto	l7349
  3704   001F02                     l7359:
  3705                           
  3706                           ;MCAL_Layer/GPIO/hal_gpio.c: 42:     return ret ;
  3707   001F02  5008               	movf	gpio_pin_direction_initialize@ret^0,w,c
  3708   001F04  0012               	return		;funcret
  3709   001F06                     __end_of_gpio_pin_direction_initialize:
  3710                           	callstack 0
  3711                           
  3712 ;; *************** function _ADC_Init *****************
  3713 ;; Defined at:
  3714 ;;		line 29 in file "MCAL_Layer/ADC/hal_adc.c"
  3715 ;; Parameters:    Size  Location     Type
  3716 ;;  _adc            1    4[COMRAM] PTR const struct .
  3717 ;;		 -> adc_1(7), 
  3718 ;; Auto vars:     Size  Location     Type
  3719 ;;  ret             1    6[COMRAM] unsigned char 
  3720 ;; Return value:  Size  Location     Type
  3721 ;;                  1    wreg      unsigned char 
  3722 ;; Registers used:
  3723 ;;		wreg, fsr2l, fsr2h, status,2, status,0, cstack
  3724 ;; Tracked objects:
  3725 ;;		On entry : 0/0
  3726 ;;		On exit  : 0/0
  3727 ;;		Unchanged: 0/0
  3728 ;; Data sizes:     COMRAM   BANK0   BANK1   BANK2   BANK3   BANK4   BANK5   BANK6   BANK7   BANK8   BANK9  BANK10  BANK1
      +1  BANK12  BANK13  BANK14  BANK15
  3729 ;;      Params:         1       0       0       0       0       0       0       0       0       0       0       0       
      +0       0       0       0       0
  3730 ;;      Locals:         1       0       0       0       0       0       0       0       0       0       0       0       
      +0       0       0       0       0
  3731 ;;      Temps:          1       0       0       0       0       0       0       0       0       0       0       0       
      +0       0       0       0       0
  3732 ;;      Totals:         3       0       0       0       0       0       0       0       0       0       0       0       
      +0       0       0       0       0
  3733 ;;Total ram usage:        3 bytes
  3734 ;; Hardware stack levels used: 1
  3735 ;; Hardware stack levels required when called: 3
  3736 ;; This function calls:
  3737 ;;		_adc_input_channel_port_configure
  3738 ;;		_configure_voltage_reference
  3739 ;;		_select_result_format
  3740 ;; This function is called by:
  3741 ;;		_ecu_layer_intialize
  3742 ;; This function uses a non-reentrant model
  3743 ;;
  3744                           
  3745                           	psect	text22
  3746   002506                     __ptext22:
  3747                           	callstack 0
  3748   002506                     _ADC_Init:
  3749                           	callstack 25
  3750   002506                     
  3751                           ;MCAL_Layer/ADC/hal_adc.c: 31:     if(((void*)0) == _adc){
  3752   002506  5005               	movf	ADC_Init@_adc^0,w,c
  3753   002508  A4D8               	btfss	status,2,c
  3754   00250A  EF89  F012         	goto	u7051
  3755   00250E  EF8B  F012         	goto	u7050
  3756   002512                     u7051:
  3757   002512  EF8F  F012         	goto	l373
  3758   002516                     u7050:
  3759   002516                     
  3760                           ;MCAL_Layer/ADC/hal_adc.c: 32:         ret = (std_ReturnType) 0x00;
  3761   002516  0E00               	movlw	0
  3762   002518  6E07               	movwf	ADC_Init@ret^0,c
  3763                           
  3764                           ;MCAL_Layer/ADC/hal_adc.c: 33:     }
  3765   00251A  EFD7  F012         	goto	l7739
  3766   00251E                     l373:
  3767                           
  3768                           ;MCAL_Layer/ADC/hal_adc.c: 36:         (ADCON0bits.ADON = 0);
  3769   00251E  90C2               	bcf	194,0,c	;volatile
  3770   002520                     
  3771                           ;MCAL_Layer/ADC/hal_adc.c: 38:         ADCON2bits.ACQT = _adc->acquisition_time;
  3772   002520  5005               	movf	ADC_Init@_adc^0,w,c
  3773   002522  6ED9               	movwf	fsr2l,c
  3774   002524  6ADA               	clrf	fsr2h,c
  3775   002526  0E03               	movlw	3
  3776   002528  26D9               	addwf	fsr2l,f,c
  3777   00252A  50DF               	movf	indf2,w,c
  3778   00252C  6E06               	movwf	??_ADC_Init^0,c
  3779   00252E  4606               	rlncf	??_ADC_Init^0,f,c
  3780   002530  4606               	rlncf	??_ADC_Init^0,f,c
  3781   002532  4606               	rlncf	??_ADC_Init^0,f,c
  3782   002534  50C0               	movf	192,w,c	;volatile
  3783   002536  1806               	xorwf	??_ADC_Init^0,w,c
  3784   002538  0BC7               	andlw	-57
  3785   00253A  1806               	xorwf	??_ADC_Init^0,w,c
  3786   00253C  6EC0               	movwf	192,c	;volatile
  3787                           
  3788                           ;MCAL_Layer/ADC/hal_adc.c: 40:         ADCON2bits.ADCS = _adc->conversion_clock;
  3789   00253E  5005               	movf	ADC_Init@_adc^0,w,c
  3790   002540  6ED9               	movwf	fsr2l,c
  3791   002542  6ADA               	clrf	fsr2h,c
  3792   002544  0E04               	movlw	4
  3793   002546  26D9               	addwf	fsr2l,f,c
  3794   002548  50DF               	movf	indf2,w,c
  3795   00254A  6E06               	movwf	??_ADC_Init^0,c
  3796   00254C  50C0               	movf	192,w,c	;volatile
  3797   00254E  1806               	xorwf	??_ADC_Init^0,w,c
  3798   002550  0BF8               	andlw	-8
  3799   002552  1806               	xorwf	??_ADC_Init^0,w,c
  3800   002554  6EC0               	movwf	192,c	;volatile
  3801                           
  3802                           ;MCAL_Layer/ADC/hal_adc.c: 42:         ADCON0bits.CHS = _adc->adc_channel;
  3803   002556  5005               	movf	ADC_Init@_adc^0,w,c
  3804   002558  6ED9               	movwf	fsr2l,c
  3805   00255A  6ADA               	clrf	fsr2h,c
  3806   00255C  0E05               	movlw	5
  3807   00255E  26D9               	addwf	fsr2l,f,c
  3808   002560  50DF               	movf	indf2,w,c
  3809   002562  6E06               	movwf	??_ADC_Init^0,c
  3810   002564  4606               	rlncf	??_ADC_Init^0,f,c
  3811   002566  4606               	rlncf	??_ADC_Init^0,f,c
  3812   002568  50C2               	movf	194,w,c	;volatile
  3813   00256A  1806               	xorwf	??_ADC_Init^0,w,c
  3814   00256C  0BC3               	andlw	-61
  3815   00256E  1806               	xorwf	??_ADC_Init^0,w,c
  3816   002570  6EC2               	movwf	194,c	;volatile
  3817   002572                     
  3818                           ;MCAL_Layer/ADC/hal_adc.c: 43:         adc_input_channel_port_configure(_adc->adc_channe
      +                          l);
  3819   002572  5005               	movf	ADC_Init@_adc^0,w,c
  3820   002574  6ED9               	movwf	fsr2l,c
  3821   002576  6ADA               	clrf	fsr2h,c
  3822   002578  0E05               	movlw	5
  3823   00257A  26D9               	addwf	fsr2l,f,c
  3824   00257C  50DF               	movf	indf2,w,c
  3825   00257E  EC01  F011         	call	_adc_input_channel_port_configure
  3826   002582                     
  3827                           ;MCAL_Layer/ADC/hal_adc.c: 46:         (INTCONbits.GIE = 1);
  3828   002582  8EF2               	bsf	242,7,c	;volatile
  3829   002584                     
  3830                           ;MCAL_Layer/ADC/hal_adc.c: 47:         (INTCONbits.PEIE = 1);
  3831   002584  8CF2               	bsf	242,6,c	;volatile
  3832   002586                     
  3833                           ;MCAL_Layer/ADC/hal_adc.c: 48:         (PIE1bits.ADIE = 1);
  3834   002586  8C9D               	bsf	157,6,c	;volatile
  3835   002588                     
  3836                           ;MCAL_Layer/ADC/hal_adc.c: 49:         (PIR1bits.ADIF = 0);
  3837   002588  9C9E               	bcf	158,6,c	;volatile
  3838   00258A                     
  3839                           ;MCAL_Layer/ADC/hal_adc.c: 61:         ADC_InterruptHandler = _adc->ADC_InterruptHandler
      +                          ;
  3840   00258A  5005               	movf	ADC_Init@_adc^0,w,c
  3841   00258C  6ED9               	movwf	fsr2l,c
  3842   00258E  6ADA               	clrf	fsr2h,c
  3843   002590  CFDE F061          	movff	postinc2,_ADC_InterruptHandler
  3844   002594  CFDD F062          	movff	postdec2,_ADC_InterruptHandler+1
  3845   002598                     
  3846                           ;MCAL_Layer/ADC/hal_adc.c: 64:         select_result_format(_adc);
  3847   002598  C005  F002         	movff	ADC_Init@_adc,select_result_format@_adc
  3848   00259C  EC6C  F016         	call	_select_result_format	;wreg free
  3849   0025A0                     
  3850                           ;MCAL_Layer/ADC/hal_adc.c: 66:         configure_voltage_reference(_adc);
  3851   0025A0  C005  F002         	movff	ADC_Init@_adc,configure_voltage_reference@_adc
  3852   0025A4  EC29  F016         	call	_configure_voltage_reference	;wreg free
  3853   0025A8                     
  3854                           ;MCAL_Layer/ADC/hal_adc.c: 68:         (ADCON0bits.ADON = 1);
  3855   0025A8  80C2               	bsf	194,0,c	;volatile
  3856   0025AA                     
  3857                           ;MCAL_Layer/ADC/hal_adc.c: 69:         ret = (std_ReturnType) 0x01;
  3858   0025AA  0E01               	movlw	1
  3859   0025AC  6E07               	movwf	ADC_Init@ret^0,c
  3860   0025AE                     l7739:
  3861                           
  3862                           ;MCAL_Layer/ADC/hal_adc.c: 71:     return ret;
  3863   0025AE  5007               	movf	ADC_Init@ret^0,w,c
  3864   0025B0  0012               	return		;funcret
  3865   0025B2                     __end_of_ADC_Init:
  3866                           	callstack 0
  3867                           
  3868 ;; *************** function _select_result_format *****************
  3869 ;; Defined at:
  3870 ;;		line 272 in file "MCAL_Layer/ADC/hal_adc.c"
  3871 ;; Parameters:    Size  Location     Type
  3872 ;;  _adc            1    1[COMRAM] PTR const struct .
  3873 ;;		 -> adc_1(7), 
  3874 ;; Auto vars:     Size  Location     Type
  3875 ;;		None
  3876 ;; Return value:  Size  Location     Type
  3877 ;;                  1    wreg      void 
  3878 ;; Registers used:
  3879 ;;		wreg, fsr2l, fsr2h, status,2, status,0
  3880 ;; Tracked objects:
  3881 ;;		On entry : 0/0
  3882 ;;		On exit  : 0/0
  3883 ;;		Unchanged: 0/0
  3884 ;; Data sizes:     COMRAM   BANK0   BANK1   BANK2   BANK3   BANK4   BANK5   BANK6   BANK7   BANK8   BANK9  BANK10  BANK1
      +1  BANK12  BANK13  BANK14  BANK15
  3885 ;;      Params:         1       0       0       0       0       0       0       0       0       0       0       0       
      +0       0       0       0       0
  3886 ;;      Locals:         0       0       0       0       0       0       0       0       0       0       0       0       
      +0       0       0       0       0
  3887 ;;      Temps:          0       0       0       0       0       0       0       0       0       0       0       0       
      +0       0       0       0       0
  3888 ;;      Totals:         1       0       0       0       0       0       0       0       0       0       0       0       
      +0       0       0       0       0
  3889 ;;Total ram usage:        1 bytes
  3890 ;; Hardware stack levels used: 1
  3891 ;; Hardware stack levels required when called: 2
  3892 ;; This function calls:
  3893 ;;		Nothing
  3894 ;; This function is called by:
  3895 ;;		_ADC_Init
  3896 ;; This function uses a non-reentrant model
  3897 ;;
  3898                           
  3899                           	psect	text23
  3900   002CD8                     __ptext23:
  3901                           	callstack 0
  3902   002CD8                     _select_result_format:
  3903                           	callstack 25
  3904   002CD8                     
  3905                           ;MCAL_Layer/ADC/hal_adc.c: 273:     if(0x01U == _adc->result_format){
  3906   002CD8  5002               	movf	select_result_format@_adc^0,w,c
  3907   002CDA  6ED9               	movwf	fsr2l,c
  3908   002CDC  6ADA               	clrf	fsr2h,c
  3909   002CDE  0E06               	movlw	6
  3910   002CE0  26D9               	addwf	fsr2l,f,c
  3911   002CE2  A2DF               	btfss	indf2,1,c
  3912   002CE4  EF76  F016         	goto	u6851
  3913   002CE8  EF78  F016         	goto	u6850
  3914   002CEC                     u6851:
  3915   002CEC  EF7B  F016         	goto	l7549
  3916   002CF0                     u6850:
  3917   002CF0                     
  3918                           ;MCAL_Layer/ADC/hal_adc.c: 274:         (ADCON2bits.ADFM = 1);
  3919   002CF0  8EC0               	bsf	192,7,c	;volatile
  3920                           
  3921                           ;MCAL_Layer/ADC/hal_adc.c: 275:     }
  3922   002CF2  EF8B  F016         	goto	l449
  3923   002CF6                     l7549:
  3924   002CF6  5002               	movf	select_result_format@_adc^0,w,c
  3925   002CF8  6ED9               	movwf	fsr2l,c
  3926   002CFA  6ADA               	clrf	fsr2h,c
  3927   002CFC  0E06               	movlw	6
  3928   002CFE  26D9               	addwf	fsr2l,f,c
  3929   002D00  B2DF               	btfsc	indf2,1,c
  3930   002D02  EF85  F016         	goto	u6861
  3931   002D06  EF87  F016         	goto	u6860
  3932   002D0A                     u6861:
  3933   002D0A  EF8A  F016         	goto	l447
  3934   002D0E                     u6860:
  3935   002D0E                     
  3936                           ;MCAL_Layer/ADC/hal_adc.c: 277:         (ADCON2bits.ADFM = 0);
  3937   002D0E  9EC0               	bcf	192,7,c	;volatile
  3938                           
  3939                           ;MCAL_Layer/ADC/hal_adc.c: 278:     }
  3940   002D10  EF8B  F016         	goto	l449
  3941   002D14                     l447:
  3942                           
  3943                           ;MCAL_Layer/ADC/hal_adc.c: 280:         (ADCON2bits.ADFM = 1);
  3944   002D14  8EC0               	bsf	192,7,c	;volatile
  3945   002D16                     l449:
  3946   002D16  0012               	return		;funcret
  3947   002D18                     __end_of_select_result_format:
  3948                           	callstack 0
  3949                           
  3950 ;; *************** function _configure_voltage_reference *****************
  3951 ;; Defined at:
  3952 ;;		line 284 in file "MCAL_Layer/ADC/hal_adc.c"
  3953 ;; Parameters:    Size  Location     Type
  3954 ;;  _adc            1    1[COMRAM] PTR const struct .
  3955 ;;		 -> adc_1(7), 
  3956 ;; Auto vars:     Size  Location     Type
  3957 ;;		None
  3958 ;; Return value:  Size  Location     Type
  3959 ;;                  1    wreg      void 
  3960 ;; Registers used:
  3961 ;;		wreg, fsr2l, fsr2h, status,2, status,0
  3962 ;; Tracked objects:
  3963 ;;		On entry : 0/0
  3964 ;;		On exit  : 0/0
  3965 ;;		Unchanged: 0/0
  3966 ;; Data sizes:     COMRAM   BANK0   BANK1   BANK2   BANK3   BANK4   BANK5   BANK6   BANK7   BANK8   BANK9  BANK10  BANK1
      +1  BANK12  BANK13  BANK14  BANK15
  3967 ;;      Params:         1       0       0       0       0       0       0       0       0       0       0       0       
      +0       0       0       0       0
  3968 ;;      Locals:         0       0       0       0       0       0       0       0       0       0       0       0       
      +0       0       0       0       0
  3969 ;;      Temps:          0       0       0       0       0       0       0       0       0       0       0       0       
      +0       0       0       0       0
  3970 ;;      Totals:         1       0       0       0       0       0       0       0       0       0       0       0       
      +0       0       0       0       0
  3971 ;;Total ram usage:        1 bytes
  3972 ;; Hardware stack levels used: 1
  3973 ;; Hardware stack levels required when called: 2
  3974 ;; This function calls:
  3975 ;;		Nothing
  3976 ;; This function is called by:
  3977 ;;		_ADC_Init
  3978 ;; This function uses a non-reentrant model
  3979 ;;
  3980                           
  3981                           	psect	text24
  3982   002C52                     __ptext24:
  3983                           	callstack 0
  3984   002C52                     _configure_voltage_reference:
  3985                           	callstack 25
  3986   002C52                     
  3987                           ;MCAL_Layer/ADC/hal_adc.c: 285:     if(0x01U == _adc->voltage_reference){
  3988   002C52  5002               	movf	configure_voltage_reference@_adc^0,w,c
  3989   002C54  6ED9               	movwf	fsr2l,c
  3990   002C56  6ADA               	clrf	fsr2h,c
  3991   002C58  0E06               	movlw	6
  3992   002C5A  26D9               	addwf	fsr2l,f,c
  3993   002C5C  A0DF               	btfss	indf2,0,c
  3994   002C5E  EF33  F016         	goto	u6871
  3995   002C62  EF35  F016         	goto	u6870
  3996   002C66                     u6871:
  3997   002C66  EF39  F016         	goto	l7555
  3998   002C6A                     u6870:
  3999   002C6A  8AC1               	bsf	193,5,c	;volatile
  4000   002C6C  88C1               	bsf	193,4,c	;volatile
  4001   002C6E  EF4B  F016         	goto	l462
  4002   002C72                     l7555:
  4003   002C72  5002               	movf	configure_voltage_reference@_adc^0,w,c
  4004   002C74  6ED9               	movwf	fsr2l,c
  4005   002C76  6ADA               	clrf	fsr2h,c
  4006   002C78  0E06               	movlw	6
  4007   002C7A  26D9               	addwf	fsr2l,f,c
  4008   002C7C  B0DF               	btfsc	indf2,0,c
  4009   002C7E  EF43  F016         	goto	u6881
  4010   002C82  EF45  F016         	goto	u6880
  4011   002C86                     u6881:
  4012   002C86  EF49  F016         	goto	l460
  4013   002C8A                     u6880:
  4014   002C8A  9AC1               	bcf	193,5,c	;volatile
  4015   002C8C  98C1               	bcf	193,4,c	;volatile
  4016   002C8E  EF4B  F016         	goto	l462
  4017   002C92                     l460:
  4018   002C92  9AC1               	bcf	193,5,c	;volatile
  4019   002C94  98C1               	bcf	193,4,c	;volatile
  4020   002C96                     l462:
  4021   002C96  0012               	return		;funcret
  4022   002C98                     __end_of_configure_voltage_reference:
  4023                           	callstack 0
  4024                           
  4025 ;; *************** function ___xxtofl *****************
  4026 ;; Defined at:
  4027 ;;		line 10 in file "C:\Program Files\Microchip\xc8\v2.45\pic\sources\c99\common\xxtofl.c"
  4028 ;; Parameters:    Size  Location     Type
  4029 ;;  sign            1    wreg     unsigned char 
  4030 ;;  val             4    1[COMRAM] long 
  4031 ;; Auto vars:     Size  Location     Type
  4032 ;;  sign            1    9[COMRAM] unsigned char 
  4033 ;;  arg             4   11[COMRAM] unsigned long 
  4034 ;;  exp             1   10[COMRAM] unsigned char 
  4035 ;; Return value:  Size  Location     Type
  4036 ;;                  4    1[COMRAM] unsigned char 
  4037 ;; Registers used:
  4038 ;;		wreg, status,2, status,0
  4039 ;; Tracked objects:
  4040 ;;		On entry : 0/0
  4041 ;;		On exit  : 0/0
  4042 ;;		Unchanged: 0/0
  4043 ;; Data sizes:     COMRAM   BANK0   BANK1   BANK2   BANK3   BANK4   BANK5   BANK6   BANK7   BANK8   BANK9  BANK10  BANK1
      +1  BANK12  BANK13  BANK14  BANK15
  4044 ;;      Params:         4       0       0       0       0       0       0       0       0       0       0       0       
      +0       0       0       0       0
  4045 ;;      Locals:         6       0       0       0       0       0       0       0       0       0       0       0       
      +0       0       0       0       0
  4046 ;;      Temps:          4       0       0       0       0       0       0       0       0       0       0       0       
      +0       0       0       0       0
  4047 ;;      Totals:        14       0       0       0       0       0       0       0       0       0       0       0       
      +0       0       0       0       0
  4048 ;;Total ram usage:       14 bytes
  4049 ;; Hardware stack levels used: 1
  4050 ;; Hardware stack levels required when called: 2
  4051 ;; This function calls:
  4052 ;;		Nothing
  4053 ;; This function is called by:
  4054 ;;		_main
  4055 ;;		_CCP_PWM_Set_Duty
  4056 ;;		_CCP_PWM_Mode_Config
  4057 ;;		_EUSART_Baud_Rate_Calculation
  4058 ;; This function uses a non-reentrant model
  4059 ;;
  4060                           
  4061                           	psect	text25
  4062   001C2C                     __ptext25:
  4063                           	callstack 0
  4064   001C2C                     ___xxtofl:
  4065                           	callstack 28
  4066                           
  4067                           ;incstack = 0
  4068                           ;___xxtofl@sign stored from wreg
  4069   001C2C  6E0A               	movwf	___xxtofl@sign^0,c
  4070   001C2E  500A               	movf	___xxtofl@sign^0,w,c
  4071   001C30  B4D8               	btfsc	status,2,c
  4072   001C32  EF1D  F00E         	goto	u7701
  4073   001C36  EF1F  F00E         	goto	u7700
  4074   001C3A                     u7701:
  4075   001C3A  EF41  F00E         	goto	l2224
  4076   001C3E                     u7700:
  4077   001C3E  BE05               	btfsc	(___xxtofl@val+3)^0,7,c
  4078   001C40  EF26  F00E         	goto	u7710
  4079   001C44  EF24  F00E         	goto	u7711
  4080   001C48                     u7711:
  4081   001C48  EF41  F00E         	goto	l2224
  4082   001C4C                     u7710:
  4083   001C4C  C002  F006         	movff	___xxtofl@val,??___xxtofl
  4084   001C50  C003  F007         	movff	___xxtofl@val+1,??___xxtofl+1
  4085   001C54  C004  F008         	movff	___xxtofl@val+2,??___xxtofl+2
  4086   001C58  C005  F009         	movff	___xxtofl@val+3,??___xxtofl+3
  4087   001C5C  1E06               	comf	??___xxtofl^0,f,c
  4088   001C5E  1E07               	comf	(??___xxtofl+1)^0,f,c
  4089   001C60  1E08               	comf	(??___xxtofl+2)^0,f,c
  4090   001C62  1E09               	comf	(??___xxtofl+3)^0,f,c
  4091   001C64  2A06               	incf	??___xxtofl^0,f,c
  4092   001C66  0E00               	movlw	0
  4093   001C68  2207               	addwfc	(??___xxtofl+1)^0,f,c
  4094   001C6A  2208               	addwfc	(??___xxtofl+2)^0,f,c
  4095   001C6C  2209               	addwfc	(??___xxtofl+3)^0,f,c
  4096   001C6E  C006  F00C         	movff	??___xxtofl,___xxtofl@arg
  4097   001C72  C007  F00D         	movff	??___xxtofl+1,___xxtofl@arg+1
  4098   001C76  C008  F00E         	movff	??___xxtofl+2,___xxtofl@arg+2
  4099   001C7A  C009  F00F         	movff	??___xxtofl+3,___xxtofl@arg+3
  4100   001C7E  EF49  F00E         	goto	l8257
  4101   001C82                     l2224:
  4102   001C82  C002  F00C         	movff	___xxtofl@val,___xxtofl@arg
  4103   001C86  C003  F00D         	movff	___xxtofl@val+1,___xxtofl@arg+1
  4104   001C8A  C004  F00E         	movff	___xxtofl@val+2,___xxtofl@arg+2
  4105   001C8E  C005  F00F         	movff	___xxtofl@val+3,___xxtofl@arg+3
  4106   001C92                     l8257:
  4107   001C92  5002               	movf	___xxtofl@val^0,w,c
  4108   001C94  1003               	iorwf	(___xxtofl@val+1)^0,w,c
  4109   001C96  1004               	iorwf	(___xxtofl@val+2)^0,w,c
  4110   001C98  1005               	iorwf	(___xxtofl@val+3)^0,w,c
  4111   001C9A  A4D8               	btfss	status,2,c
  4112   001C9C  EF52  F00E         	goto	u7721
  4113   001CA0  EF54  F00E         	goto	u7720
  4114   001CA4                     u7721:
  4115   001CA4  EF5E  F00E         	goto	l8263
  4116   001CA8                     u7720:
  4117   001CA8  0E00               	movlw	0
  4118   001CAA  6E02               	movwf	?___xxtofl^0,c
  4119   001CAC  0E00               	movlw	0
  4120   001CAE  6E03               	movwf	(?___xxtofl+1)^0,c
  4121   001CB0  0E00               	movlw	0
  4122   001CB2  6E04               	movwf	(?___xxtofl+2)^0,c
  4123   001CB4  0E00               	movlw	0
  4124   001CB6  6E05               	movwf	(?___xxtofl+3)^0,c
  4125   001CB8  EFEF  F00E         	goto	l2227
  4126   001CBC                     l8263:
  4127   001CBC  0E96               	movlw	150
  4128   001CBE  6E0B               	movwf	___xxtofl@exp^0,c
  4129   001CC0  EF68  F00E         	goto	l8267
  4130   001CC4                     l8265:
  4131   001CC4  2A0B               	incf	___xxtofl@exp^0,f,c
  4132   001CC6  90D8               	bcf	status,0,c
  4133   001CC8  320F               	rrcf	(___xxtofl@arg+3)^0,f,c
  4134   001CCA  320E               	rrcf	(___xxtofl@arg+2)^0,f,c
  4135   001CCC  320D               	rrcf	(___xxtofl@arg+1)^0,f,c
  4136   001CCE  320C               	rrcf	___xxtofl@arg^0,f,c
  4137   001CD0                     l8267:
  4138   001CD0  0E00               	movlw	0
  4139   001CD2  140C               	andwf	___xxtofl@arg^0,w,c
  4140   001CD4  6E06               	movwf	??___xxtofl^0,c
  4141   001CD6  0E00               	movlw	0
  4142   001CD8  140D               	andwf	(___xxtofl@arg+1)^0,w,c
  4143   001CDA  6E07               	movwf	(??___xxtofl+1)^0,c
  4144   001CDC  0E00               	movlw	0
  4145   001CDE  140E               	andwf	(___xxtofl@arg+2)^0,w,c
  4146   001CE0  6E08               	movwf	(??___xxtofl+2)^0,c
  4147   001CE2  0EFE               	movlw	254
  4148   001CE4  140F               	andwf	(___xxtofl@arg+3)^0,w,c
  4149   001CE6  6E09               	movwf	(??___xxtofl+3)^0,c
  4150   001CE8  5006               	movf	??___xxtofl^0,w,c
  4151   001CEA  1007               	iorwf	(??___xxtofl+1)^0,w,c
  4152   001CEC  1008               	iorwf	(??___xxtofl+2)^0,w,c
  4153   001CEE  1009               	iorwf	(??___xxtofl+3)^0,w,c
  4154   001CF0  A4D8               	btfss	status,2,c
  4155   001CF2  EF7D  F00E         	goto	u7731
  4156   001CF6  EF7F  F00E         	goto	u7730
  4157   001CFA                     u7731:
  4158   001CFA  EF62  F00E         	goto	l8265
  4159   001CFE                     u7730:
  4160   001CFE  EF8D  F00E         	goto	l2231
  4161   001D02                     l8269:
  4162   001D02  2A0B               	incf	___xxtofl@exp^0,f,c
  4163   001D04  0E01               	movlw	1
  4164   001D06  260C               	addwf	___xxtofl@arg^0,f,c
  4165   001D08  0E00               	movlw	0
  4166   001D0A  220D               	addwfc	(___xxtofl@arg+1)^0,f,c
  4167   001D0C  220E               	addwfc	(___xxtofl@arg+2)^0,f,c
  4168   001D0E  220F               	addwfc	(___xxtofl@arg+3)^0,f,c
  4169   001D10  90D8               	bcf	status,0,c
  4170   001D12  320F               	rrcf	(___xxtofl@arg+3)^0,f,c
  4171   001D14  320E               	rrcf	(___xxtofl@arg+2)^0,f,c
  4172   001D16  320D               	rrcf	(___xxtofl@arg+1)^0,f,c
  4173   001D18  320C               	rrcf	___xxtofl@arg^0,f,c
  4174   001D1A                     l2231:
  4175   001D1A  0E00               	movlw	0
  4176   001D1C  140C               	andwf	___xxtofl@arg^0,w,c
  4177   001D1E  6E06               	movwf	??___xxtofl^0,c
  4178   001D20  0E00               	movlw	0
  4179   001D22  140D               	andwf	(___xxtofl@arg+1)^0,w,c
  4180   001D24  6E07               	movwf	(??___xxtofl+1)^0,c
  4181   001D26  0E00               	movlw	0
  4182   001D28  140E               	andwf	(___xxtofl@arg+2)^0,w,c
  4183   001D2A  6E08               	movwf	(??___xxtofl+2)^0,c
  4184   001D2C  0EFF               	movlw	255
  4185   001D2E  140F               	andwf	(___xxtofl@arg+3)^0,w,c
  4186   001D30  6E09               	movwf	(??___xxtofl+3)^0,c
  4187   001D32  5006               	movf	??___xxtofl^0,w,c
  4188   001D34  1007               	iorwf	(??___xxtofl+1)^0,w,c
  4189   001D36  1008               	iorwf	(??___xxtofl+2)^0,w,c
  4190   001D38  1009               	iorwf	(??___xxtofl+3)^0,w,c
  4191   001D3A  A4D8               	btfss	status,2,c
  4192   001D3C  EFA2  F00E         	goto	u7741
  4193   001D40  EFA4  F00E         	goto	u7740
  4194   001D44                     u7741:
  4195   001D44  EF81  F00E         	goto	l8269
  4196   001D48                     u7740:
  4197   001D48  EFAC  F00E         	goto	l8277
  4198   001D4C                     l8275:
  4199   001D4C  060B               	decf	___xxtofl@exp^0,f,c
  4200   001D4E  90D8               	bcf	status,0,c
  4201   001D50  360C               	rlcf	___xxtofl@arg^0,f,c
  4202   001D52  360D               	rlcf	(___xxtofl@arg+1)^0,f,c
  4203   001D54  360E               	rlcf	(___xxtofl@arg+2)^0,f,c
  4204   001D56  360F               	rlcf	(___xxtofl@arg+3)^0,f,c
  4205   001D58                     l8277:
  4206   001D58  BE0E               	btfsc	(___xxtofl@arg+2)^0,7,c
  4207   001D5A  EFB1  F00E         	goto	u7751
  4208   001D5E  EFB3  F00E         	goto	u7750
  4209   001D62                     u7751:
  4210   001D62  EFBB  F00E         	goto	l2238
  4211   001D66                     u7750:
  4212   001D66  0E02               	movlw	2
  4213   001D68  600B               	cpfslt	___xxtofl@exp^0,c
  4214   001D6A  EFB9  F00E         	goto	u7761
  4215   001D6E  EFBB  F00E         	goto	u7760
  4216   001D72                     u7761:
  4217   001D72  EFA6  F00E         	goto	l8275
  4218   001D76                     u7760:
  4219   001D76                     l2238:
  4220   001D76  B00B               	btfsc	___xxtofl@exp^0,0,c
  4221   001D78  EFC0  F00E         	goto	u7771
  4222   001D7C  EFC2  F00E         	goto	u7770
  4223   001D80                     u7771:
  4224   001D80  EFC3  F00E         	goto	l8283
  4225   001D84                     u7770:
  4226   001D84  9E0E               	bcf	(___xxtofl@arg+2)^0,7,c
  4227   001D86                     l8283:
  4228   001D86  90D8               	bcf	status,0,c
  4229   001D88  320B               	rrcf	___xxtofl@exp^0,f,c
  4230   001D8A  C00B  F006         	movff	___xxtofl@exp,??___xxtofl
  4231   001D8E  6A07               	clrf	(??___xxtofl+1)^0,c
  4232   001D90  6A08               	clrf	(??___xxtofl+2)^0,c
  4233   001D92  6A09               	clrf	(??___xxtofl+3)^0,c
  4234   001D94  C006  F009         	movff	??___xxtofl,??___xxtofl+3
  4235   001D98  6A08               	clrf	(??___xxtofl+2)^0,c
  4236   001D9A  6A07               	clrf	(??___xxtofl+1)^0,c
  4237   001D9C  6A06               	clrf	??___xxtofl^0,c
  4238   001D9E  5006               	movf	??___xxtofl^0,w,c
  4239   001DA0  120C               	iorwf	___xxtofl@arg^0,f,c
  4240   001DA2  5007               	movf	(??___xxtofl+1)^0,w,c
  4241   001DA4  120D               	iorwf	(___xxtofl@arg+1)^0,f,c
  4242   001DA6  5008               	movf	(??___xxtofl+2)^0,w,c
  4243   001DA8  120E               	iorwf	(___xxtofl@arg+2)^0,f,c
  4244   001DAA  5009               	movf	(??___xxtofl+3)^0,w,c
  4245   001DAC  120F               	iorwf	(___xxtofl@arg+3)^0,f,c
  4246   001DAE  500A               	movf	___xxtofl@sign^0,w,c
  4247   001DB0  B4D8               	btfsc	status,2,c
  4248   001DB2  EFDD  F00E         	goto	u7781
  4249   001DB6  EFDF  F00E         	goto	u7780
  4250   001DBA                     u7781:
  4251   001DBA  EFE7  F00E         	goto	l8293
  4252   001DBE                     u7780:
  4253   001DBE  BE05               	btfsc	(___xxtofl@val+3)^0,7,c
  4254   001DC0  EFE6  F00E         	goto	u7790
  4255   001DC4  EFE4  F00E         	goto	u7791
  4256   001DC8                     u7791:
  4257   001DC8  EFE7  F00E         	goto	l8293
  4258   001DCC                     u7790:
  4259   001DCC  8E0F               	bsf	(___xxtofl@arg+3)^0,7,c
  4260   001DCE                     l8293:
  4261   001DCE  C00C  F002         	movff	___xxtofl@arg,?___xxtofl
  4262   001DD2  C00D  F003         	movff	___xxtofl@arg+1,?___xxtofl+1
  4263   001DD6  C00E  F004         	movff	___xxtofl@arg+2,?___xxtofl+2
  4264   001DDA  C00F  F005         	movff	___xxtofl@arg+3,?___xxtofl+3
  4265   001DDE                     l2227:
  4266   001DDE  0012               	return		;funcret
  4267   001DE0                     __end_of___xxtofl:
  4268                           	callstack 0
  4269                           
  4270 ;; *************** function ___lwdiv *****************
  4271 ;; Defined at:
  4272 ;;		line 7 in file "C:\Program Files\Microchip\xc8\v2.45\pic\sources\c99\common\lwdiv.c"
  4273 ;; Parameters:    Size  Location     Type
  4274 ;;  dividend        2    1[COMRAM] unsigned int 
  4275 ;;  divisor         2    3[COMRAM] unsigned int 
  4276 ;; Auto vars:     Size  Location     Type
  4277 ;;  quotient        2    6[COMRAM] unsigned int 
  4278 ;;  counter         1    5[COMRAM] unsigned char 
  4279 ;; Return value:  Size  Location     Type
  4280 ;;                  2    1[COMRAM] unsigned int 
  4281 ;; Registers used:
  4282 ;;		wreg, status,2, status,0
  4283 ;; Tracked objects:
  4284 ;;		On entry : 0/0
  4285 ;;		On exit  : 0/0
  4286 ;;		Unchanged: 0/0
  4287 ;; Data sizes:     COMRAM   BANK0   BANK1   BANK2   BANK3   BANK4   BANK5   BANK6   BANK7   BANK8   BANK9  BANK10  BANK1
      +1  BANK12  BANK13  BANK14  BANK15
  4288 ;;      Params:         4       0       0       0       0       0       0       0       0       0       0       0       
      +0       0       0       0       0
  4289 ;;      Locals:         3       0       0       0       0       0       0       0       0       0       0       0       
      +0       0       0       0       0
  4290 ;;      Temps:          0       0       0       0       0       0       0       0       0       0       0       0       
      +0       0       0       0       0
  4291 ;;      Totals:         7       0       0       0       0       0       0       0       0       0       0       0       
      +0       0       0       0       0
  4292 ;;Total ram usage:        7 bytes
  4293 ;; Hardware stack levels used: 1
  4294 ;; Hardware stack levels required when called: 2
  4295 ;; This function calls:
  4296 ;;		Nothing
  4297 ;; This function is called by:
  4298 ;;		_main
  4299 ;; This function uses a non-reentrant model
  4300 ;;
  4301                           
  4302                           	psect	text26
  4303   00290C                     __ptext26:
  4304                           	callstack 0
  4305   00290C                     ___lwdiv:
  4306                           	callstack 28
  4307   00290C  0E00               	movlw	0
  4308   00290E  6E08               	movwf	(___lwdiv@quotient+1)^0,c
  4309   002910  0E00               	movlw	0
  4310   002912  6E07               	movwf	___lwdiv@quotient^0,c
  4311   002914  5004               	movf	___lwdiv@divisor^0,w,c
  4312   002916  1005               	iorwf	(___lwdiv@divisor+1)^0,w,c
  4313   002918  B4D8               	btfsc	status,2,c
  4314   00291A  EF91  F014         	goto	u7671
  4315   00291E  EF93  F014         	goto	u7670
  4316   002922                     u7671:
  4317   002922  EFBB  F014         	goto	l2060
  4318   002926                     u7670:
  4319   002926  0E01               	movlw	1
  4320   002928  6E06               	movwf	___lwdiv@counter^0,c
  4321   00292A  EF9B  F014         	goto	l8237
  4322   00292E                     l8235:
  4323   00292E  90D8               	bcf	status,0,c
  4324   002930  3604               	rlcf	___lwdiv@divisor^0,f,c
  4325   002932  3605               	rlcf	(___lwdiv@divisor+1)^0,f,c
  4326   002934  2A06               	incf	___lwdiv@counter^0,f,c
  4327   002936                     l8237:
  4328   002936  AE05               	btfss	(___lwdiv@divisor+1)^0,7,c
  4329   002938  EFA0  F014         	goto	u7681
  4330   00293C  EFA2  F014         	goto	u7680
  4331   002940                     u7681:
  4332   002940  EF97  F014         	goto	l8235
  4333   002944                     u7680:
  4334   002944                     l8239:
  4335   002944  90D8               	bcf	status,0,c
  4336   002946  3607               	rlcf	___lwdiv@quotient^0,f,c
  4337   002948  3608               	rlcf	(___lwdiv@quotient+1)^0,f,c
  4338   00294A  5004               	movf	___lwdiv@divisor^0,w,c
  4339   00294C  5C02               	subwf	___lwdiv@dividend^0,w,c
  4340   00294E  5005               	movf	(___lwdiv@divisor+1)^0,w,c
  4341   002950  5803               	subwfb	(___lwdiv@dividend+1)^0,w,c
  4342   002952  A0D8               	btfss	status,0,c
  4343   002954  EFAE  F014         	goto	u7691
  4344   002958  EFB0  F014         	goto	u7690
  4345   00295C                     u7691:
  4346   00295C  EFB5  F014         	goto	l8247
  4347   002960                     u7690:
  4348   002960  5004               	movf	___lwdiv@divisor^0,w,c
  4349   002962  5E02               	subwf	___lwdiv@dividend^0,f,c
  4350   002964  5005               	movf	(___lwdiv@divisor+1)^0,w,c
  4351   002966  5A03               	subwfb	(___lwdiv@dividend+1)^0,f,c
  4352   002968  8007               	bsf	___lwdiv@quotient^0,0,c
  4353   00296A                     l8247:
  4354   00296A  90D8               	bcf	status,0,c
  4355   00296C  3205               	rrcf	(___lwdiv@divisor+1)^0,f,c
  4356   00296E  3204               	rrcf	___lwdiv@divisor^0,f,c
  4357   002970  2E06               	decfsz	___lwdiv@counter^0,f,c
  4358   002972  EFA2  F014         	goto	l8239
  4359   002976                     l2060:
  4360   002976  C007  F002         	movff	___lwdiv@quotient,?___lwdiv
  4361   00297A  C008  F003         	movff	___lwdiv@quotient+1,?___lwdiv+1
  4362   00297E  0012               	return		;funcret
  4363   002980                     __end_of___lwdiv:
  4364                           	callstack 0
  4365                           
  4366 ;; *************** function ___fltol *****************
  4367 ;; Defined at:
  4368 ;;		line 43 in file "C:\Program Files\Microchip\xc8\v2.45\pic\sources\c99\common\fltol.c"
  4369 ;; Parameters:    Size  Location     Type
  4370 ;;  f1              4   40[COMRAM] unsigned int 
  4371 ;; Auto vars:     Size  Location     Type
  4372 ;;  exp1            1   49[COMRAM] unsigned char 
  4373 ;;  sign1           1   48[COMRAM] unsigned char 
  4374 ;; Return value:  Size  Location     Type
  4375 ;;                  4   40[COMRAM] long 
  4376 ;; Registers used:
  4377 ;;		wreg, status,2, status,0
  4378 ;; Tracked objects:
  4379 ;;		On entry : 0/0
  4380 ;;		On exit  : 0/0
  4381 ;;		Unchanged: 0/0
  4382 ;; Data sizes:     COMRAM   BANK0   BANK1   BANK2   BANK3   BANK4   BANK5   BANK6   BANK7   BANK8   BANK9  BANK10  BANK1
      +1  BANK12  BANK13  BANK14  BANK15
  4383 ;;      Params:         4       0       0       0       0       0       0       0       0       0       0       0       
      +0       0       0       0       0
  4384 ;;      Locals:         2       0       0       0       0       0       0       0       0       0       0       0       
      +0       0       0       0       0
  4385 ;;      Temps:          4       0       0       0       0       0       0       0       0       0       0       0       
      +0       0       0       0       0
  4386 ;;      Totals:        10       0       0       0       0       0       0       0       0       0       0       0       
      +0       0       0       0       0
  4387 ;;Total ram usage:       10 bytes
  4388 ;; Hardware stack levels used: 1
  4389 ;; Hardware stack levels required when called: 2
  4390 ;; This function calls:
  4391 ;;		Nothing
  4392 ;; This function is called by:
  4393 ;;		_main
  4394 ;;		_CCP_PWM_Set_Duty
  4395 ;;		_CCP_PWM_Mode_Config
  4396 ;;		_EUSART_Baud_Rate_Calculation
  4397 ;; This function uses a non-reentrant model
  4398 ;;
  4399                           
  4400                           	psect	text27
  4401   002016                     __ptext27:
  4402                           	callstack 0
  4403   002016                     ___fltol:
  4404                           	callstack 28
  4405   002016  342B               	rlcf	(___fltol@f1+2)^0,w,c
  4406   002018  342C               	rlcf	(___fltol@f1+3)^0,w,c
  4407   00201A  6E32               	movwf	___fltol@exp1^0,c
  4408   00201C  5032               	movf	___fltol@exp1^0,w,c
  4409   00201E  A4D8               	btfss	status,2,c
  4410   002020  EF14  F010         	goto	u7601
  4411   002024  EF16  F010         	goto	u7600
  4412   002028                     u7601:
  4413   002028  EF20  F010         	goto	l8191
  4414   00202C                     u7600:
  4415   00202C                     l8187:
  4416   00202C  0E00               	movlw	0
  4417   00202E  6E29               	movwf	?___fltol^0,c
  4418   002030  0E00               	movlw	0
  4419   002032  6E2A               	movwf	(?___fltol+1)^0,c
  4420   002034  0E00               	movlw	0
  4421   002036  6E2B               	movwf	(?___fltol+2)^0,c
  4422   002038  0E00               	movlw	0
  4423   00203A  6E2C               	movwf	(?___fltol+3)^0,c
  4424   00203C  EF8D  F010         	goto	l1866
  4425   002040                     l8191:
  4426   002040  C029  F02D         	movff	___fltol@f1,??___fltol
  4427   002044  C02A  F02E         	movff	___fltol@f1+1,??___fltol+1
  4428   002048  C02B  F02F         	movff	___fltol@f1+2,??___fltol+2
  4429   00204C  C02C  F030         	movff	___fltol@f1+3,??___fltol+3
  4430   002050  0E20               	movlw	32
  4431   002052  EF30  F010         	goto	u7610
  4432   002056                     u7615:
  4433   002056  90D8               	bcf	status,0,c
  4434   002058  3230               	rrcf	(??___fltol+3)^0,f,c
  4435   00205A  322F               	rrcf	(??___fltol+2)^0,f,c
  4436   00205C  322E               	rrcf	(??___fltol+1)^0,f,c
  4437   00205E  322D               	rrcf	??___fltol^0,f,c
  4438   002060                     u7610:
  4439   002060  2EE8               	decfsz	wreg,f,c
  4440   002062  EF2B  F010         	goto	u7615
  4441   002066  502D               	movf	??___fltol^0,w,c
  4442   002068  6E31               	movwf	___fltol@sign1^0,c
  4443   00206A  8E2B               	bsf	(___fltol@f1+2)^0,7,c
  4444   00206C  0EFF               	movlw	255
  4445   00206E  1629               	andwf	___fltol@f1^0,f,c
  4446   002070  0EFF               	movlw	255
  4447   002072  162A               	andwf	(___fltol@f1+1)^0,f,c
  4448   002074  0EFF               	movlw	255
  4449   002076  162B               	andwf	(___fltol@f1+2)^0,f,c
  4450   002078  0E00               	movlw	0
  4451   00207A  162C               	andwf	(___fltol@f1+3)^0,f,c
  4452   00207C  0E96               	movlw	150
  4453   00207E  5E32               	subwf	___fltol@exp1^0,f,c
  4454   002080  BE32               	btfsc	___fltol@exp1^0,7,c
  4455   002082  EF47  F010         	goto	u7620
  4456   002086  EF45  F010         	goto	u7621
  4457   00208A                     u7621:
  4458   00208A  EF5D  F010         	goto	l8211
  4459   00208E                     u7620:
  4460   00208E  5032               	movf	___fltol@exp1^0,w,c
  4461   002090  0A80               	xorlw	128
  4462   002092  0F97               	addlw	151
  4463   002094  B0D8               	btfsc	status,0,c
  4464   002096  EF4F  F010         	goto	u7631
  4465   00209A  EF51  F010         	goto	u7630
  4466   00209E                     u7631:
  4467   00209E  EF53  F010         	goto	l8207
  4468   0020A2                     u7630:
  4469   0020A2  EF16  F010         	goto	l8187
  4470   0020A6                     l8207:
  4471   0020A6  90D8               	bcf	status,0,c
  4472   0020A8  322C               	rrcf	(___fltol@f1+3)^0,f,c
  4473   0020AA  322B               	rrcf	(___fltol@f1+2)^0,f,c
  4474   0020AC  322A               	rrcf	(___fltol@f1+1)^0,f,c
  4475   0020AE  3229               	rrcf	___fltol@f1^0,f,c
  4476   0020B0  3E32               	incfsz	___fltol@exp1^0,f,c
  4477   0020B2  EF53  F010         	goto	l8207
  4478   0020B6  EF75  F010         	goto	l8221
  4479   0020BA                     l8211:
  4480   0020BA  0E1F               	movlw	31
  4481   0020BC  6432               	cpfsgt	___fltol@exp1^0,c
  4482   0020BE  EF63  F010         	goto	u7641
  4483   0020C2  EF65  F010         	goto	u7640
  4484   0020C6                     u7641:
  4485   0020C6  EF6D  F010         	goto	l8219
  4486   0020CA                     u7640:
  4487   0020CA  EF16  F010         	goto	l8187
  4488   0020CE                     l8217:
  4489   0020CE  90D8               	bcf	status,0,c
  4490   0020D0  3629               	rlcf	___fltol@f1^0,f,c
  4491   0020D2  362A               	rlcf	(___fltol@f1+1)^0,f,c
  4492   0020D4  362B               	rlcf	(___fltol@f1+2)^0,f,c
  4493   0020D6  362C               	rlcf	(___fltol@f1+3)^0,f,c
  4494   0020D8  0632               	decf	___fltol@exp1^0,f,c
  4495   0020DA                     l8219:
  4496   0020DA  5032               	movf	___fltol@exp1^0,w,c
  4497   0020DC  A4D8               	btfss	status,2,c
  4498   0020DE  EF73  F010         	goto	u7651
  4499   0020E2  EF75  F010         	goto	u7650
  4500   0020E6                     u7651:
  4501   0020E6  EF67  F010         	goto	l8217
  4502   0020EA                     u7650:
  4503   0020EA                     l8221:
  4504   0020EA  5031               	movf	___fltol@sign1^0,w,c
  4505   0020EC  B4D8               	btfsc	status,2,c
  4506   0020EE  EF7B  F010         	goto	u7661
  4507   0020F2  EF7D  F010         	goto	u7660
  4508   0020F6                     u7661:
  4509   0020F6  EF85  F010         	goto	l8225
  4510   0020FA                     u7660:
  4511   0020FA  1E2C               	comf	(___fltol@f1+3)^0,f,c
  4512   0020FC  1E2B               	comf	(___fltol@f1+2)^0,f,c
  4513   0020FE  1E2A               	comf	(___fltol@f1+1)^0,f,c
  4514   002100  6C29               	negf	___fltol@f1^0,c
  4515   002102  0E00               	movlw	0
  4516   002104  222A               	addwfc	(___fltol@f1+1)^0,f,c
  4517   002106  222B               	addwfc	(___fltol@f1+2)^0,f,c
  4518   002108  222C               	addwfc	(___fltol@f1+3)^0,f,c
  4519   00210A                     l8225:
  4520   00210A  C029  F029         	movff	___fltol@f1,?___fltol
  4521   00210E  C02A  F02A         	movff	___fltol@f1+1,?___fltol+1
  4522   002112  C02B  F02B         	movff	___fltol@f1+2,?___fltol+2
  4523   002116  C02C  F02C         	movff	___fltol@f1+3,?___fltol+3
  4524   00211A                     l1866:
  4525   00211A  0012               	return		;funcret
  4526   00211C                     __end_of___fltol:
  4527                           	callstack 0
  4528                           
  4529 ;; *************** function ___flmul *****************
  4530 ;; Defined at:
  4531 ;;		line 8 in file "C:\Program Files\Microchip\xc8\v2.45\pic\sources\c99\common\sprcmul.c"
  4532 ;; Parameters:    Size  Location     Type
  4533 ;;  b               4   15[COMRAM] long 
  4534 ;;  a               4   19[COMRAM] long 
  4535 ;; Auto vars:     Size  Location     Type
  4536 ;;  prod            4   34[COMRAM] struct .
  4537 ;;  grs             4   29[COMRAM] unsigned long 
  4538 ;;  temp            2   38[COMRAM] struct .
  4539 ;;  bexp            1   33[COMRAM] unsigned char 
  4540 ;;  aexp            1   28[COMRAM] unsigned char 
  4541 ;;  sign            1   27[COMRAM] unsigned char 
  4542 ;; Return value:  Size  Location     Type
  4543 ;;                  4   15[COMRAM] unsigned char 
  4544 ;; Registers used:
  4545 ;;		wreg, status,2, status,0, prodl, prodh
  4546 ;; Tracked objects:
  4547 ;;		On entry : 0/0
  4548 ;;		On exit  : 0/0
  4549 ;;		Unchanged: 0/0
  4550 ;; Data sizes:     COMRAM   BANK0   BANK1   BANK2   BANK3   BANK4   BANK5   BANK6   BANK7   BANK8   BANK9  BANK10  BANK1
      +1  BANK12  BANK13  BANK14  BANK15
  4551 ;;      Params:         8       0       0       0       0       0       0       0       0       0       0       0       
      +0       0       0       0       0
  4552 ;;      Locals:        13       0       0       0       0       0       0       0       0       0       0       0       
      +0       0       0       0       0
  4553 ;;      Temps:          4       0       0       0       0       0       0       0       0       0       0       0       
      +0       0       0       0       0
  4554 ;;      Totals:        25       0       0       0       0       0       0       0       0       0       0       0       
      +0       0       0       0       0
  4555 ;;Total ram usage:       25 bytes
  4556 ;; Hardware stack levels used: 1
  4557 ;; Hardware stack levels required when called: 2
  4558 ;; This function calls:
  4559 ;;		Nothing
  4560 ;; This function is called by:
  4561 ;;		_main
  4562 ;;		_CCP_PWM_Set_Duty
  4563 ;;		_CCP_PWM_Mode_Config
  4564 ;; This function uses a non-reentrant model
  4565 ;;
  4566                           
  4567                           	psect	text28
  4568   00107E                     __ptext28:
  4569                           	callstack 0
  4570   00107E                     ___flmul:
  4571                           	callstack 28
  4572   00107E  5013               	movf	(___flmul@b+3)^0,w,c
  4573   001080  0B80               	andlw	128
  4574   001082  6E1C               	movwf	___flmul@sign^0,c
  4575   001084  5013               	movf	(___flmul@b+3)^0,w,c
  4576   001086  2413               	addwf	(___flmul@b+3)^0,w,c
  4577   001088  6E22               	movwf	___flmul@bexp^0,c
  4578   00108A  AE12               	btfss	(___flmul@b+2)^0,7,c
  4579   00108C  EF4A  F008         	goto	u7411
  4580   001090  EF4C  F008         	goto	u7410
  4581   001094                     u7411:
  4582   001094  EF4D  F008         	goto	l8061
  4583   001098                     u7410:
  4584   001098  8022               	bsf	___flmul@bexp^0,0,c
  4585   00109A                     l8061:
  4586   00109A  5022               	movf	___flmul@bexp^0,w,c
  4587   00109C  B4D8               	btfsc	status,2,c
  4588   00109E  EF53  F008         	goto	u7421
  4589   0010A2  EF55  F008         	goto	u7420
  4590   0010A6                     u7421:
  4591   0010A6  EF68  F008         	goto	l8069
  4592   0010AA                     u7420:
  4593   0010AA  2822               	incf	___flmul@bexp^0,w,c
  4594   0010AC  A4D8               	btfss	status,2,c
  4595   0010AE  EF5B  F008         	goto	u7431
  4596   0010B2  EF5D  F008         	goto	u7430
  4597   0010B6                     u7431:
  4598   0010B6  EF65  F008         	goto	l8067
  4599   0010BA                     u7430:
  4600   0010BA  0E00               	movlw	0
  4601   0010BC  6E10               	movwf	___flmul@b^0,c
  4602   0010BE  0E00               	movlw	0
  4603   0010C0  6E11               	movwf	(___flmul@b+1)^0,c
  4604   0010C2  0E00               	movlw	0
  4605   0010C4  6E12               	movwf	(___flmul@b+2)^0,c
  4606   0010C6  0E00               	movlw	0
  4607   0010C8  6E13               	movwf	(___flmul@b+3)^0,c
  4608   0010CA                     l8067:
  4609   0010CA  8E12               	bsf	(___flmul@b+2)^0,7,c
  4610   0010CC  EF70  F008         	goto	l8071
  4611   0010D0                     l8069:
  4612   0010D0  0E00               	movlw	0
  4613   0010D2  6E10               	movwf	___flmul@b^0,c
  4614   0010D4  0E00               	movlw	0
  4615   0010D6  6E11               	movwf	(___flmul@b+1)^0,c
  4616   0010D8  0E00               	movlw	0
  4617   0010DA  6E12               	movwf	(___flmul@b+2)^0,c
  4618   0010DC  0E00               	movlw	0
  4619   0010DE  6E13               	movwf	(___flmul@b+3)^0,c
  4620   0010E0                     l8071:
  4621   0010E0  5017               	movf	(___flmul@a+3)^0,w,c
  4622   0010E2  0B80               	andlw	128
  4623   0010E4  1A1C               	xorwf	___flmul@sign^0,f,c
  4624   0010E6  5017               	movf	(___flmul@a+3)^0,w,c
  4625   0010E8  2417               	addwf	(___flmul@a+3)^0,w,c
  4626   0010EA  6E1D               	movwf	___flmul@aexp^0,c
  4627   0010EC  AE16               	btfss	(___flmul@a+2)^0,7,c
  4628   0010EE  EF7B  F008         	goto	u7441
  4629   0010F2  EF7D  F008         	goto	u7440
  4630   0010F6                     u7441:
  4631   0010F6  EF7E  F008         	goto	l8079
  4632   0010FA                     u7440:
  4633   0010FA  801D               	bsf	___flmul@aexp^0,0,c
  4634   0010FC                     l8079:
  4635   0010FC  501D               	movf	___flmul@aexp^0,w,c
  4636   0010FE  B4D8               	btfsc	status,2,c
  4637   001100  EF84  F008         	goto	u7451
  4638   001104  EF86  F008         	goto	u7450
  4639   001108                     u7451:
  4640   001108  EF99  F008         	goto	l8087
  4641   00110C                     u7450:
  4642   00110C  281D               	incf	___flmul@aexp^0,w,c
  4643   00110E  A4D8               	btfss	status,2,c
  4644   001110  EF8C  F008         	goto	u7461
  4645   001114  EF8E  F008         	goto	u7460
  4646   001118                     u7461:
  4647   001118  EF96  F008         	goto	l8085
  4648   00111C                     u7460:
  4649   00111C  0E00               	movlw	0
  4650   00111E  6E14               	movwf	___flmul@a^0,c
  4651   001120  0E00               	movlw	0
  4652   001122  6E15               	movwf	(___flmul@a+1)^0,c
  4653   001124  0E00               	movlw	0
  4654   001126  6E16               	movwf	(___flmul@a+2)^0,c
  4655   001128  0E00               	movlw	0
  4656   00112A  6E17               	movwf	(___flmul@a+3)^0,c
  4657   00112C                     l8085:
  4658   00112C  8E16               	bsf	(___flmul@a+2)^0,7,c
  4659   00112E  EFA1  F008         	goto	l2183
  4660   001132                     l8087:
  4661   001132  0E00               	movlw	0
  4662   001134  6E14               	movwf	___flmul@a^0,c
  4663   001136  0E00               	movlw	0
  4664   001138  6E15               	movwf	(___flmul@a+1)^0,c
  4665   00113A  0E00               	movlw	0
  4666   00113C  6E16               	movwf	(___flmul@a+2)^0,c
  4667   00113E  0E00               	movlw	0
  4668   001140  6E17               	movwf	(___flmul@a+3)^0,c
  4669   001142                     l2183:
  4670   001142  501D               	movf	___flmul@aexp^0,w,c
  4671   001144  B4D8               	btfsc	status,2,c
  4672   001146  EFA7  F008         	goto	u7471
  4673   00114A  EFA9  F008         	goto	u7470
  4674   00114E                     u7471:
  4675   00114E  EFB1  F008         	goto	l8091
  4676   001152                     u7470:
  4677   001152  5022               	movf	___flmul@bexp^0,w,c
  4678   001154  A4D8               	btfss	status,2,c
  4679   001156  EFAF  F008         	goto	u7481
  4680   00115A  EFB1  F008         	goto	u7480
  4681   00115E                     u7481:
  4682   00115E  EFBB  F008         	goto	l8095
  4683   001162                     u7480:
  4684   001162                     l8091:
  4685   001162  0E00               	movlw	0
  4686   001164  6E10               	movwf	?___flmul^0,c
  4687   001166  0E00               	movlw	0
  4688   001168  6E11               	movwf	(?___flmul+1)^0,c
  4689   00116A  0E00               	movlw	0
  4690   00116C  6E12               	movwf	(?___flmul+2)^0,c
  4691   00116E  0E00               	movlw	0
  4692   001170  6E13               	movwf	(?___flmul+3)^0,c
  4693   001172  EF53  F00A         	goto	l2187
  4694   001176                     l8095:
  4695   001176  5016               	movf	(___flmul@a+2)^0,w,c
  4696   001178  0210               	mulwf	___flmul@b^0,c
  4697   00117A  CFF3 F027          	movff	prodl,___flmul@temp
  4698   00117E  CFF4 F028          	movff	prodh,___flmul@temp+1
  4699   001182  5027               	movf	___flmul@temp^0,w,c
  4700   001184  6E1E               	movwf	___flmul@grs^0,c
  4701   001186  6A1F               	clrf	(___flmul@grs+1)^0,c
  4702   001188  6A20               	clrf	(___flmul@grs+2)^0,c
  4703   00118A  6A21               	clrf	(___flmul@grs+3)^0,c
  4704   00118C  5028               	movf	(___flmul@temp+1)^0,w,c
  4705   00118E  6E23               	movwf	___flmul@prod^0,c
  4706   001190  6A24               	clrf	(___flmul@prod+1)^0,c
  4707   001192  6A25               	clrf	(___flmul@prod+2)^0,c
  4708   001194  6A26               	clrf	(___flmul@prod+3)^0,c
  4709   001196  5015               	movf	(___flmul@a+1)^0,w,c
  4710   001198  0211               	mulwf	(___flmul@b+1)^0,c
  4711   00119A  CFF3 F027          	movff	prodl,___flmul@temp
  4712   00119E  CFF4 F028          	movff	prodh,___flmul@temp+1
  4713   0011A2  5027               	movf	___flmul@temp^0,w,c
  4714   0011A4  261E               	addwf	___flmul@grs^0,f,c
  4715   0011A6  0E00               	movlw	0
  4716   0011A8  221F               	addwfc	(___flmul@grs+1)^0,f,c
  4717   0011AA  2220               	addwfc	(___flmul@grs+2)^0,f,c
  4718   0011AC  2221               	addwfc	(___flmul@grs+3)^0,f,c
  4719   0011AE  5028               	movf	(___flmul@temp+1)^0,w,c
  4720   0011B0  2623               	addwf	___flmul@prod^0,f,c
  4721   0011B2  0E00               	movlw	0
  4722   0011B4  2224               	addwfc	(___flmul@prod+1)^0,f,c
  4723   0011B6  2225               	addwfc	(___flmul@prod+2)^0,f,c
  4724   0011B8  2226               	addwfc	(___flmul@prod+3)^0,f,c
  4725   0011BA  5014               	movf	___flmul@a^0,w,c
  4726   0011BC  0212               	mulwf	(___flmul@b+2)^0,c
  4727   0011BE  CFF3 F027          	movff	prodl,___flmul@temp
  4728   0011C2  CFF4 F028          	movff	prodh,___flmul@temp+1
  4729   0011C6  5027               	movf	___flmul@temp^0,w,c
  4730   0011C8  261E               	addwf	___flmul@grs^0,f,c
  4731   0011CA  0E00               	movlw	0
  4732   0011CC  221F               	addwfc	(___flmul@grs+1)^0,f,c
  4733   0011CE  2220               	addwfc	(___flmul@grs+2)^0,f,c
  4734   0011D0  2221               	addwfc	(___flmul@grs+3)^0,f,c
  4735   0011D2  5028               	movf	(___flmul@temp+1)^0,w,c
  4736   0011D4  2623               	addwf	___flmul@prod^0,f,c
  4737   0011D6  0E00               	movlw	0
  4738   0011D8  2224               	addwfc	(___flmul@prod+1)^0,f,c
  4739   0011DA  2225               	addwfc	(___flmul@prod+2)^0,f,c
  4740   0011DC  2226               	addwfc	(___flmul@prod+3)^0,f,c
  4741   0011DE  C020  F021         	movff	___flmul@grs+2,___flmul@grs+3
  4742   0011E2  C01F  F020         	movff	___flmul@grs+1,___flmul@grs+2
  4743   0011E6  C01E  F01F         	movff	___flmul@grs,___flmul@grs+1
  4744   0011EA  6A1E               	clrf	___flmul@grs^0,c
  4745   0011EC  5014               	movf	___flmul@a^0,w,c
  4746   0011EE  0211               	mulwf	(___flmul@b+1)^0,c
  4747   0011F0  CFF3 F027          	movff	prodl,___flmul@temp
  4748   0011F4  CFF4 F028          	movff	prodh,___flmul@temp+1
  4749   0011F8  5027               	movf	___flmul@temp^0,w,c
  4750   0011FA  261E               	addwf	___flmul@grs^0,f,c
  4751   0011FC  5028               	movf	(___flmul@temp+1)^0,w,c
  4752   0011FE  221F               	addwfc	(___flmul@grs+1)^0,f,c
  4753   001200  0E00               	movlw	0
  4754   001202  2220               	addwfc	(___flmul@grs+2)^0,f,c
  4755   001204  0E00               	movlw	0
  4756   001206  2221               	addwfc	(___flmul@grs+3)^0,f,c
  4757   001208  5015               	movf	(___flmul@a+1)^0,w,c
  4758   00120A  0210               	mulwf	___flmul@b^0,c
  4759   00120C  CFF3 F027          	movff	prodl,___flmul@temp
  4760   001210  CFF4 F028          	movff	prodh,___flmul@temp+1
  4761   001214  5027               	movf	___flmul@temp^0,w,c
  4762   001216  261E               	addwf	___flmul@grs^0,f,c
  4763   001218  5028               	movf	(___flmul@temp+1)^0,w,c
  4764   00121A  221F               	addwfc	(___flmul@grs+1)^0,f,c
  4765   00121C  0E00               	movlw	0
  4766   00121E  2220               	addwfc	(___flmul@grs+2)^0,f,c
  4767   001220  0E00               	movlw	0
  4768   001222  2221               	addwfc	(___flmul@grs+3)^0,f,c
  4769   001224  C020  F021         	movff	___flmul@grs+2,___flmul@grs+3
  4770   001228  C01F  F020         	movff	___flmul@grs+1,___flmul@grs+2
  4771   00122C  C01E  F01F         	movff	___flmul@grs,___flmul@grs+1
  4772   001230  6A1E               	clrf	___flmul@grs^0,c
  4773   001232  5014               	movf	___flmul@a^0,w,c
  4774   001234  0210               	mulwf	___flmul@b^0,c
  4775   001236  CFF3 F027          	movff	prodl,___flmul@temp
  4776   00123A  CFF4 F028          	movff	prodh,___flmul@temp+1
  4777   00123E  5027               	movf	___flmul@temp^0,w,c
  4778   001240  261E               	addwf	___flmul@grs^0,f,c
  4779   001242  5028               	movf	(___flmul@temp+1)^0,w,c
  4780   001244  221F               	addwfc	(___flmul@grs+1)^0,f,c
  4781   001246  0E00               	movlw	0
  4782   001248  2220               	addwfc	(___flmul@grs+2)^0,f,c
  4783   00124A  0E00               	movlw	0
  4784   00124C  2221               	addwfc	(___flmul@grs+3)^0,f,c
  4785   00124E  5016               	movf	(___flmul@a+2)^0,w,c
  4786   001250  0211               	mulwf	(___flmul@b+1)^0,c
  4787   001252  CFF3 F027          	movff	prodl,___flmul@temp
  4788   001256  CFF4 F028          	movff	prodh,___flmul@temp+1
  4789   00125A  5027               	movf	___flmul@temp^0,w,c
  4790   00125C  2623               	addwf	___flmul@prod^0,f,c
  4791   00125E  5028               	movf	(___flmul@temp+1)^0,w,c
  4792   001260  2224               	addwfc	(___flmul@prod+1)^0,f,c
  4793   001262  0E00               	movlw	0
  4794   001264  2225               	addwfc	(___flmul@prod+2)^0,f,c
  4795   001266  0E00               	movlw	0
  4796   001268  2226               	addwfc	(___flmul@prod+3)^0,f,c
  4797   00126A  5015               	movf	(___flmul@a+1)^0,w,c
  4798   00126C  0212               	mulwf	(___flmul@b+2)^0,c
  4799   00126E  CFF3 F027          	movff	prodl,___flmul@temp
  4800   001272  CFF4 F028          	movff	prodh,___flmul@temp+1
  4801   001276  5027               	movf	___flmul@temp^0,w,c
  4802   001278  2623               	addwf	___flmul@prod^0,f,c
  4803   00127A  5028               	movf	(___flmul@temp+1)^0,w,c
  4804   00127C  2224               	addwfc	(___flmul@prod+1)^0,f,c
  4805   00127E  0E00               	movlw	0
  4806   001280  2225               	addwfc	(___flmul@prod+2)^0,f,c
  4807   001282  0E00               	movlw	0
  4808   001284  2226               	addwfc	(___flmul@prod+3)^0,f,c
  4809   001286  5016               	movf	(___flmul@a+2)^0,w,c
  4810   001288  0212               	mulwf	(___flmul@b+2)^0,c
  4811   00128A  CFF3 F027          	movff	prodl,___flmul@temp
  4812   00128E  CFF4 F028          	movff	prodh,___flmul@temp+1
  4813   001292  5027               	movf	___flmul@temp^0,w,c
  4814   001294  6E18               	movwf	??___flmul^0,c
  4815   001296  5028               	movf	(___flmul@temp+1)^0,w,c
  4816   001298  6E19               	movwf	(??___flmul+1)^0,c
  4817   00129A  6A1A               	clrf	(??___flmul+2)^0,c
  4818   00129C  6A1B               	clrf	(??___flmul+3)^0,c
  4819   00129E  C01A  F01B         	movff	??___flmul+2,??___flmul+3
  4820   0012A2  C019  F01A         	movff	??___flmul+1,??___flmul+2
  4821   0012A6  C018  F019         	movff	??___flmul,??___flmul+1
  4822   0012AA  6A18               	clrf	??___flmul^0,c
  4823   0012AC  5018               	movf	??___flmul^0,w,c
  4824   0012AE  2623               	addwf	___flmul@prod^0,f,c
  4825   0012B0  5019               	movf	(??___flmul+1)^0,w,c
  4826   0012B2  2224               	addwfc	(___flmul@prod+1)^0,f,c
  4827   0012B4  501A               	movf	(??___flmul+2)^0,w,c
  4828   0012B6  2225               	addwfc	(___flmul@prod+2)^0,f,c
  4829   0012B8  501B               	movf	(??___flmul+3)^0,w,c
  4830   0012BA  2226               	addwfc	(___flmul@prod+3)^0,f,c
  4831   0012BC  C01E  F018         	movff	___flmul@grs,??___flmul
  4832   0012C0  C01F  F019         	movff	___flmul@grs+1,??___flmul+1
  4833   0012C4  C020  F01A         	movff	___flmul@grs+2,??___flmul+2
  4834   0012C8  C021  F01B         	movff	___flmul@grs+3,??___flmul+3
  4835   0012CC  0E19               	movlw	25
  4836   0012CE  EF6E  F009         	goto	u7490
  4837   0012D2                     u7495:
  4838   0012D2  90D8               	bcf	status,0,c
  4839   0012D4  321B               	rrcf	(??___flmul+3)^0,f,c
  4840   0012D6  321A               	rrcf	(??___flmul+2)^0,f,c
  4841   0012D8  3219               	rrcf	(??___flmul+1)^0,f,c
  4842   0012DA  3218               	rrcf	??___flmul^0,f,c
  4843   0012DC                     u7490:
  4844   0012DC  2EE8               	decfsz	wreg,f,c
  4845   0012DE  EF69  F009         	goto	u7495
  4846   0012E2  5018               	movf	??___flmul^0,w,c
  4847   0012E4  2623               	addwf	___flmul@prod^0,f,c
  4848   0012E6  5019               	movf	(??___flmul+1)^0,w,c
  4849   0012E8  2224               	addwfc	(___flmul@prod+1)^0,f,c
  4850   0012EA  501A               	movf	(??___flmul+2)^0,w,c
  4851   0012EC  2225               	addwfc	(___flmul@prod+2)^0,f,c
  4852   0012EE  501B               	movf	(??___flmul+3)^0,w,c
  4853   0012F0  2226               	addwfc	(___flmul@prod+3)^0,f,c
  4854   0012F2  C020  F021         	movff	___flmul@grs+2,___flmul@grs+3
  4855   0012F6  C01F  F020         	movff	___flmul@grs+1,___flmul@grs+2
  4856   0012FA  C01E  F01F         	movff	___flmul@grs,___flmul@grs+1
  4857   0012FE  6A1E               	clrf	___flmul@grs^0,c
  4858   001300  501D               	movf	___flmul@aexp^0,w,c
  4859   001302  C022  F018         	movff	___flmul@bexp,??___flmul
  4860   001306  6A19               	clrf	(??___flmul+1)^0,c
  4861   001308  2618               	addwf	??___flmul^0,f,c
  4862   00130A  0E00               	movlw	0
  4863   00130C  2219               	addwfc	(??___flmul+1)^0,f,c
  4864   00130E  0E82               	movlw	130
  4865   001310  2418               	addwf	??___flmul^0,w,c
  4866   001312  6E27               	movwf	___flmul@temp^0,c
  4867   001314  0EFF               	movlw	255
  4868   001316  2019               	addwfc	(??___flmul+1)^0,w,c
  4869   001318  6E28               	movwf	(___flmul@temp+1)^0,c
  4870   00131A  EFA4  F009         	goto	l8143
  4871   00131E                     l8137:
  4872   00131E  90D8               	bcf	status,0,c
  4873   001320  3623               	rlcf	___flmul@prod^0,f,c
  4874   001322  3624               	rlcf	(___flmul@prod+1)^0,f,c
  4875   001324  3625               	rlcf	(___flmul@prod+2)^0,f,c
  4876   001326  3626               	rlcf	(___flmul@prod+3)^0,f,c
  4877   001328  AE21               	btfss	(___flmul@grs+3)^0,7,c
  4878   00132A  EF99  F009         	goto	u7501
  4879   00132E  EF9B  F009         	goto	u7500
  4880   001332                     u7501:
  4881   001332  EF9C  F009         	goto	l2190
  4882   001336                     u7500:
  4883   001336  8023               	bsf	___flmul@prod^0,0,c
  4884   001338                     l2190:
  4885   001338  90D8               	bcf	status,0,c
  4886   00133A  361E               	rlcf	___flmul@grs^0,f,c
  4887   00133C  361F               	rlcf	(___flmul@grs+1)^0,f,c
  4888   00133E  3620               	rlcf	(___flmul@grs+2)^0,f,c
  4889   001340  3621               	rlcf	(___flmul@grs+3)^0,f,c
  4890   001342  0627               	decf	___flmul@temp^0,f,c
  4891   001344  A0D8               	btfss	status,0,c
  4892   001346  0628               	decf	(___flmul@temp+1)^0,f,c
  4893   001348                     l8143:
  4894   001348  AE25               	btfss	(___flmul@prod+2)^0,7,c
  4895   00134A  EFA9  F009         	goto	u7511
  4896   00134E  EFAB  F009         	goto	u7510
  4897   001352                     u7511:
  4898   001352  EF8F  F009         	goto	l8137
  4899   001356                     u7510:
  4900   001356  0E00               	movlw	0
  4901   001358  6E1D               	movwf	___flmul@aexp^0,c
  4902   00135A  AE21               	btfss	(___flmul@grs+3)^0,7,c
  4903   00135C  EFB2  F009         	goto	u7521
  4904   001360  EFB4  F009         	goto	u7520
  4905   001364                     u7521:
  4906   001364  EFD8  F009         	goto	l2192
  4907   001368                     u7520:
  4908   001368  0EFF               	movlw	255
  4909   00136A  141E               	andwf	___flmul@grs^0,w,c
  4910   00136C  6E18               	movwf	??___flmul^0,c
  4911   00136E  0EFF               	movlw	255
  4912   001370  141F               	andwf	(___flmul@grs+1)^0,w,c
  4913   001372  6E19               	movwf	(??___flmul+1)^0,c
  4914   001374  0EFF               	movlw	255
  4915   001376  1420               	andwf	(___flmul@grs+2)^0,w,c
  4916   001378  6E1A               	movwf	(??___flmul+2)^0,c
  4917   00137A  0E7F               	movlw	127
  4918   00137C  1421               	andwf	(___flmul@grs+3)^0,w,c
  4919   00137E  6E1B               	movwf	(??___flmul+3)^0,c
  4920   001380  5018               	movf	??___flmul^0,w,c
  4921   001382  1019               	iorwf	(??___flmul+1)^0,w,c
  4922   001384  101A               	iorwf	(??___flmul+2)^0,w,c
  4923   001386  101B               	iorwf	(??___flmul+3)^0,w,c
  4924   001388  B4D8               	btfsc	status,2,c
  4925   00138A  EFC9  F009         	goto	u7531
  4926   00138E  EFCB  F009         	goto	u7530
  4927   001392                     u7531:
  4928   001392  EFCF  F009         	goto	l2193
  4929   001396                     u7530:
  4930   001396                     l8151:
  4931   001396  0E01               	movlw	1
  4932   001398  6E1D               	movwf	___flmul@aexp^0,c
  4933   00139A  EFD8  F009         	goto	l2192
  4934   00139E                     l2193:
  4935   00139E  A023               	btfss	___flmul@prod^0,0,c
  4936   0013A0  EFD4  F009         	goto	u7541
  4937   0013A4  EFD6  F009         	goto	u7540
  4938   0013A8                     u7541:
  4939   0013A8  EFD8  F009         	goto	l2192
  4940   0013AC                     u7540:
  4941   0013AC  EFCB  F009         	goto	l8151
  4942   0013B0                     l2192:
  4943   0013B0  501D               	movf	___flmul@aexp^0,w,c
  4944   0013B2  B4D8               	btfsc	status,2,c
  4945   0013B4  EFDE  F009         	goto	u7551
  4946   0013B8  EFE0  F009         	goto	u7550
  4947   0013BC                     u7551:
  4948   0013BC  EF04  F00A         	goto	l8163
  4949   0013C0                     u7550:
  4950   0013C0  0E01               	movlw	1
  4951   0013C2  2623               	addwf	___flmul@prod^0,f,c
  4952   0013C4  0E00               	movlw	0
  4953   0013C6  2224               	addwfc	(___flmul@prod+1)^0,f,c
  4954   0013C8  2225               	addwfc	(___flmul@prod+2)^0,f,c
  4955   0013CA  2226               	addwfc	(___flmul@prod+3)^0,f,c
  4956   0013CC  A026               	btfss	(___flmul@prod+3)^0,0,c
  4957   0013CE  EFEB  F009         	goto	u7561
  4958   0013D2  EFED  F009         	goto	u7560
  4959   0013D6                     u7561:
  4960   0013D6  EF04  F00A         	goto	l8163
  4961   0013DA                     u7560:
  4962   0013DA  C023  F018         	movff	___flmul@prod,??___flmul
  4963   0013DE  C024  F019         	movff	___flmul@prod+1,??___flmul+1
  4964   0013E2  C025  F01A         	movff	___flmul@prod+2,??___flmul+2
  4965   0013E6  C026  F01B         	movff	___flmul@prod+3,??___flmul+3
  4966   0013EA  341B               	rlcf	(??___flmul+3)^0,w,c
  4967   0013EC  321B               	rrcf	(??___flmul+3)^0,f,c
  4968   0013EE  321A               	rrcf	(??___flmul+2)^0,f,c
  4969   0013F0  3219               	rrcf	(??___flmul+1)^0,f,c
  4970   0013F2  3218               	rrcf	??___flmul^0,f,c
  4971   0013F4  C018  F023         	movff	??___flmul,___flmul@prod
  4972   0013F8  C019  F024         	movff	??___flmul+1,___flmul@prod+1
  4973   0013FC  C01A  F025         	movff	??___flmul+2,___flmul@prod+2
  4974   001400  C01B  F026         	movff	??___flmul+3,___flmul@prod+3
  4975   001404  4A27               	infsnz	___flmul@temp^0,f,c
  4976   001406  2A28               	incf	(___flmul@temp+1)^0,f,c
  4977   001408                     l8163:
  4978   001408  BE28               	btfsc	(___flmul@temp+1)^0,7,c
  4979   00140A  EF0F  F00A         	goto	u7571
  4980   00140E  5028               	movf	(___flmul@temp+1)^0,w,c
  4981   001410  E108               	bnz	u7570
  4982   001412  2827               	incf	___flmul@temp^0,w,c
  4983   001414  A0D8               	btfss	status,0,c
  4984   001416  EF0F  F00A         	goto	u7571
  4985   00141A  EF11  F00A         	goto	u7570
  4986   00141E                     u7571:
  4987   00141E  EF1B  F00A         	goto	l8167
  4988   001422                     u7570:
  4989   001422  0E00               	movlw	0
  4990   001424  6E23               	movwf	___flmul@prod^0,c
  4991   001426  0E00               	movlw	0
  4992   001428  6E24               	movwf	(___flmul@prod+1)^0,c
  4993   00142A  0E80               	movlw	128
  4994   00142C  6E25               	movwf	(___flmul@prod+2)^0,c
  4995   00142E  0E7F               	movlw	127
  4996   001430  6E26               	movwf	(___flmul@prod+3)^0,c
  4997   001432  EF49  F00A         	goto	l8179
  4998   001436                     l8167:
  4999   001436  BE28               	btfsc	(___flmul@temp+1)^0,7,c
  5000   001438  EF28  F00A         	goto	u7580
  5001   00143C  5028               	movf	(___flmul@temp+1)^0,w,c
  5002   00143E  E106               	bnz	u7581
  5003   001440  0427               	decf	___flmul@temp^0,w,c
  5004   001442  B0D8               	btfsc	status,0,c
  5005   001444  EF26  F00A         	goto	u7581
  5006   001448  EF28  F00A         	goto	u7580
  5007   00144C                     u7581:
  5008   00144C  EF34  F00A         	goto	l2200
  5009   001450                     u7580:
  5010   001450  0E00               	movlw	0
  5011   001452  6E23               	movwf	___flmul@prod^0,c
  5012   001454  0E00               	movlw	0
  5013   001456  6E24               	movwf	(___flmul@prod+1)^0,c
  5014   001458  0E00               	movlw	0
  5015   00145A  6E25               	movwf	(___flmul@prod+2)^0,c
  5016   00145C  0E00               	movlw	0
  5017   00145E  6E26               	movwf	(___flmul@prod+3)^0,c
  5018   001460  0E00               	movlw	0
  5019   001462  6E1C               	movwf	___flmul@sign^0,c
  5020   001464  EF49  F00A         	goto	l8179
  5021   001468                     l2200:
  5022   001468  C027  F022         	movff	___flmul@temp,___flmul@bexp
  5023   00146C  0EFF               	movlw	255
  5024   00146E  1623               	andwf	___flmul@prod^0,f,c
  5025   001470  0EFF               	movlw	255
  5026   001472  1624               	andwf	(___flmul@prod+1)^0,f,c
  5027   001474  0E7F               	movlw	127
  5028   001476  1625               	andwf	(___flmul@prod+2)^0,f,c
  5029   001478  0E00               	movlw	0
  5030   00147A  1626               	andwf	(___flmul@prod+3)^0,f,c
  5031   00147C  A022               	btfss	___flmul@bexp^0,0,c
  5032   00147E  EF43  F00A         	goto	u7591
  5033   001482  EF45  F00A         	goto	u7590
  5034   001486                     u7591:
  5035   001486  EF46  F00A         	goto	l8177
  5036   00148A                     u7590:
  5037   00148A  8E25               	bsf	(___flmul@prod+2)^0,7,c
  5038   00148C                     l8177:
  5039   00148C  90D8               	bcf	status,0,c
  5040   00148E  3022               	rrcf	___flmul@bexp^0,w,c
  5041   001490  6E26               	movwf	(___flmul@prod+3)^0,c
  5042   001492                     l8179:
  5043   001492  501C               	movf	___flmul@sign^0,w,c
  5044   001494  1226               	iorwf	(___flmul@prod+3)^0,f,c
  5045   001496  C023  F010         	movff	___flmul@prod,?___flmul
  5046   00149A  C024  F011         	movff	___flmul@prod+1,?___flmul+1
  5047   00149E  C025  F012         	movff	___flmul@prod+2,?___flmul+2
  5048   0014A2  C026  F013         	movff	___flmul@prod+3,?___flmul+3
  5049   0014A6                     l2187:
  5050   0014A6  0012               	return		;funcret
  5051   0014A8                     __end_of___flmul:
  5052                           	callstack 0
  5053                           
  5054 ;; *************** function _Air_Conditioning_On *****************
  5055 ;; Defined at:
  5056 ;;		line 61 in file "app1.c"
  5057 ;; Parameters:    Size  Location     Type
  5058 ;;		None
  5059 ;; Auto vars:     Size  Location     Type
  5060 ;;  ret             1    0        unsigned char 
  5061 ;; Return value:  Size  Location     Type
  5062 ;;                  1    wreg      void 
  5063 ;; Registers used:
  5064 ;;		wreg, fsr0l, fsr0h, fsr2l, fsr2h, status,2, status,0, tblptrl, tblptrh, tblptru, prodl, prodh, cstack
  5065 ;; Tracked objects:
  5066 ;;		On entry : 0/0
  5067 ;;		On exit  : 0/0
  5068 ;;		Unchanged: 0/0
  5069 ;; Data sizes:     COMRAM   BANK0   BANK1   BANK2   BANK3   BANK4   BANK5   BANK6   BANK7   BANK8   BANK9  BANK10  BANK1
      +1  BANK12  BANK13  BANK14  BANK15
  5070 ;;      Params:         0       0       0       0       0       0       0       0       0       0       0       0       
      +0       0       0       0       0
  5071 ;;      Locals:         0       0       0       0       0       0       0       0       0       0       0       0       
      +0       0       0       0       0
  5072 ;;      Temps:          2       0       0       0       0       0       0       0       0       0       0       0       
      +0       0       0       0       0
  5073 ;;      Totals:         2       0       0       0       0       0       0       0       0       0       0       0       
      +0       0       0       0       0
  5074 ;;Total ram usage:        2 bytes
  5075 ;; Hardware stack levels used: 1
  5076 ;; Hardware stack levels required when called: 7
  5077 ;; This function calls:
  5078 ;;		_lcd_4bit_send_command
  5079 ;;		_lcd_4bit_send_string_pos
  5080 ;; This function is called by:
  5081 ;;		_main
  5082 ;; This function uses a non-reentrant model
  5083 ;;
  5084                           
  5085                           	psect	text29
  5086   002BBC                     __ptext29:
  5087                           	callstack 0
  5088   002BBC                     _Air_Conditioning_On:
  5089                           	callstack 23
  5090   002BBC  0EE2               	movlw	low _lcd_1
  5091   002BBE  6E0D               	movwf	lcd_4bit_send_command@lcd^0,c
  5092   002BC0  0E01               	movlw	1
  5093   002BC2  6E0E               	movwf	lcd_4bit_send_command@command^0,c
  5094   002BC4  EC88  F015         	call	_lcd_4bit_send_command	;wreg free
  5095   002BC8  0EE2               	movlw	low _lcd_1
  5096   002BCA  6E16               	movwf	lcd_4bit_send_string_pos@lcd^0,c
  5097   002BCC  0E01               	movlw	1
  5098   002BCE  6E17               	movwf	lcd_4bit_send_string_pos@row^0,c
  5099   002BD0  0E05               	movlw	5
  5100   002BD2  6E18               	movwf	lcd_4bit_send_string_pos@column^0,c
  5101   002BD4  0E11               	movlw	low STR_10
  5102   002BD6  6E19               	movwf	lcd_4bit_send_string_pos@str^0,c
  5103   002BD8  5019               	movf	lcd_4bit_send_string_pos@str^0,w,c
  5104   002BDA  A4D8               	btfss	status,2,c
  5105   002BDC  0E10               	movlw	high __smallconst
  5106   002BDE  6E1A               	movwf	(lcd_4bit_send_string_pos@str+1)^0,c
  5107   002BE0  ECC7  F013         	call	_lcd_4bit_send_string_pos	;wreg free
  5108   002BE4                     
  5109                           ;app1.c: 65:     _delay((unsigned long)((3000)*(8000000/4000.0)));
  5110   002BE4  0E1F               	movlw	31
  5111   002BE6  6E1D               	movwf	(??_Air_Conditioning_On+1)^0,c
  5112   002BE8  0E71               	movlw	113
  5113   002BEA  6E1C               	movwf	??_Air_Conditioning_On^0,c
  5114   002BEC  0E1E               	movlw	30
  5115   002BEE                     u8467:
  5116   002BEE  2EE8               	decfsz	wreg,f,c
  5117   002BF0  D7FE               	bra	u8467
  5118   002BF2  2E1C               	decfsz	??_Air_Conditioning_On^0,f,c
  5119   002BF4  D7FC               	bra	u8467
  5120   002BF6  2E1D               	decfsz	(??_Air_Conditioning_On+1)^0,f,c
  5121   002BF8  D7FA               	bra	u8467
  5122   002BFA  D000               	nop2	
  5123   002BFC  0EE2               	movlw	low _lcd_1
  5124   002BFE  6E0D               	movwf	lcd_4bit_send_command@lcd^0,c
  5125   002C00  0E01               	movlw	1
  5126   002C02  6E0E               	movwf	lcd_4bit_send_command@command^0,c
  5127   002C04  EC88  F015         	call	_lcd_4bit_send_command	;wreg free
  5128   002C08  0012               	return		;funcret
  5129   002C0A                     __end_of_Air_Conditioning_On:
  5130                           	callstack 0
  5131                           
  5132 ;; *************** function _lcd_4bit_send_string_pos *****************
  5133 ;; Defined at:
  5134 ;;		line 159 in file "ECU_Layer/Chr_LCD/ecu_chr_lcd.c"
  5135 ;; Parameters:    Size  Location     Type
  5136 ;;  lcd             1   21[COMRAM] PTR const struct .
  5137 ;;		 -> lcd_1(6), 
  5138 ;;  row             1   22[COMRAM] unsigned char 
  5139 ;;  column          1   23[COMRAM] unsigned char 
  5140 ;;  str             2   24[COMRAM] PTR unsigned char 
  5141 ;;		 -> STR_10(20), STR_9(16), STR_8(16), STR_7(17), 
  5142 ;;		 -> STR_6(15), STR_5(13), STR_4(7), lm35_res_1_txt(7), 
  5143 ;; Auto vars:     Size  Location     Type
  5144 ;;  ret             1   26[COMRAM] unsigned char 
  5145 ;; Return value:  Size  Location     Type
  5146 ;;                  1    wreg      unsigned char 
  5147 ;; Registers used:
  5148 ;;		wreg, fsr0l, fsr0h, fsr2l, fsr2h, status,2, status,0, tblptrl, tblptrh, tblptru, prodl, prodh, cstack
  5149 ;; Tracked objects:
  5150 ;;		On entry : 0/0
  5151 ;;		On exit  : 0/0
  5152 ;;		Unchanged: 0/0
  5153 ;; Data sizes:     COMRAM   BANK0   BANK1   BANK2   BANK3   BANK4   BANK5   BANK6   BANK7   BANK8   BANK9  BANK10  BANK1
      +1  BANK12  BANK13  BANK14  BANK15
  5154 ;;      Params:         5       0       0       0       0       0       0       0       0       0       0       0       
      +0       0       0       0       0
  5155 ;;      Locals:         1       0       0       0       0       0       0       0       0       0       0       0       
      +0       0       0       0       0
  5156 ;;      Temps:          0       0       0       0       0       0       0       0       0       0       0       0       
      +0       0       0       0       0
  5157 ;;      Totals:         6       0       0       0       0       0       0       0       0       0       0       0       
      +0       0       0       0       0
  5158 ;;Total ram usage:        6 bytes
  5159 ;; Hardware stack levels used: 1
  5160 ;; Hardware stack levels required when called: 6
  5161 ;; This function calls:
  5162 ;;		_lcd_4bit_send_char_data
  5163 ;;		_lcd_4bit_set_cursor
  5164 ;; This function is called by:
  5165 ;;		_main
  5166 ;;		_Air_Conditioning_On
  5167 ;; This function uses a non-reentrant model
  5168 ;;
  5169                           
  5170                           	psect	text30
  5171   00278E                     __ptext30:
  5172                           	callstack 0
  5173   00278E                     _lcd_4bit_send_string_pos:
  5174                           	callstack 24
  5175   00278E                     
  5176                           ;ECU_Layer/Chr_LCD/ecu_chr_lcd.c: 161:     if(((void*)0) == lcd){
  5177   00278E  5016               	movf	lcd_4bit_send_string_pos@lcd^0,w,c
  5178   002790  A4D8               	btfss	status,2,c
  5179   002792  EFCD  F013         	goto	u7071
  5180   002796  EFCF  F013         	goto	u7070
  5181   00279A                     u7071:
  5182   00279A  EFD3  F013         	goto	l7757
  5183   00279E                     u7070:
  5184   00279E                     
  5185                           ;ECU_Layer/Chr_LCD/ecu_chr_lcd.c: 162:         ret = (std_ReturnType) 0x00;
  5186   00279E  0E00               	movlw	0
  5187   0027A0  6E1B               	movwf	lcd_4bit_send_string_pos@ret^0,c
  5188                           
  5189                           ;ECU_Layer/Chr_LCD/ecu_chr_lcd.c: 163:     }
  5190   0027A2  EF10  F014         	goto	l7765
  5191   0027A6                     l7757:
  5192                           
  5193                           ;ECU_Layer/Chr_LCD/ecu_chr_lcd.c: 165:         ret = lcd_4bit_set_cursor(lcd, row, colum
      +                          n);
  5194   0027A6  C016  F010         	movff	lcd_4bit_send_string_pos@lcd,lcd_4bit_set_cursor@lcd
  5195   0027AA  C017  F011         	movff	lcd_4bit_send_string_pos@row,lcd_4bit_set_cursor@row
  5196   0027AE  C018  F012         	movff	lcd_4bit_send_string_pos@column,lcd_4bit_set_cursor@coulmn
  5197   0027B2  EC7B  F013         	call	_lcd_4bit_set_cursor	;wreg free
  5198   0027B6  6E1B               	movwf	lcd_4bit_send_string_pos@ret^0,c
  5199                           
  5200                           ;ECU_Layer/Chr_LCD/ecu_chr_lcd.c: 166:         while(*str){
  5201   0027B8  EFF7  F013         	goto	l7763
  5202   0027BC                     l7759:
  5203                           
  5204                           ;ECU_Layer/Chr_LCD/ecu_chr_lcd.c: 167:             ret = lcd_4bit_send_char_data(lcd, *s
      +                          tr++);
  5205   0027BC  C016  F00D         	movff	lcd_4bit_send_string_pos@lcd,lcd_4bit_send_char_data@lcd
  5206   0027C0  C019  FFF6         	movff	lcd_4bit_send_string_pos@str,tblptrl
  5207   0027C4  C01A  FFF7         	movff	lcd_4bit_send_string_pos@str+1,tblptrh
  5208   0027C8  0E00               	movlw	low (__smallconst shr (0+16))
  5209   0027CA  6EF8               	movwf	tblptru,c
  5210   0027CC  0E0F               	movlw	(high __ramtop+-1)
  5211   0027CE  64F7               	cpfsgt	tblptrh,c
  5212   0027D0  D003               	bra	u7087
  5213   0027D2  0008               	tblrd		*
  5214   0027D4  50F5               	movf	tablat,w,c
  5215   0027D6  D005               	bra	u7080
  5216   0027D8                     u7087:
  5217   0027D8  CFF6 FFE9          	movff	tblptrl,fsr0l
  5218   0027DC  CFF7 FFEA          	movff	tblptrh,fsr0h
  5219   0027E0  50EF               	movf	indf0,w,c
  5220   0027E2                     u7080:
  5221   0027E2  6E0E               	movwf	lcd_4bit_send_char_data@data^0,c
  5222   0027E4  EC05  F016         	call	_lcd_4bit_send_char_data	;wreg free
  5223   0027E8  6E1B               	movwf	lcd_4bit_send_string_pos@ret^0,c
  5224   0027EA  4A19               	infsnz	lcd_4bit_send_string_pos@str^0,f,c
  5225   0027EC  2A1A               	incf	(lcd_4bit_send_string_pos@str+1)^0,f,c
  5226   0027EE                     l7763:
  5227                           
  5228                           ;ECU_Layer/Chr_LCD/ecu_chr_lcd.c: 166:         while(*str){
  5229   0027EE  C019  FFF6         	movff	lcd_4bit_send_string_pos@str,tblptrl
  5230   0027F2  C01A  FFF7         	movff	lcd_4bit_send_string_pos@str+1,tblptrh
  5231   0027F6  0E00               	movlw	low (__smallconst shr (0+16))
  5232   0027F8  6EF8               	movwf	tblptru,c
  5233   0027FA  0E0F               	movlw	(high __ramtop+-1)
  5234   0027FC  64F7               	cpfsgt	tblptrh,c
  5235   0027FE  D003               	bra	u7097
  5236   002800  0008               	tblrd		*
  5237   002802  50F5               	movf	tablat,w,c
  5238   002804  D005               	bra	u7090
  5239   002806                     u7097:
  5240   002806  CFF6 FFE9          	movff	tblptrl,fsr0l
  5241   00280A  CFF7 FFEA          	movff	tblptrh,fsr0h
  5242   00280E  50EF               	movf	indf0,w,c
  5243   002810                     u7090:
  5244   002810  0900               	iorlw	0
  5245   002812  A4D8               	btfss	status,2,c
  5246   002814  EF0E  F014         	goto	u7101
  5247   002818  EF10  F014         	goto	u7100
  5248   00281C                     u7101:
  5249   00281C  EFDE  F013         	goto	l7759
  5250   002820                     u7100:
  5251   002820                     l7765:
  5252                           
  5253                           ;ECU_Layer/Chr_LCD/ecu_chr_lcd.c: 170:     return ret;
  5254   002820  501B               	movf	lcd_4bit_send_string_pos@ret^0,w,c
  5255   002822  0012               	return		;funcret
  5256   002824                     __end_of_lcd_4bit_send_string_pos:
  5257                           	callstack 0
  5258                           
  5259 ;; *************** function _lcd_4bit_set_cursor *****************
  5260 ;; Defined at:
  5261 ;;		line 521 in file "ECU_Layer/Chr_LCD/ecu_chr_lcd.c"
  5262 ;; Parameters:    Size  Location     Type
  5263 ;;  lcd             1   15[COMRAM] PTR const struct .
  5264 ;;		 -> lcd_1(6), 
  5265 ;;  row             1   16[COMRAM] unsigned char 
  5266 ;;  coulmn          1   17[COMRAM] unsigned char 
  5267 ;; Auto vars:     Size  Location     Type
  5268 ;;  ret             1   20[COMRAM] unsigned char 
  5269 ;; Return value:  Size  Location     Type
  5270 ;;                  1    wreg      unsigned char 
  5271 ;; Registers used:
  5272 ;;		wreg, fsr2l, fsr2h, status,2, status,0, prodl, prodh, cstack
  5273 ;; Tracked objects:
  5274 ;;		On entry : 0/0
  5275 ;;		On exit  : 0/0
  5276 ;;		Unchanged: 0/0
  5277 ;; Data sizes:     COMRAM   BANK0   BANK1   BANK2   BANK3   BANK4   BANK5   BANK6   BANK7   BANK8   BANK9  BANK10  BANK1
      +1  BANK12  BANK13  BANK14  BANK15
  5278 ;;      Params:         3       0       0       0       0       0       0       0       0       0       0       0       
      +0       0       0       0       0
  5279 ;;      Locals:         1       0       0       0       0       0       0       0       0       0       0       0       
      +0       0       0       0       0
  5280 ;;      Temps:          2       0       0       0       0       0       0       0       0       0       0       0       
      +0       0       0       0       0
  5281 ;;      Totals:         6       0       0       0       0       0       0       0       0       0       0       0       
      +0       0       0       0       0
  5282 ;;Total ram usage:        6 bytes
  5283 ;; Hardware stack levels used: 1
  5284 ;; Hardware stack levels required when called: 5
  5285 ;; This function calls:
  5286 ;;		_lcd_4bit_send_command
  5287 ;; This function is called by:
  5288 ;;		_lcd_4bit_send_string_pos
  5289 ;;		_lcd_4bit_send_char_data_pos
  5290 ;; This function uses a non-reentrant model
  5291 ;;
  5292                           
  5293                           	psect	text31
  5294   0026F6                     __ptext31:
  5295                           	callstack 0
  5296   0026F6                     _lcd_4bit_set_cursor:
  5297                           	callstack 24
  5298   0026F6                     
  5299                           ;ECU_Layer/Chr_LCD/ecu_chr_lcd.c: 522:     Std_ReturnType ret = (std_ReturnType) 0x01;
  5300   0026F6  0E01               	movlw	1
  5301   0026F8  6E15               	movwf	lcd_4bit_set_cursor@ret^0,c
  5302   0026FA                     
  5303                           ;ECU_Layer/Chr_LCD/ecu_chr_lcd.c: 523:     coulmn--;
  5304   0026FA  0612               	decf	lcd_4bit_set_cursor@coulmn^0,f,c
  5305                           
  5306                           ;ECU_Layer/Chr_LCD/ecu_chr_lcd.c: 524:     switch(row){
  5307   0026FC  EFA8  F013         	goto	l7677
  5308   002700                     l7669:
  5309   002700  C010  F00D         	movff	lcd_4bit_set_cursor@lcd,lcd_4bit_send_command@lcd
  5310   002704  5012               	movf	lcd_4bit_set_cursor@coulmn^0,w,c
  5311   002706  0F80               	addlw	128
  5312   002708  6E0E               	movwf	lcd_4bit_send_command@command^0,c
  5313   00270A  EC88  F015         	call	_lcd_4bit_send_command	;wreg free
  5314   00270E  6E15               	movwf	lcd_4bit_set_cursor@ret^0,c
  5315   002710  EFC5  F013         	goto	l7679
  5316   002714                     l7671:
  5317   002714  C010  F00D         	movff	lcd_4bit_set_cursor@lcd,lcd_4bit_send_command@lcd
  5318   002718  5012               	movf	lcd_4bit_set_cursor@coulmn^0,w,c
  5319   00271A  0FC0               	addlw	192
  5320   00271C  6E0E               	movwf	lcd_4bit_send_command@command^0,c
  5321   00271E  EC88  F015         	call	_lcd_4bit_send_command	;wreg free
  5322   002722  6E15               	movwf	lcd_4bit_set_cursor@ret^0,c
  5323   002724  EFC5  F013         	goto	l7679
  5324   002728                     l7673:
  5325   002728  C010  F00D         	movff	lcd_4bit_set_cursor@lcd,lcd_4bit_send_command@lcd
  5326   00272C  5012               	movf	lcd_4bit_set_cursor@coulmn^0,w,c
  5327   00272E  0F94               	addlw	148
  5328   002730  6E0E               	movwf	lcd_4bit_send_command@command^0,c
  5329   002732  EC88  F015         	call	_lcd_4bit_send_command	;wreg free
  5330   002736  6E15               	movwf	lcd_4bit_set_cursor@ret^0,c
  5331   002738  EFC5  F013         	goto	l7679
  5332   00273C                     l7675:
  5333   00273C  C010  F00D         	movff	lcd_4bit_set_cursor@lcd,lcd_4bit_send_command@lcd
  5334   002740  5012               	movf	lcd_4bit_set_cursor@coulmn^0,w,c
  5335   002742  0FD4               	addlw	212
  5336   002744  6E0E               	movwf	lcd_4bit_send_command@command^0,c
  5337   002746  EC88  F015         	call	_lcd_4bit_send_command	;wreg free
  5338   00274A  6E15               	movwf	lcd_4bit_set_cursor@ret^0,c
  5339   00274C  EFC5  F013         	goto	l7679
  5340   002750                     l7677:
  5341   002750  5011               	movf	lcd_4bit_set_cursor@row^0,w,c
  5342   002752  6E13               	movwf	??_lcd_4bit_set_cursor^0,c
  5343   002754  6A14               	clrf	(??_lcd_4bit_set_cursor+1)^0,c
  5344                           
  5345                           ; Switch on 2 bytes has been partitioned into a top level switch of size 1, and 1 sub-sw
      +                          itches
  5346                           ; Switch size 1, requested type "simple"
  5347                           ; Number of cases is 1, Range of values is 0 to 0
  5348                           ; switch strategies available:
  5349                           ; Name         Instructions Cycles
  5350                           ; simple_byte            4     3 (average)
  5351                           ;	Chosen strategy is simple_byte
  5352   002756  5014               	movf	(??_lcd_4bit_set_cursor+1)^0,w,c
  5353   002758  0A00               	xorlw	0	; case 0
  5354   00275A  B4D8               	btfsc	status,2,c
  5355   00275C  EFB2  F013         	goto	l9015
  5356   002760  EFC5  F013         	goto	l7679
  5357   002764                     l9015:
  5358                           
  5359                           ; Switch size 1, requested type "simple"
  5360                           ; Number of cases is 4, Range of values is 1 to 4
  5361                           ; switch strategies available:
  5362                           ; Name         Instructions Cycles
  5363                           ; simple_byte           13     7 (average)
  5364                           ;	Chosen strategy is simple_byte
  5365   002764  5013               	movf	??_lcd_4bit_set_cursor^0,w,c
  5366   002766  0A01               	xorlw	1	; case 1
  5367   002768  B4D8               	btfsc	status,2,c
  5368   00276A  EF80  F013         	goto	l7669
  5369   00276E  0A03               	xorlw	3	; case 2
  5370   002770  B4D8               	btfsc	status,2,c
  5371   002772  EF8A  F013         	goto	l7671
  5372   002776  0A01               	xorlw	1	; case 3
  5373   002778  B4D8               	btfsc	status,2,c
  5374   00277A  EF94  F013         	goto	l7673
  5375   00277E  0A07               	xorlw	7	; case 4
  5376   002780  B4D8               	btfsc	status,2,c
  5377   002782  EF9E  F013         	goto	l7675
  5378   002786  EFC5  F013         	goto	l7679
  5379   00278A                     l7679:
  5380                           
  5381                           ;ECU_Layer/Chr_LCD/ecu_chr_lcd.c: 531:     return ret;
  5382   00278A  5015               	movf	lcd_4bit_set_cursor@ret^0,w,c
  5383   00278C  0012               	return		;funcret
  5384   00278E                     __end_of_lcd_4bit_set_cursor:
  5385                           	callstack 0
  5386                           
  5387 ;; *************** function _lcd_4bit_send_command *****************
  5388 ;; Defined at:
  5389 ;;		line 61 in file "ECU_Layer/Chr_LCD/ecu_chr_lcd.c"
  5390 ;; Parameters:    Size  Location     Type
  5391 ;;  lcd             1   12[COMRAM] PTR const struct .
  5392 ;;		 -> lcd_1(6), 
  5393 ;;  command         1   13[COMRAM] unsigned char 
  5394 ;; Auto vars:     Size  Location     Type
  5395 ;;  ret             1   14[COMRAM] unsigned char 
  5396 ;; Return value:  Size  Location     Type
  5397 ;;                  1    wreg      unsigned char 
  5398 ;; Registers used:
  5399 ;;		wreg, fsr2l, fsr2h, status,2, status,0, prodl, prodh, cstack
  5400 ;; Tracked objects:
  5401 ;;		On entry : 0/0
  5402 ;;		On exit  : 0/0
  5403 ;;		Unchanged: 0/0
  5404 ;; Data sizes:     COMRAM   BANK0   BANK1   BANK2   BANK3   BANK4   BANK5   BANK6   BANK7   BANK8   BANK9  BANK10  BANK1
      +1  BANK12  BANK13  BANK14  BANK15
  5405 ;;      Params:         2       0       0       0       0       0       0       0       0       0       0       0       
      +0       0       0       0       0
  5406 ;;      Locals:         1       0       0       0       0       0       0       0       0       0       0       0       
      +0       0       0       0       0
  5407 ;;      Temps:          0       0       0       0       0       0       0       0       0       0       0       0       
      +0       0       0       0       0
  5408 ;;      Totals:         3       0       0       0       0       0       0       0       0       0       0       0       
      +0       0       0       0       0
  5409 ;;Total ram usage:        3 bytes
  5410 ;; Hardware stack levels used: 1
  5411 ;; Hardware stack levels required when called: 4
  5412 ;; This function calls:
  5413 ;;		_gpio_pin_write_logic
  5414 ;;		_lcd_4bit_send_enable_signal
  5415 ;;		_lcd_send_4bits
  5416 ;; This function is called by:
  5417 ;;		_lcd_4bit_intialize
  5418 ;;		_lcd_4bit_set_cursor
  5419 ;;		_Air_Conditioning_On
  5420 ;;		_lcd_4bit_send_custom_char
  5421 ;; This function uses a non-reentrant model
  5422 ;;
  5423                           
  5424                           	psect	text32
  5425   002B10                     __ptext32:
  5426                           	callstack 0
  5427   002B10                     _lcd_4bit_send_command:
  5428                           	callstack 24
  5429   002B10                     
  5430                           ;ECU_Layer/Chr_LCD/ecu_chr_lcd.c: 63:     if(((void*)0) == lcd){
  5431   002B10  500D               	movf	lcd_4bit_send_command@lcd^0,w,c
  5432   002B12  A4D8               	btfss	status,2,c
  5433   002B14  EF8E  F015         	goto	u6841
  5434   002B18  EF90  F015         	goto	u6840
  5435   002B1C                     u6841:
  5436   002B1C  EF94  F015         	goto	l7505
  5437   002B20                     u6840:
  5438   002B20                     
  5439                           ;ECU_Layer/Chr_LCD/ecu_chr_lcd.c: 64:         ret = (std_ReturnType) 0x00;
  5440   002B20  0E00               	movlw	0
  5441   002B22  6E0F               	movwf	lcd_4bit_send_command@ret^0,c
  5442                           
  5443                           ;ECU_Layer/Chr_LCD/ecu_chr_lcd.c: 65:     }
  5444   002B24  EFB4  F015         	goto	l7507
  5445   002B28                     l7505:
  5446                           
  5447                           ;ECU_Layer/Chr_LCD/ecu_chr_lcd.c: 69:         ret = gpio_pin_write_logic(&(lcd->lcd_rs),
      +                           0x00);
  5448   002B28  C00D  F002         	movff	lcd_4bit_send_command@lcd,gpio_pin_write_logic@_pin_config
  5449   002B2C  0E00               	movlw	0
  5450   002B2E  6E03               	movwf	gpio_pin_write_logic@logic^0,c
  5451   002B30  EC83  F00F         	call	_gpio_pin_write_logic	;wreg free
  5452   002B34  6E0F               	movwf	lcd_4bit_send_command@ret^0,c
  5453                           
  5454                           ;ECU_Layer/Chr_LCD/ecu_chr_lcd.c: 71:         ret = lcd_send_4bits(lcd, command >> 4);
  5455   002B36  C00D  F00A         	movff	lcd_4bit_send_command@lcd,lcd_send_4bits@lcd
  5456   002B3A  380E               	swapf	lcd_4bit_send_command@command^0,w,c
  5457   002B3C  0B0F               	andlw	15
  5458   002B3E  6E0B               	movwf	lcd_send_4bits@_data_command^0,c
  5459   002B40  ECB6  F015         	call	_lcd_send_4bits	;wreg free
  5460   002B44  6E0F               	movwf	lcd_4bit_send_command@ret^0,c
  5461                           
  5462                           ;ECU_Layer/Chr_LCD/ecu_chr_lcd.c: 73:         ret = lcd_4bit_send_enable_signal(lcd);
  5463   002B46  C00D  F00A         	movff	lcd_4bit_send_command@lcd,lcd_4bit_send_enable_signal@lcd
  5464   002B4A  EC6F  F017         	call	_lcd_4bit_send_enable_signal	;wreg free
  5465   002B4E  6E0F               	movwf	lcd_4bit_send_command@ret^0,c
  5466                           
  5467                           ;ECU_Layer/Chr_LCD/ecu_chr_lcd.c: 75:         ret = lcd_send_4bits(lcd, command);
  5468   002B50  C00D  F00A         	movff	lcd_4bit_send_command@lcd,lcd_send_4bits@lcd
  5469   002B54  C00E  F00B         	movff	lcd_4bit_send_command@command,lcd_send_4bits@_data_command
  5470   002B58  ECB6  F015         	call	_lcd_send_4bits	;wreg free
  5471   002B5C  6E0F               	movwf	lcd_4bit_send_command@ret^0,c
  5472                           
  5473                           ;ECU_Layer/Chr_LCD/ecu_chr_lcd.c: 77:         ret = lcd_4bit_send_enable_signal(lcd);
  5474   002B5E  C00D  F00A         	movff	lcd_4bit_send_command@lcd,lcd_4bit_send_enable_signal@lcd
  5475   002B62  EC6F  F017         	call	_lcd_4bit_send_enable_signal	;wreg free
  5476   002B66  6E0F               	movwf	lcd_4bit_send_command@ret^0,c
  5477   002B68                     l7507:
  5478                           
  5479                           ;ECU_Layer/Chr_LCD/ecu_chr_lcd.c: 79:     return ret;
  5480   002B68  500F               	movf	lcd_4bit_send_command@ret^0,w,c
  5481   002B6A  0012               	return		;funcret
  5482   002B6C                     __end_of_lcd_4bit_send_command:
  5483                           	callstack 0
  5484                           
  5485 ;; *************** function _lcd_4bit_send_char_data *****************
  5486 ;; Defined at:
  5487 ;;		line 90 in file "ECU_Layer/Chr_LCD/ecu_chr_lcd.c"
  5488 ;; Parameters:    Size  Location     Type
  5489 ;;  lcd             1   12[COMRAM] PTR const struct .
  5490 ;;		 -> lcd_1(6), 
  5491 ;;  data            1   13[COMRAM] unsigned char 
  5492 ;; Auto vars:     Size  Location     Type
  5493 ;;  ret             1    0        unsigned char 
  5494 ;; Return value:  Size  Location     Type
  5495 ;;                  1    wreg      unsigned char 
  5496 ;; Registers used:
  5497 ;;		wreg, fsr2l, fsr2h, status,2, status,0, prodl, prodh, cstack
  5498 ;; Tracked objects:
  5499 ;;		On entry : 0/0
  5500 ;;		On exit  : 0/0
  5501 ;;		Unchanged: 0/0
  5502 ;; Data sizes:     COMRAM   BANK0   BANK1   BANK2   BANK3   BANK4   BANK5   BANK6   BANK7   BANK8   BANK9  BANK10  BANK1
      +1  BANK12  BANK13  BANK14  BANK15
  5503 ;;      Params:         2       0       0       0       0       0       0       0       0       0       0       0       
      +0       0       0       0       0
  5504 ;;      Locals:         0       0       0       0       0       0       0       0       0       0       0       0       
      +0       0       0       0       0
  5505 ;;      Temps:          0       0       0       0       0       0       0       0       0       0       0       0       
      +0       0       0       0       0
  5506 ;;      Totals:         2       0       0       0       0       0       0       0       0       0       0       0       
      +0       0       0       0       0
  5507 ;;Total ram usage:        2 bytes
  5508 ;; Hardware stack levels used: 1
  5509 ;; Hardware stack levels required when called: 4
  5510 ;; This function calls:
  5511 ;;		_gpio_pin_write_logic
  5512 ;;		_lcd_4bit_send_enable_signal
  5513 ;;		_lcd_send_4bits
  5514 ;; This function is called by:
  5515 ;;		_lcd_4bit_send_string_pos
  5516 ;;		_lcd_4bit_send_char_data_pos
  5517 ;;		_lcd_4bit_send_string
  5518 ;;		_lcd_4bit_send_custom_char
  5519 ;; This function uses a non-reentrant model
  5520 ;;
  5521                           
  5522                           	psect	text33
  5523   002C0A                     __ptext33:
  5524                           	callstack 0
  5525   002C0A                     _lcd_4bit_send_char_data:
  5526                           	callstack 25
  5527   002C0A                     
  5528                           ;ECU_Layer/Chr_LCD/ecu_chr_lcd.c: 92:     if(((void*)0) == lcd){
  5529   002C0A  500D               	movf	lcd_4bit_send_char_data@lcd^0,w,c
  5530   002C0C  A4D8               	btfss	status,2,c
  5531   002C0E  EF0B  F016         	goto	u7011
  5532   002C12  EF0D  F016         	goto	u7010
  5533   002C16                     u7011:
  5534   002C16  EF0D  F016         	goto	l7655
  5535   002C1A                     u7010:
  5536   002C1A                     l7655:
  5537   002C1A  C00D  F002         	movff	lcd_4bit_send_char_data@lcd,gpio_pin_write_logic@_pin_config
  5538   002C1E  0E01               	movlw	1
  5539   002C20  6E03               	movwf	gpio_pin_write_logic@logic^0,c
  5540   002C22  EC83  F00F         	call	_gpio_pin_write_logic	;wreg free
  5541   002C26  C00D  F00A         	movff	lcd_4bit_send_char_data@lcd,lcd_send_4bits@lcd
  5542   002C2A  380E               	swapf	lcd_4bit_send_char_data@data^0,w,c
  5543   002C2C  0B0F               	andlw	15
  5544   002C2E  6E0B               	movwf	lcd_send_4bits@_data_command^0,c
  5545   002C30  ECB6  F015         	call	_lcd_send_4bits	;wreg free
  5546   002C34  C00D  F00A         	movff	lcd_4bit_send_char_data@lcd,lcd_4bit_send_enable_signal@lcd
  5547   002C38  EC6F  F017         	call	_lcd_4bit_send_enable_signal	;wreg free
  5548   002C3C  C00D  F00A         	movff	lcd_4bit_send_char_data@lcd,lcd_send_4bits@lcd
  5549   002C40  C00E  F00B         	movff	lcd_4bit_send_char_data@data,lcd_send_4bits@_data_command
  5550   002C44  ECB6  F015         	call	_lcd_send_4bits	;wreg free
  5551   002C48  C00D  F00A         	movff	lcd_4bit_send_char_data@lcd,lcd_4bit_send_enable_signal@lcd
  5552   002C4C  EC6F  F017         	call	_lcd_4bit_send_enable_signal	;wreg free
  5553   002C50  0012               	return		;funcret
  5554   002C52                     __end_of_lcd_4bit_send_char_data:
  5555                           	callstack 0
  5556                           
  5557 ;; *************** function _lcd_send_4bits *****************
  5558 ;; Defined at:
  5559 ;;		line 451 in file "ECU_Layer/Chr_LCD/ecu_chr_lcd.c"
  5560 ;; Parameters:    Size  Location     Type
  5561 ;;  lcd             1    9[COMRAM] PTR const struct .
  5562 ;;		 -> lcd_1(6), 
  5563 ;;  _data_comman    1   10[COMRAM] unsigned char 
  5564 ;; Auto vars:     Size  Location     Type
  5565 ;;  ret             1   11[COMRAM] unsigned char 
  5566 ;; Return value:  Size  Location     Type
  5567 ;;                  1    wreg      unsigned char 
  5568 ;; Registers used:
  5569 ;;		wreg, fsr2l, fsr2h, status,2, status,0, prodl, prodh, cstack
  5570 ;; Tracked objects:
  5571 ;;		On entry : 0/0
  5572 ;;		On exit  : 0/0
  5573 ;;		Unchanged: 0/0
  5574 ;; Data sizes:     COMRAM   BANK0   BANK1   BANK2   BANK3   BANK4   BANK5   BANK6   BANK7   BANK8   BANK9  BANK10  BANK1
      +1  BANK12  BANK13  BANK14  BANK15
  5575 ;;      Params:         2       0       0       0       0       0       0       0       0       0       0       0       
      +0       0       0       0       0
  5576 ;;      Locals:         1       0       0       0       0       0       0       0       0       0       0       0       
      +0       0       0       0       0
  5577 ;;      Temps:          0       0       0       0       0       0       0       0       0       0       0       0       
      +0       0       0       0       0
  5578 ;;      Totals:         3       0       0       0       0       0       0       0       0       0       0       0       
      +0       0       0       0       0
  5579 ;;Total ram usage:        3 bytes
  5580 ;; Hardware stack levels used: 1
  5581 ;; Hardware stack levels required when called: 3
  5582 ;; This function calls:
  5583 ;;		_gpio_pin_write_logic
  5584 ;; This function is called by:
  5585 ;;		_lcd_4bit_send_command
  5586 ;;		_lcd_4bit_send_char_data
  5587 ;; This function uses a non-reentrant model
  5588 ;;
  5589                           
  5590                           	psect	text34
  5591   002B6C                     __ptext34:
  5592                           	callstack 0
  5593   002B6C                     _lcd_send_4bits:
  5594                           	callstack 24
  5595   002B6C  500A               	movf	lcd_send_4bits@lcd^0,w,c
  5596   002B6E  0F02               	addlw	2
  5597   002B70  6E02               	movwf	gpio_pin_write_logic@_pin_config^0,c
  5598   002B72  500B               	movf	lcd_send_4bits@_data_command^0,w,c
  5599   002B74  0B01               	andlw	1
  5600   002B76  6E03               	movwf	gpio_pin_write_logic@logic^0,c
  5601   002B78  EC83  F00F         	call	_gpio_pin_write_logic	;wreg free
  5602   002B7C  500A               	movf	lcd_send_4bits@lcd^0,w,c
  5603   002B7E  0F03               	addlw	3
  5604   002B80  6E02               	movwf	gpio_pin_write_logic@_pin_config^0,c
  5605   002B82  90D8               	bcf	status,0,c
  5606   002B84  300B               	rrcf	lcd_send_4bits@_data_command^0,w,c
  5607   002B86  0B01               	andlw	1
  5608   002B88  6E03               	movwf	gpio_pin_write_logic@logic^0,c
  5609   002B8A  EC83  F00F         	call	_gpio_pin_write_logic	;wreg free
  5610   002B8E  500A               	movf	lcd_send_4bits@lcd^0,w,c
  5611   002B90  0F04               	addlw	4
  5612   002B92  6E02               	movwf	gpio_pin_write_logic@_pin_config^0,c
  5613   002B94  400B               	rrncf	lcd_send_4bits@_data_command^0,w,c
  5614   002B96  42E8               	rrncf	wreg,f,c
  5615   002B98  0B3F               	andlw	63
  5616   002B9A  0B01               	andlw	1
  5617   002B9C  6E03               	movwf	gpio_pin_write_logic@logic^0,c
  5618   002B9E  EC83  F00F         	call	_gpio_pin_write_logic	;wreg free
  5619   002BA2                     
  5620                           ;ECU_Layer/Chr_LCD/ecu_chr_lcd.c: 456:     ret = gpio_pin_write_logic(&(lcd->lcd_data[3]
      +                          ), (_data_command >> 3) & (uint8)0x01);
  5621   002BA2  500A               	movf	lcd_send_4bits@lcd^0,w,c
  5622   002BA4  0F05               	addlw	5
  5623   002BA6  6E02               	movwf	gpio_pin_write_logic@_pin_config^0,c
  5624   002BA8  380B               	swapf	lcd_send_4bits@_data_command^0,w,c
  5625   002BAA  46E8               	rlncf	wreg,f,c
  5626   002BAC  0B1F               	andlw	31
  5627   002BAE  0B01               	andlw	1
  5628   002BB0  6E03               	movwf	gpio_pin_write_logic@logic^0,c
  5629   002BB2  EC83  F00F         	call	_gpio_pin_write_logic	;wreg free
  5630   002BB6  6E0C               	movwf	lcd_send_4bits@ret^0,c
  5631                           
  5632                           ;ECU_Layer/Chr_LCD/ecu_chr_lcd.c: 457:     return ret;
  5633   002BB8  500C               	movf	lcd_send_4bits@ret^0,w,c
  5634   002BBA  0012               	return		;funcret
  5635   002BBC                     __end_of_lcd_send_4bits:
  5636                           	callstack 0
  5637                           
  5638 ;; *************** function _lcd_4bit_send_enable_signal *****************
  5639 ;; Defined at:
  5640 ;;		line 467 in file "ECU_Layer/Chr_LCD/ecu_chr_lcd.c"
  5641 ;; Parameters:    Size  Location     Type
  5642 ;;  lcd             1    9[COMRAM] PTR const struct .
  5643 ;;		 -> lcd_1(6), 
  5644 ;; Auto vars:     Size  Location     Type
  5645 ;;  ret             1   10[COMRAM] unsigned char 
  5646 ;; Return value:  Size  Location     Type
  5647 ;;                  1    wreg      unsigned char 
  5648 ;; Registers used:
  5649 ;;		wreg, fsr2l, fsr2h, status,2, status,0, prodl, prodh, cstack
  5650 ;; Tracked objects:
  5651 ;;		On entry : 0/0
  5652 ;;		On exit  : 0/0
  5653 ;;		Unchanged: 0/0
  5654 ;; Data sizes:     COMRAM   BANK0   BANK1   BANK2   BANK3   BANK4   BANK5   BANK6   BANK7   BANK8   BANK9  BANK10  BANK1
      +1  BANK12  BANK13  BANK14  BANK15
  5655 ;;      Params:         1       0       0       0       0       0       0       0       0       0       0       0       
      +0       0       0       0       0
  5656 ;;      Locals:         1       0       0       0       0       0       0       0       0       0       0       0       
      +0       0       0       0       0
  5657 ;;      Temps:          0       0       0       0       0       0       0       0       0       0       0       0       
      +0       0       0       0       0
  5658 ;;      Totals:         2       0       0       0       0       0       0       0       0       0       0       0       
      +0       0       0       0       0
  5659 ;;Total ram usage:        2 bytes
  5660 ;; Hardware stack levels used: 1
  5661 ;; Hardware stack levels required when called: 3
  5662 ;; This function calls:
  5663 ;;		_gpio_pin_write_logic
  5664 ;; This function is called by:
  5665 ;;		_lcd_4bit_send_command
  5666 ;;		_lcd_4bit_send_char_data
  5667 ;; This function uses a non-reentrant model
  5668 ;;
  5669                           
  5670                           	psect	text35
  5671   002EDE                     __ptext35:
  5672                           	callstack 0
  5673   002EDE                     _lcd_4bit_send_enable_signal:
  5674                           	callstack 24
  5675   002EDE  280A               	incf	lcd_4bit_send_enable_signal@lcd^0,w,c
  5676   002EE0  6E02               	movwf	gpio_pin_write_logic@_pin_config^0,c
  5677   002EE2  0E01               	movlw	1
  5678   002EE4  6E03               	movwf	gpio_pin_write_logic@logic^0,c
  5679   002EE6  EC83  F00F         	call	_gpio_pin_write_logic	;wreg free
  5680   002EEA                     
  5681                           ;ECU_Layer/Chr_LCD/ecu_chr_lcd.c: 470:     _delay((unsigned long)((5)*(8000000/4000000.0
      +                          )));
  5682   002EEA  0E03               	movlw	3
  5683   002EEC                     u8477:
  5684   002EEC  2EE8               	decfsz	wreg,f,c
  5685   002EEE  D7FE               	bra	u8477
  5686   002EF0  0000               	nop	
  5687   002EF2                     
  5688                           ;ECU_Layer/Chr_LCD/ecu_chr_lcd.c: 471:     ret = gpio_pin_write_logic(&(lcd->lcd_en), 0x
      +                          00);
  5689   002EF2  280A               	incf	lcd_4bit_send_enable_signal@lcd^0,w,c
  5690   002EF4  6E02               	movwf	gpio_pin_write_logic@_pin_config^0,c
  5691   002EF6  0E00               	movlw	0
  5692   002EF8  6E03               	movwf	gpio_pin_write_logic@logic^0,c
  5693   002EFA  EC83  F00F         	call	_gpio_pin_write_logic	;wreg free
  5694   002EFE  6E0B               	movwf	lcd_4bit_send_enable_signal@ret^0,c
  5695   002F00                     
  5696                           ;ECU_Layer/Chr_LCD/ecu_chr_lcd.c: 472:     return ret;
  5697   002F00  500B               	movf	lcd_4bit_send_enable_signal@ret^0,w,c
  5698   002F02  0012               	return		;funcret
  5699   002F04                     __end_of_lcd_4bit_send_enable_signal:
  5700                           	callstack 0
  5701                           
  5702 ;; *************** function _gpio_pin_write_logic *****************
  5703 ;; Defined at:
  5704 ;;		line 78 in file "MCAL_Layer/GPIO/hal_gpio.c"
  5705 ;; Parameters:    Size  Location     Type
  5706 ;;  _pin_config     1    1[COMRAM] PTR const struct .
  5707 ;;		 -> dc_motor_2$dc_motor_pin(2), dc_motor_2(2), dc_motor_1$dc_motor_pin(2), dc_motor_1(2), 
  5708 ;;		 -> lcd_1$lcd_data(4), lcd_1(6), relay_turn_off@pin_obj(1), relay_turn_on@pin_obj(1), 
  5709 ;;		 -> relay_initialize@pin_obj(1), led_turn_off@pin_obj(1), led_turn_on@pin_obj(1), 
  5710 ;;  logic           1    2[COMRAM] enum E2983
  5711 ;; Auto vars:     Size  Location     Type
  5712 ;;  ret             1    8[COMRAM] unsigned char 
  5713 ;; Return value:  Size  Location     Type
  5714 ;;                  1    wreg      unsigned char 
  5715 ;; Registers used:
  5716 ;;		wreg, fsr2l, fsr2h, status,2, status,0, prodl, prodh
  5717 ;; Tracked objects:
  5718 ;;		On entry : 0/0
  5719 ;;		On exit  : 0/0
  5720 ;;		Unchanged: 0/0
  5721 ;; Data sizes:     COMRAM   BANK0   BANK1   BANK2   BANK3   BANK4   BANK5   BANK6   BANK7   BANK8   BANK9  BANK10  BANK1
      +1  BANK12  BANK13  BANK14  BANK15
  5722 ;;      Params:         2       0       0       0       0       0       0       0       0       0       0       0       
      +0       0       0       0       0
  5723 ;;      Locals:         1       0       0       0       0       0       0       0       0       0       0       0       
      +0       0       0       0       0
  5724 ;;      Temps:          5       0       0       0       0       0       0       0       0       0       0       0       
      +0       0       0       0       0
  5725 ;;      Totals:         8       0       0       0       0       0       0       0       0       0       0       0       
      +0       0       0       0       0
  5726 ;;Total ram usage:        8 bytes
  5727 ;; Hardware stack levels used: 1
  5728 ;; Hardware stack levels required when called: 2
  5729 ;; This function calls:
  5730 ;;		Nothing
  5731 ;; This function is called by:
  5732 ;;		_lcd_4bit_send_command
  5733 ;;		_lcd_4bit_send_char_data
  5734 ;;		_lcd_send_4bits
  5735 ;;		_lcd_4bit_send_enable_signal
  5736 ;;		_dc_motor_move_right
  5737 ;;		_dc_motor_stop
  5738 ;;		_led_turn_on
  5739 ;;		_led_turn_off
  5740 ;;		_gpio_pin_initialize
  5741 ;;		_seven_segement_write_number
  5742 ;;		_lcd_8bit_send_command
  5743 ;;		_lcd_8bit_send_char_data
  5744 ;;		_lcd_8bit_send_enable_signal
  5745 ;;		_dc_motor_move_left
  5746 ;;		_keypad_get_value
  5747 ;;		_relay_turn_on
  5748 ;;		_relay_turn_off
  5749 ;; This function uses a non-reentrant model
  5750 ;;
  5751                           
  5752                           	psect	text36
  5753   001F06                     __ptext36:
  5754                           	callstack 0
  5755   001F06                     _gpio_pin_write_logic:
  5756                           	callstack 27
  5757   001F06                     
  5758                           ;MCAL_Layer/GPIO/hal_gpio.c: 79:     std_ReturnType ret = (std_ReturnType) 0x01;
  5759   001F06  0E01               	movlw	1
  5760   001F08  6E09               	movwf	gpio_pin_write_logic@ret^0,c
  5761                           
  5762                           ;MCAL_Layer/GPIO/hal_gpio.c: 80:     if(((void*)0) == _pin_config || _pin_config->pin > 
      +                          8 -1){
  5763   001F0A  5002               	movf	gpio_pin_write_logic@_pin_config^0,w,c
  5764   001F0C  B4D8               	btfsc	status,2,c
  5765   001F0E  EF8B  F00F         	goto	u6551
  5766   001F12  EF8D  F00F         	goto	u6550
  5767   001F16                     u6551:
  5768   001F16  EF9D  F00F         	goto	l7327
  5769   001F1A                     u6550:
  5770   001F1A  5002               	movf	gpio_pin_write_logic@_pin_config^0,w,c
  5771   001F1C  6ED9               	movwf	fsr2l,c
  5772   001F1E  6ADA               	clrf	fsr2h,c
  5773   001F20  30DF               	rrcf	223,w,c
  5774   001F22  32E8               	rrcf	wreg,f,c
  5775   001F24  32E8               	rrcf	wreg,f,c
  5776   001F26  0B07               	andlw	7
  5777   001F28  6E04               	movwf	??_gpio_pin_write_logic^0,c
  5778   001F2A  0E07               	movlw	7
  5779   001F2C  6404               	cpfsgt	??_gpio_pin_write_logic^0,c
  5780   001F2E  EF9B  F00F         	goto	u6561
  5781   001F32  EF9D  F00F         	goto	u6560
  5782   001F36                     u6561:
  5783   001F36  EFF4  F00F         	goto	l7335
  5784   001F3A                     u6560:
  5785   001F3A                     l7327:
  5786                           
  5787                           ;MCAL_Layer/GPIO/hal_gpio.c: 81:         ret = (std_ReturnType) 0x00;
  5788   001F3A  0E00               	movlw	0
  5789   001F3C  6E09               	movwf	gpio_pin_write_logic@ret^0,c
  5790                           
  5791                           ;MCAL_Layer/GPIO/hal_gpio.c: 82:     }
  5792   001F3E  EF09  F010         	goto	l7337
  5793   001F42                     l7329:
  5794                           
  5795                           ;MCAL_Layer/GPIO/hal_gpio.c: 86:                 (*lat_registers[_pin_config->port] &= ~
      +                          ((uint8)1 << _pin_config->pin));
  5796   001F42  5002               	movf	gpio_pin_write_logic@_pin_config^0,w,c
  5797   001F44  6ED9               	movwf	fsr2l,c
  5798   001F46  6ADA               	clrf	fsr2h,c
  5799   001F48  30DF               	rrcf	223,w,c
  5800   001F4A  32E8               	rrcf	wreg,f,c
  5801   001F4C  32E8               	rrcf	wreg,f,c
  5802   001F4E  0B07               	andlw	7
  5803   001F50  6E04               	movwf	??_gpio_pin_write_logic^0,c
  5804   001F52  0E01               	movlw	1
  5805   001F54  6E05               	movwf	(??_gpio_pin_write_logic+1)^0,c
  5806   001F56  2A04               	incf	??_gpio_pin_write_logic^0,f,c
  5807   001F58  EFB0  F00F         	goto	u6574
  5808   001F5C                     u6575:
  5809   001F5C  90D8               	bcf	status,0,c
  5810   001F5E  3605               	rlcf	(??_gpio_pin_write_logic+1)^0,f,c
  5811   001F60                     u6574:
  5812   001F60  2E04               	decfsz	??_gpio_pin_write_logic^0,f,c
  5813   001F62  EFAE  F00F         	goto	u6575
  5814   001F66  5005               	movf	(??_gpio_pin_write_logic+1)^0,w,c
  5815   001F68  0AFF               	xorlw	255
  5816   001F6A  6E06               	movwf	(??_gpio_pin_write_logic+2)^0,c
  5817   001F6C  5002               	movf	gpio_pin_write_logic@_pin_config^0,w,c
  5818   001F6E  6ED9               	movwf	fsr2l,c
  5819   001F70  6ADA               	clrf	fsr2h,c
  5820   001F72  50DF               	movf	223,w,c
  5821   001F74  0B07               	andlw	7
  5822   001F76  0D02               	mullw	2
  5823   001F78  50F3               	movf	243,w,c
  5824   001F7A  0FC7               	addlw	low _lat_registers
  5825   001F7C  6ED9               	movwf	fsr2l,c
  5826   001F7E  6ADA               	clrf	fsr2h,c
  5827   001F80  CFDE F007          	movff	postinc2,??_gpio_pin_write_logic+3
  5828   001F84  CFDD F008          	movff	postdec2,??_gpio_pin_write_logic+4
  5829   001F88  C007  FFD9         	movff	??_gpio_pin_write_logic+3,fsr2l
  5830   001F8C  C008  FFDA         	movff	??_gpio_pin_write_logic+4,fsr2h
  5831   001F90  5006               	movf	(??_gpio_pin_write_logic+2)^0,w,c
  5832   001F92  16DF               	andwf	indf2,f,c
  5833                           
  5834                           ;MCAL_Layer/GPIO/hal_gpio.c: 87:                 break;
  5835   001F94  EF09  F010         	goto	l7337
  5836   001F98                     l7331:
  5837                           
  5838                           ;MCAL_Layer/GPIO/hal_gpio.c: 89:                 (*lat_registers[_pin_config->port] |= (
      +                          (uint8)1<<_pin_config->pin));
  5839   001F98  5002               	movf	gpio_pin_write_logic@_pin_config^0,w,c
  5840   001F9A  6ED9               	movwf	fsr2l,c
  5841   001F9C  6ADA               	clrf	fsr2h,c
  5842   001F9E  30DF               	rrcf	223,w,c
  5843   001FA0  32E8               	rrcf	wreg,f,c
  5844   001FA2  32E8               	rrcf	wreg,f,c
  5845   001FA4  0B07               	andlw	7
  5846   001FA6  6E04               	movwf	??_gpio_pin_write_logic^0,c
  5847   001FA8  0E01               	movlw	1
  5848   001FAA  6E05               	movwf	(??_gpio_pin_write_logic+1)^0,c
  5849   001FAC  2A04               	incf	??_gpio_pin_write_logic^0,f,c
  5850   001FAE  EFDB  F00F         	goto	u6584
  5851   001FB2                     u6585:
  5852   001FB2  90D8               	bcf	status,0,c
  5853   001FB4  3605               	rlcf	(??_gpio_pin_write_logic+1)^0,f,c
  5854   001FB6                     u6584:
  5855   001FB6  2E04               	decfsz	??_gpio_pin_write_logic^0,f,c
  5856   001FB8  EFD9  F00F         	goto	u6585
  5857   001FBC  5002               	movf	gpio_pin_write_logic@_pin_config^0,w,c
  5858   001FBE  6ED9               	movwf	fsr2l,c
  5859   001FC0  6ADA               	clrf	fsr2h,c
  5860   001FC2  50DF               	movf	223,w,c
  5861   001FC4  0B07               	andlw	7
  5862   001FC6  0D02               	mullw	2
  5863   001FC8  50F3               	movf	243,w,c
  5864   001FCA  0FC7               	addlw	low _lat_registers
  5865   001FCC  6ED9               	movwf	fsr2l,c
  5866   001FCE  6ADA               	clrf	fsr2h,c
  5867   001FD0  CFDE F006          	movff	postinc2,??_gpio_pin_write_logic+2
  5868   001FD4  CFDD F007          	movff	postdec2,??_gpio_pin_write_logic+3
  5869   001FD8  C006  FFD9         	movff	??_gpio_pin_write_logic+2,fsr2l
  5870   001FDC  C007  FFDA         	movff	??_gpio_pin_write_logic+3,fsr2h
  5871   001FE0  5005               	movf	(??_gpio_pin_write_logic+1)^0,w,c
  5872   001FE2  12DF               	iorwf	indf2,f,c
  5873                           
  5874                           ;MCAL_Layer/GPIO/hal_gpio.c: 90:                 break;
  5875   001FE4  EF09  F010         	goto	l7337
  5876   001FE8                     l7335:
  5877   001FE8  5003               	movf	gpio_pin_write_logic@logic^0,w,c
  5878   001FEA  6E04               	movwf	??_gpio_pin_write_logic^0,c
  5879   001FEC  6A05               	clrf	(??_gpio_pin_write_logic+1)^0,c
  5880                           
  5881                           ; Switch on 2 bytes has been partitioned into a top level switch of size 1, and 1 sub-sw
      +                          itches
  5882                           ; Switch size 1, requested type "simple"
  5883                           ; Number of cases is 1, Range of values is 0 to 0
  5884                           ; switch strategies available:
  5885                           ; Name         Instructions Cycles
  5886                           ; simple_byte            4     3 (average)
  5887                           ;	Chosen strategy is simple_byte
  5888   001FEE  5005               	movf	(??_gpio_pin_write_logic+1)^0,w,c
  5889   001FF0  0A00               	xorlw	0	; case 0
  5890   001FF2  B4D8               	btfsc	status,2,c
  5891   001FF4  EFFE  F00F         	goto	l9017
  5892   001FF8  EF9D  F00F         	goto	l7327
  5893   001FFC                     l9017:
  5894                           
  5895                           ; Switch size 1, requested type "simple"
  5896                           ; Number of cases is 2, Range of values is 0 to 1
  5897                           ; switch strategies available:
  5898                           ; Name         Instructions Cycles
  5899                           ; simple_byte            7     4 (average)
  5900                           ;	Chosen strategy is simple_byte
  5901   001FFC  5004               	movf	??_gpio_pin_write_logic^0,w,c
  5902   001FFE  0A00               	xorlw	0	; case 0
  5903   002000  B4D8               	btfsc	status,2,c
  5904   002002  EFA1  F00F         	goto	l7329
  5905   002006  0A01               	xorlw	1	; case 1
  5906   002008  B4D8               	btfsc	status,2,c
  5907   00200A  EFCC  F00F         	goto	l7331
  5908   00200E  EF9D  F00F         	goto	l7327
  5909   002012                     l7337:
  5910                           
  5911                           ;MCAL_Layer/GPIO/hal_gpio.c: 94:     return ret;
  5912   002012  5009               	movf	gpio_pin_write_logic@ret^0,w,c
  5913   002014  0012               	return		;funcret
  5914   002016                     __end_of_gpio_pin_write_logic:
  5915                           	callstack 0
  5916                           
  5917 ;; *************** function _ADC_GetConversion_Blocking *****************
  5918 ;; Defined at:
  5919 ;;		line 213 in file "MCAL_Layer/ADC/hal_adc.c"
  5920 ;; Parameters:    Size  Location     Type
  5921 ;;  _adc            1    8[COMRAM] PTR const struct .
  5922 ;;		 -> adc_1(7), 
  5923 ;;  channel         1    9[COMRAM] enum E3047
  5924 ;;  conversion_r    1   10[COMRAM] PTR unsigned short 
  5925 ;;		 -> lm35_res_1(2), 
  5926 ;; Auto vars:     Size  Location     Type
  5927 ;;  ret             1   11[COMRAM] unsigned char 
  5928 ;; Return value:  Size  Location     Type
  5929 ;;                  1    wreg      unsigned char 
  5930 ;; Registers used:
  5931 ;;		wreg, fsr2l, fsr2h, status,2, status,0, cstack
  5932 ;; Tracked objects:
  5933 ;;		On entry : 0/0
  5934 ;;		On exit  : 0/0
  5935 ;;		Unchanged: 0/0
  5936 ;; Data sizes:     COMRAM   BANK0   BANK1   BANK2   BANK3   BANK4   BANK5   BANK6   BANK7   BANK8   BANK9  BANK10  BANK1
      +1  BANK12  BANK13  BANK14  BANK15
  5937 ;;      Params:         3       0       0       0       0       0       0       0       0       0       0       0       
      +0       0       0       0       0
  5938 ;;      Locals:         1       0       0       0       0       0       0       0       0       0       0       0       
      +0       0       0       0       0
  5939 ;;      Temps:          0       0       0       0       0       0       0       0       0       0       0       0       
      +0       0       0       0       0
  5940 ;;      Totals:         4       0       0       0       0       0       0       0       0       0       0       0       
      +0       0       0       0       0
  5941 ;;Total ram usage:        4 bytes
  5942 ;; Hardware stack levels used: 1
  5943 ;; Hardware stack levels required when called: 4
  5944 ;; This function calls:
  5945 ;;		_ADC_GetConversionResult
  5946 ;;		_ADC_SelectChannel
  5947 ;;		_ADC_StartConversion
  5948 ;; This function is called by:
  5949 ;;		_main
  5950 ;; This function uses a non-reentrant model
  5951 ;;
  5952                           
  5953                           	psect	text37
  5954   002A52                     __ptext37:
  5955                           	callstack 0
  5956   002A52                     _ADC_GetConversion_Blocking:
  5957                           	callstack 26
  5958   002A52                     
  5959                           ;MCAL_Layer/ADC/hal_adc.c: 216:     if((((void*)0) == _adc) || (((void*)0) == conversion
      +                          _result)){
  5960   002A52  5009               	movf	ADC_GetConversion_Blocking@_adc^0,w,c
  5961   002A54  B4D8               	btfsc	status,2,c
  5962   002A56  EF2F  F015         	goto	u7381
  5963   002A5A  EF31  F015         	goto	u7380
  5964   002A5E                     u7381:
  5965   002A5E  EF39  F015         	goto	l8031
  5966   002A62                     u7380:
  5967   002A62  500B               	movf	ADC_GetConversion_Blocking@conversion_result^0,w,c
  5968   002A64  A4D8               	btfss	status,2,c
  5969   002A66  EF37  F015         	goto	u7391
  5970   002A6A  EF39  F015         	goto	u7390
  5971   002A6E                     u7391:
  5972   002A6E  EF3D  F015         	goto	l8033
  5973   002A72                     u7390:
  5974   002A72                     l8031:
  5975                           
  5976                           ;MCAL_Layer/ADC/hal_adc.c: 217:         ret = (std_ReturnType) 0x00;
  5977   002A72  0E00               	movlw	0
  5978   002A74  6E0C               	movwf	ADC_GetConversion_Blocking@ret^0,c
  5979                           
  5980                           ;MCAL_Layer/ADC/hal_adc.c: 218:     }
  5981   002A76  EF57  F015         	goto	l8037
  5982   002A7A                     l8033:
  5983                           
  5984                           ;MCAL_Layer/ADC/hal_adc.c: 221:         ret = ADC_SelectChannel(_adc, channel);
  5985   002A7A  C009  F005         	movff	ADC_GetConversion_Blocking@_adc,ADC_SelectChannel@_adc
  5986   002A7E  C00A  F006         	movff	ADC_GetConversion_Blocking@channel,ADC_SelectChannel@channel
  5987   002A82  ECC4  F016         	call	_ADC_SelectChannel	;wreg free
  5988   002A86  6E0C               	movwf	ADC_GetConversion_Blocking@ret^0,c
  5989                           
  5990                           ;MCAL_Layer/ADC/hal_adc.c: 223:         ret = ADC_StartConversion(_adc);
  5991   002A88  C009  F002         	movff	ADC_GetConversion_Blocking@_adc,ADC_StartConversion@_adc
  5992   002A8C  EC82  F017         	call	_ADC_StartConversion	;wreg free
  5993   002A90  6E0C               	movwf	ADC_GetConversion_Blocking@ret^0,c
  5994   002A92                     l415:
  5995   002A92  B2C2               	btfsc	194,1,c	;volatile
  5996   002A94  EF4E  F015         	goto	u7401
  5997   002A98  EF50  F015         	goto	u7400
  5998   002A9C                     u7401:
  5999   002A9C  EF49  F015         	goto	l415
  6000   002AA0                     u7400:
  6001   002AA0                     
  6002                           ;MCAL_Layer/ADC/hal_adc.c: 226:         ret = ADC_GetConversionResult(_adc, conversion_r
      +                          esult);
  6003   002AA0  C009  F002         	movff	ADC_GetConversion_Blocking@_adc,ADC_GetConversionResult@_adc
  6004   002AA4  C00B  F003         	movff	ADC_GetConversion_Blocking@conversion_result,ADC_GetConversionResult@conversion_r
      +                          esult
  6005   002AA8  ECCF  F011         	call	_ADC_GetConversionResult	;wreg free
  6006   002AAC  6E0C               	movwf	ADC_GetConversion_Blocking@ret^0,c
  6007   002AAE                     l8037:
  6008                           
  6009                           ;MCAL_Layer/ADC/hal_adc.c: 228:     return ret;
  6010   002AAE  500C               	movf	ADC_GetConversion_Blocking@ret^0,w,c
  6011   002AB0  0012               	return		;funcret
  6012   002AB2                     __end_of_ADC_GetConversion_Blocking:
  6013                           	callstack 0
  6014                           
  6015 ;; *************** function _ADC_StartConversion *****************
  6016 ;; Defined at:
  6017 ;;		line 131 in file "MCAL_Layer/ADC/hal_adc.c"
  6018 ;; Parameters:    Size  Location     Type
  6019 ;;  _adc            1    1[COMRAM] PTR const struct .
  6020 ;;		 -> adc_1(7), 
  6021 ;; Auto vars:     Size  Location     Type
  6022 ;;  ret             1    2[COMRAM] unsigned char 
  6023 ;; Return value:  Size  Location     Type
  6024 ;;                  1    wreg      unsigned char 
  6025 ;; Registers used:
  6026 ;;		wreg, status,2
  6027 ;; Tracked objects:
  6028 ;;		On entry : 0/0
  6029 ;;		On exit  : 0/0
  6030 ;;		Unchanged: 0/0
  6031 ;; Data sizes:     COMRAM   BANK0   BANK1   BANK2   BANK3   BANK4   BANK5   BANK6   BANK7   BANK8   BANK9  BANK10  BANK1
      +1  BANK12  BANK13  BANK14  BANK15
  6032 ;;      Params:         1       0       0       0       0       0       0       0       0       0       0       0       
      +0       0       0       0       0
  6033 ;;      Locals:         1       0       0       0       0       0       0       0       0       0       0       0       
      +0       0       0       0       0
  6034 ;;      Temps:          0       0       0       0       0       0       0       0       0       0       0       0       
      +0       0       0       0       0
  6035 ;;      Totals:         2       0       0       0       0       0       0       0       0       0       0       0       
      +0       0       0       0       0
  6036 ;;Total ram usage:        2 bytes
  6037 ;; Hardware stack levels used: 1
  6038 ;; Hardware stack levels required when called: 2
  6039 ;; This function calls:
  6040 ;;		Nothing
  6041 ;; This function is called by:
  6042 ;;		_ADC_GetConversion_Blocking
  6043 ;;		_ADC_StartConversion_Interrupt
  6044 ;; This function uses a non-reentrant model
  6045 ;;
  6046                           
  6047                           	psect	text38
  6048   002F04                     __ptext38:
  6049                           	callstack 0
  6050   002F04                     _ADC_StartConversion:
  6051                           	callstack 27
  6052   002F04                     
  6053                           ;MCAL_Layer/ADC/hal_adc.c: 133:     if(((void*)0) == _adc){
  6054   002F04  5002               	movf	ADC_StartConversion@_adc^0,w,c
  6055   002F06  A4D8               	btfss	status,2,c
  6056   002F08  EF88  F017         	goto	u7161
  6057   002F0C  EF8A  F017         	goto	u7160
  6058   002F10                     u7161:
  6059   002F10  EF8E  F017         	goto	l388
  6060   002F14                     u7160:
  6061   002F14                     
  6062                           ;MCAL_Layer/ADC/hal_adc.c: 134:         ret = (std_ReturnType) 0x00;
  6063   002F14  0E00               	movlw	0
  6064   002F16  6E03               	movwf	ADC_StartConversion@ret^0,c
  6065                           
  6066                           ;MCAL_Layer/ADC/hal_adc.c: 135:     }
  6067   002F18  EF91  F017         	goto	l389
  6068   002F1C                     l388:
  6069                           
  6070                           ;MCAL_Layer/ADC/hal_adc.c: 137:         (ADCON0bits.GODONE = 1);
  6071   002F1C  82C2               	bsf	194,1,c	;volatile
  6072   002F1E                     
  6073                           ;MCAL_Layer/ADC/hal_adc.c: 138:         ret = (std_ReturnType) 0x01;
  6074   002F1E  0E01               	movlw	1
  6075   002F20  6E03               	movwf	ADC_StartConversion@ret^0,c
  6076   002F22                     l389:
  6077                           
  6078                           ;MCAL_Layer/ADC/hal_adc.c: 140:     return ret;
  6079   002F22  5003               	movf	ADC_StartConversion@ret^0,w,c
  6080   002F24  0012               	return		;funcret
  6081   002F26                     __end_of_ADC_StartConversion:
  6082                           	callstack 0
  6083                           
  6084 ;; *************** function _ADC_SelectChannel *****************
  6085 ;; Defined at:
  6086 ;;		line 108 in file "MCAL_Layer/ADC/hal_adc.c"
  6087 ;; Parameters:    Size  Location     Type
  6088 ;;  _adc            1    4[COMRAM] PTR const struct .
  6089 ;;		 -> adc_1(7), 
  6090 ;;  channel         1    5[COMRAM] enum E3047
  6091 ;; Auto vars:     Size  Location     Type
  6092 ;;  ret             1    7[COMRAM] unsigned char 
  6093 ;; Return value:  Size  Location     Type
  6094 ;;                  1    wreg      unsigned char 
  6095 ;; Registers used:
  6096 ;;		wreg, status,2, status,0, cstack
  6097 ;; Tracked objects:
  6098 ;;		On entry : 0/0
  6099 ;;		On exit  : 0/0
  6100 ;;		Unchanged: 0/0
  6101 ;; Data sizes:     COMRAM   BANK0   BANK1   BANK2   BANK3   BANK4   BANK5   BANK6   BANK7   BANK8   BANK9  BANK10  BANK1
      +1  BANK12  BANK13  BANK14  BANK15
  6102 ;;      Params:         2       0       0       0       0       0       0       0       0       0       0       0       
      +0       0       0       0       0
  6103 ;;      Locals:         1       0       0       0       0       0       0       0       0       0       0       0       
      +0       0       0       0       0
  6104 ;;      Temps:          1       0       0       0       0       0       0       0       0       0       0       0       
      +0       0       0       0       0
  6105 ;;      Totals:         4       0       0       0       0       0       0       0       0       0       0       0       
      +0       0       0       0       0
  6106 ;;Total ram usage:        4 bytes
  6107 ;; Hardware stack levels used: 1
  6108 ;; Hardware stack levels required when called: 3
  6109 ;; This function calls:
  6110 ;;		_adc_input_channel_port_configure
  6111 ;; This function is called by:
  6112 ;;		_ADC_GetConversion_Blocking
  6113 ;;		_ADC_StartConversion_Interrupt
  6114 ;; This function uses a non-reentrant model
  6115 ;;
  6116                           
  6117                           	psect	text39
  6118   002D88                     __ptext39:
  6119                           	callstack 0
  6120   002D88                     _ADC_SelectChannel:
  6121                           	callstack 26
  6122   002D88                     
  6123                           ;MCAL_Layer/ADC/hal_adc.c: 110:     if(((void*)0) == _adc){
  6124   002D88  5005               	movf	ADC_SelectChannel@_adc^0,w,c
  6125   002D8A  A4D8               	btfss	status,2,c
  6126   002D8C  EFCA  F016         	goto	u7151
  6127   002D90  EFCC  F016         	goto	u7150
  6128   002D94                     u7151:
  6129   002D94  EFD0  F016         	goto	l7843
  6130   002D98                     u7150:
  6131   002D98                     
  6132                           ;MCAL_Layer/ADC/hal_adc.c: 111:         ret = (std_ReturnType) 0x00;
  6133   002D98  0E00               	movlw	0
  6134   002D9A  6E08               	movwf	ADC_SelectChannel@ret^0,c
  6135                           
  6136                           ;MCAL_Layer/ADC/hal_adc.c: 112:     }
  6137   002D9C  EFDE  F016         	goto	l7849
  6138   002DA0                     l7843:
  6139                           
  6140                           ;MCAL_Layer/ADC/hal_adc.c: 115:         ADCON0bits.CHS = channel;
  6141   002DA0  C006  F007         	movff	ADC_SelectChannel@channel,??_ADC_SelectChannel
  6142   002DA4  4607               	rlncf	??_ADC_SelectChannel^0,f,c
  6143   002DA6  4607               	rlncf	??_ADC_SelectChannel^0,f,c
  6144   002DA8  50C2               	movf	194,w,c	;volatile
  6145   002DAA  1807               	xorwf	??_ADC_SelectChannel^0,w,c
  6146   002DAC  0BC3               	andlw	-61
  6147   002DAE  1807               	xorwf	??_ADC_SelectChannel^0,w,c
  6148   002DB0  6EC2               	movwf	194,c	;volatile
  6149   002DB2                     
  6150                           ;MCAL_Layer/ADC/hal_adc.c: 116:         adc_input_channel_port_configure(channel);
  6151   002DB2  5006               	movf	ADC_SelectChannel@channel^0,w,c
  6152   002DB4  EC01  F011         	call	_adc_input_channel_port_configure
  6153   002DB8                     
  6154                           ;MCAL_Layer/ADC/hal_adc.c: 117:         ret = (std_ReturnType) 0x01;
  6155   002DB8  0E01               	movlw	1
  6156   002DBA  6E08               	movwf	ADC_SelectChannel@ret^0,c
  6157   002DBC                     l7849:
  6158                           
  6159                           ;MCAL_Layer/ADC/hal_adc.c: 119:     return ret;
  6160   002DBC  5008               	movf	ADC_SelectChannel@ret^0,w,c
  6161   002DBE  0012               	return		;funcret
  6162   002DC0                     __end_of_ADC_SelectChannel:
  6163                           	callstack 0
  6164                           
  6165 ;; *************** function _adc_input_channel_port_configure *****************
  6166 ;; Defined at:
  6167 ;;		line 253 in file "MCAL_Layer/ADC/hal_adc.c"
  6168 ;; Parameters:    Size  Location     Type
  6169 ;;  channel         1    wreg     enum E3047
  6170 ;; Auto vars:     Size  Location     Type
  6171 ;;  channel         1    3[COMRAM] enum E3047
  6172 ;; Return value:  Size  Location     Type
  6173 ;;                  1    wreg      void 
  6174 ;; Registers used:
  6175 ;;		wreg, status,2, status,0
  6176 ;; Tracked objects:
  6177 ;;		On entry : 0/0
  6178 ;;		On exit  : 0/0
  6179 ;;		Unchanged: 0/0
  6180 ;; Data sizes:     COMRAM   BANK0   BANK1   BANK2   BANK3   BANK4   BANK5   BANK6   BANK7   BANK8   BANK9  BANK10  BANK1
      +1  BANK12  BANK13  BANK14  BANK15
  6181 ;;      Params:         0       0       0       0       0       0       0       0       0       0       0       0       
      +0       0       0       0       0
  6182 ;;      Locals:         1       0       0       0       0       0       0       0       0       0       0       0       
      +0       0       0       0       0
  6183 ;;      Temps:          2       0       0       0       0       0       0       0       0       0       0       0       
      +0       0       0       0       0
  6184 ;;      Totals:         3       0       0       0       0       0       0       0       0       0       0       0       
      +0       0       0       0       0
  6185 ;;Total ram usage:        3 bytes
  6186 ;; Hardware stack levels used: 1
  6187 ;; Hardware stack levels required when called: 2
  6188 ;; This function calls:
  6189 ;;		Nothing
  6190 ;; This function is called by:
  6191 ;;		_ADC_Init
  6192 ;;		_ADC_SelectChannel
  6193 ;; This function uses a non-reentrant model
  6194 ;;
  6195                           
  6196                           	psect	text40
  6197   002202                     __ptext40:
  6198                           	callstack 0
  6199   002202                     _adc_input_channel_port_configure:
  6200                           	callstack 25
  6201                           
  6202                           ;incstack = 0
  6203                           ;adc_input_channel_port_configure@channel stored from wreg
  6204   002202  6E04               	movwf	adc_input_channel_port_configure@channel^0,c
  6205   002204                     
  6206                           ;MCAL_Layer/ADC/hal_adc.c: 254:     switch(channel){
  6207   002204  EF2B  F011         	goto	l7539
  6208   002208                     l7513:
  6209   002208  8092               	bsf	146,0,c	;volatile
  6210   00220A  EF6C  F011         	goto	l442
  6211   00220E                     l7515:
  6212   00220E  8292               	bsf	146,1,c	;volatile
  6213   002210  EF6C  F011         	goto	l442
  6214   002214                     l7517:
  6215   002214  8492               	bsf	146,2,c	;volatile
  6216   002216  EF6C  F011         	goto	l442
  6217   00221A                     l7519:
  6218   00221A  8692               	bsf	146,3,c	;volatile
  6219   00221C  EF6C  F011         	goto	l442
  6220   002220                     l7521:
  6221   002220  8A92               	bsf	146,5,c	;volatile
  6222   002222  EF6C  F011         	goto	l442
  6223   002226                     l7523:
  6224   002226  8096               	bsf	150,0,c	;volatile
  6225   002228  EF6C  F011         	goto	l442
  6226   00222C                     l7525:
  6227   00222C  8296               	bsf	150,1,c	;volatile
  6228   00222E  EF6C  F011         	goto	l442
  6229   002232                     l7527:
  6230   002232  8496               	bsf	150,2,c	;volatile
  6231   002234  EF6C  F011         	goto	l442
  6232   002238                     l7529:
  6233   002238  8493               	bsf	147,2,c	;volatile
  6234   00223A  EF6C  F011         	goto	l442
  6235   00223E                     l7531:
  6236   00223E  8693               	bsf	147,3,c	;volatile
  6237   002240  EF6C  F011         	goto	l442
  6238   002244                     l7533:
  6239   002244  8293               	bsf	147,1,c	;volatile
  6240   002246  EF6C  F011         	goto	l442
  6241   00224A                     l7535:
  6242   00224A  8893               	bsf	147,4,c	;volatile
  6243   00224C  EF6C  F011         	goto	l442
  6244   002250                     l7537:
  6245   002250  8093               	bsf	147,0,c	;volatile
  6246   002252  EF6C  F011         	goto	l442
  6247   002256                     l7539:
  6248   002256  5004               	movf	adc_input_channel_port_configure@channel^0,w,c
  6249   002258  6E02               	movwf	??_adc_input_channel_port_configure^0,c
  6250   00225A  6A03               	clrf	(??_adc_input_channel_port_configure+1)^0,c
  6251                           
  6252                           ; Switch on 2 bytes has been partitioned into a top level switch of size 1, and 1 sub-sw
      +                          itches
  6253                           ; Switch size 1, requested type "simple"
  6254                           ; Number of cases is 1, Range of values is 0 to 0
  6255                           ; switch strategies available:
  6256                           ; Name         Instructions Cycles
  6257                           ; simple_byte            4     3 (average)
  6258                           ;	Chosen strategy is simple_byte
  6259   00225C  5003               	movf	(??_adc_input_channel_port_configure+1)^0,w,c
  6260   00225E  0A00               	xorlw	0	; case 0
  6261   002260  B4D8               	btfsc	status,2,c
  6262   002262  EF35  F011         	goto	l9019
  6263   002266  EF6C  F011         	goto	l442
  6264   00226A                     l9019:
  6265                           
  6266                           ; Switch size 1, requested type "simple"
  6267                           ; Number of cases is 13, Range of values is 0 to 12
  6268                           ; switch strategies available:
  6269                           ; Name         Instructions Cycles
  6270                           ; simple_byte           40    21 (average)
  6271                           ;	Chosen strategy is simple_byte
  6272   00226A  5002               	movf	??_adc_input_channel_port_configure^0,w,c
  6273   00226C  0A00               	xorlw	0	; case 0
  6274   00226E  B4D8               	btfsc	status,2,c
  6275   002270  EF04  F011         	goto	l7513
  6276   002274  0A01               	xorlw	1	; case 1
  6277   002276  B4D8               	btfsc	status,2,c
  6278   002278  EF07  F011         	goto	l7515
  6279   00227C  0A03               	xorlw	3	; case 2
  6280   00227E  B4D8               	btfsc	status,2,c
  6281   002280  EF0A  F011         	goto	l7517
  6282   002284  0A01               	xorlw	1	; case 3
  6283   002286  B4D8               	btfsc	status,2,c
  6284   002288  EF0D  F011         	goto	l7519
  6285   00228C  0A07               	xorlw	7	; case 4
  6286   00228E  B4D8               	btfsc	status,2,c
  6287   002290  EF10  F011         	goto	l7521
  6288   002294  0A01               	xorlw	1	; case 5
  6289   002296  B4D8               	btfsc	status,2,c
  6290   002298  EF13  F011         	goto	l7523
  6291   00229C  0A03               	xorlw	3	; case 6
  6292   00229E  B4D8               	btfsc	status,2,c
  6293   0022A0  EF16  F011         	goto	l7525
  6294   0022A4  0A01               	xorlw	1	; case 7
  6295   0022A6  B4D8               	btfsc	status,2,c
  6296   0022A8  EF19  F011         	goto	l7527
  6297   0022AC  0A0F               	xorlw	15	; case 8
  6298   0022AE  B4D8               	btfsc	status,2,c
  6299   0022B0  EF1C  F011         	goto	l7529
  6300   0022B4  0A01               	xorlw	1	; case 9
  6301   0022B6  B4D8               	btfsc	status,2,c
  6302   0022B8  EF1F  F011         	goto	l7531
  6303   0022BC  0A03               	xorlw	3	; case 10
  6304   0022BE  B4D8               	btfsc	status,2,c
  6305   0022C0  EF22  F011         	goto	l7533
  6306   0022C4  0A01               	xorlw	1	; case 11
  6307   0022C6  B4D8               	btfsc	status,2,c
  6308   0022C8  EF25  F011         	goto	l7535
  6309   0022CC  0A07               	xorlw	7	; case 12
  6310   0022CE  B4D8               	btfsc	status,2,c
  6311   0022D0  EF28  F011         	goto	l7537
  6312   0022D4  EF6C  F011         	goto	l442
  6313   0022D8                     l442:
  6314   0022D8  0012               	return		;funcret
  6315   0022DA                     __end_of_adc_input_channel_port_configure:
  6316                           	callstack 0
  6317                           
  6318 ;; *************** function _ADC_GetConversionResult *****************
  6319 ;; Defined at:
  6320 ;;		line 181 in file "MCAL_Layer/ADC/hal_adc.c"
  6321 ;; Parameters:    Size  Location     Type
  6322 ;;  _adc            1    1[COMRAM] PTR const struct .
  6323 ;;		 -> adc_1(7), 
  6324 ;;  conversion_r    1    2[COMRAM] PTR unsigned short 
  6325 ;;		 -> lm35_res_1(2), 
  6326 ;; Auto vars:     Size  Location     Type
  6327 ;;  ret             1    6[COMRAM] unsigned char 
  6328 ;; Return value:  Size  Location     Type
  6329 ;;                  1    wreg      unsigned char 
  6330 ;; Registers used:
  6331 ;;		wreg, fsr2l, fsr2h, status,2, status,0
  6332 ;; Tracked objects:
  6333 ;;		On entry : 0/0
  6334 ;;		On exit  : 0/0
  6335 ;;		Unchanged: 0/0
  6336 ;; Data sizes:     COMRAM   BANK0   BANK1   BANK2   BANK3   BANK4   BANK5   BANK6   BANK7   BANK8   BANK9  BANK10  BANK1
      +1  BANK12  BANK13  BANK14  BANK15
  6337 ;;      Params:         2       0       0       0       0       0       0       0       0       0       0       0       
      +0       0       0       0       0
  6338 ;;      Locals:         1       0       0       0       0       0       0       0       0       0       0       0       
      +0       0       0       0       0
  6339 ;;      Temps:          3       0       0       0       0       0       0       0       0       0       0       0       
      +0       0       0       0       0
  6340 ;;      Totals:         6       0       0       0       0       0       0       0       0       0       0       0       
      +0       0       0       0       0
  6341 ;;Total ram usage:        6 bytes
  6342 ;; Hardware stack levels used: 1
  6343 ;; Hardware stack levels required when called: 2
  6344 ;; This function calls:
  6345 ;;		Nothing
  6346 ;; This function is called by:
  6347 ;;		_ADC_GetConversion_Blocking
  6348 ;; This function uses a non-reentrant model
  6349 ;;
  6350                           
  6351                           	psect	text41
  6352   00239E                     __ptext41:
  6353                           	callstack 0
  6354   00239E                     _ADC_GetConversionResult:
  6355                           	callstack 27
  6356   00239E                     
  6357                           ;MCAL_Layer/ADC/hal_adc.c: 183:     if((((void*)0) == _adc) || (((void*)0) == conversion
      +                          _result)){
  6358   00239E  5002               	movf	ADC_GetConversionResult@_adc^0,w,c
  6359   0023A0  B4D8               	btfsc	status,2,c
  6360   0023A2  EFD5  F011         	goto	u7171
  6361   0023A6  EFD7  F011         	goto	u7170
  6362   0023AA                     u7171:
  6363   0023AA  EFDF  F011         	goto	l7865
  6364   0023AE                     u7170:
  6365   0023AE  5003               	movf	ADC_GetConversionResult@conversion_result^0,w,c
  6366   0023B0  A4D8               	btfss	status,2,c
  6367   0023B2  EFDD  F011         	goto	u7181
  6368   0023B6  EFDF  F011         	goto	u7180
  6369   0023BA                     u7181:
  6370   0023BA  EFE3  F011         	goto	l7867
  6371   0023BE                     u7180:
  6372   0023BE                     l7865:
  6373                           
  6374                           ;MCAL_Layer/ADC/hal_adc.c: 184:         ret = (std_ReturnType) 0x00;
  6375   0023BE  0E00               	movlw	0
  6376   0023C0  6E07               	movwf	ADC_GetConversionResult@ret^0,c
  6377                           
  6378                           ;MCAL_Layer/ADC/hal_adc.c: 185:     }
  6379   0023C2  EF29  F012         	goto	l7879
  6380   0023C6                     l7867:
  6381                           
  6382                           ;MCAL_Layer/ADC/hal_adc.c: 187:         if(0x01U == _adc->result_format){
  6383   0023C6  5002               	movf	ADC_GetConversionResult@_adc^0,w,c
  6384   0023C8  6ED9               	movwf	fsr2l,c
  6385   0023CA  6ADA               	clrf	fsr2h,c
  6386   0023CC  0E06               	movlw	6
  6387   0023CE  26D9               	addwf	fsr2l,f,c
  6388   0023D0  A2DF               	btfss	indf2,1,c
  6389   0023D2  EFED  F011         	goto	u7191
  6390   0023D6  EFEF  F011         	goto	u7190
  6391   0023DA                     u7191:
  6392   0023DA  EF02  F012         	goto	l7871
  6393   0023DE                     u7190:
  6394   0023DE                     l7869:
  6395                           
  6396                           ;MCAL_Layer/ADC/hal_adc.c: 188:             *conversion_result = (adc_result_t)((ADRESH 
      +                          << 8) + ADRESL);
  6397   0023DE  50C3               	movf	195,w,c	;volatile
  6398   0023E0  CFC4 F004          	movff	4036,??_ADC_GetConversionResult	;volatile
  6399   0023E4  6A05               	clrf	(??_ADC_GetConversionResult+1)^0,c
  6400   0023E6  C004  F005         	movff	??_ADC_GetConversionResult,??_ADC_GetConversionResult+1
  6401   0023EA  6A04               	clrf	??_ADC_GetConversionResult^0,c
  6402   0023EC  2604               	addwf	??_ADC_GetConversionResult^0,f,c
  6403   0023EE  0E00               	movlw	0
  6404   0023F0  2205               	addwfc	(??_ADC_GetConversionResult+1)^0,f,c
  6405   0023F2  5003               	movf	ADC_GetConversionResult@conversion_result^0,w,c
  6406   0023F4  6ED9               	movwf	fsr2l,c
  6407   0023F6  6ADA               	clrf	fsr2h,c
  6408   0023F8  C004  FFDE         	movff	??_ADC_GetConversionResult,postinc2
  6409   0023FC  C005  FFDD         	movff	??_ADC_GetConversionResult+1,postdec2
  6410                           
  6411                           ;MCAL_Layer/ADC/hal_adc.c: 189:         }
  6412   002400  EF27  F012         	goto	l7877
  6413   002404                     l7871:
  6414   002404  5002               	movf	ADC_GetConversionResult@_adc^0,w,c
  6415   002406  6ED9               	movwf	fsr2l,c
  6416   002408  6ADA               	clrf	fsr2h,c
  6417   00240A  0E06               	movlw	6
  6418   00240C  26D9               	addwf	fsr2l,f,c
  6419   00240E  B2DF               	btfsc	indf2,1,c
  6420   002410  EF0C  F012         	goto	u7201
  6421   002414  EF0E  F012         	goto	u7200
  6422   002418                     u7201:
  6423   002418  EFEF  F011         	goto	l7869
  6424   00241C                     u7200:
  6425   00241C                     
  6426                           ;MCAL_Layer/ADC/hal_adc.c: 191:             *conversion_result = (adc_result_t)(((ADRESH
      +                           << 8) + ADRESL) >> 6);
  6427   00241C  50C3               	movf	195,w,c	;volatile
  6428   00241E  CFC4 F004          	movff	4036,??_ADC_GetConversionResult	;volatile
  6429   002422  6A05               	clrf	(??_ADC_GetConversionResult+1)^0,c
  6430   002424  C004  F005         	movff	??_ADC_GetConversionResult,??_ADC_GetConversionResult+1
  6431   002428  6A04               	clrf	??_ADC_GetConversionResult^0,c
  6432   00242A  2604               	addwf	??_ADC_GetConversionResult^0,f,c
  6433   00242C  0E00               	movlw	0
  6434   00242E  2205               	addwfc	(??_ADC_GetConversionResult+1)^0,f,c
  6435   002430  0E06               	movlw	6
  6436   002432  6E06               	movwf	(??_ADC_GetConversionResult+2)^0,c
  6437   002434                     u7215:
  6438   002434  3405               	rlcf	(??_ADC_GetConversionResult+1)^0,w,c
  6439   002436  3205               	rrcf	(??_ADC_GetConversionResult+1)^0,f,c
  6440   002438  3204               	rrcf	??_ADC_GetConversionResult^0,f,c
  6441   00243A  2E06               	decfsz	(??_ADC_GetConversionResult+2)^0,f,c
  6442   00243C  EF1A  F012         	goto	u7215
  6443   002440  5003               	movf	ADC_GetConversionResult@conversion_result^0,w,c
  6444   002442  6ED9               	movwf	fsr2l,c
  6445   002444  6ADA               	clrf	fsr2h,c
  6446   002446  C004  FFDE         	movff	??_ADC_GetConversionResult,postinc2
  6447   00244A  C005  FFDD         	movff	??_ADC_GetConversionResult+1,postdec2
  6448   00244E                     l7877:
  6449                           
  6450                           ;MCAL_Layer/ADC/hal_adc.c: 196:         ret = (std_ReturnType) 0x01;
  6451   00244E  0E01               	movlw	1
  6452   002450  6E07               	movwf	ADC_GetConversionResult@ret^0,c
  6453   002452                     l7879:
  6454                           
  6455                           ;MCAL_Layer/ADC/hal_adc.c: 198:     return ret;
  6456   002452  5007               	movf	ADC_GetConversionResult@ret^0,w,c
  6457   002454  0012               	return		;funcret
  6458   002456                     __end_of_ADC_GetConversionResult:
  6459                           	callstack 0
  6460                           
  6461 ;; *************** function _InterruptManager *****************
  6462 ;; Defined at:
  6463 ;;		line 33 in file "MCAL_Layer/Interrupt/mcal_interrupt_manager.c"
  6464 ;; Parameters:    Size  Location     Type
  6465 ;;		None
  6466 ;; Auto vars:     Size  Location     Type
  6467 ;;		None
  6468 ;; Return value:  Size  Location     Type
  6469 ;;                  1    wreg      void 
  6470 ;; Registers used:
  6471 ;;		wreg, status,2, status,0, cstack
  6472 ;; Tracked objects:
  6473 ;;		On entry : 0/0
  6474 ;;		On exit  : 0/0
  6475 ;;		Unchanged: 0/0
  6476 ;; Data sizes:     COMRAM   BANK0   BANK1   BANK2   BANK3   BANK4   BANK5   BANK6   BANK7   BANK8   BANK9  BANK10  BANK1
      +1  BANK12  BANK13  BANK14  BANK15
  6477 ;;      Params:         0       0       0       0       0       0       0       0       0       0       0       0       
      +0       0       0       0       0
  6478 ;;      Locals:         0       0       0       0       0       0       0       0       0       0       0       0       
      +0       0       0       0       0
  6479 ;;      Temps:          0       0       0       0       0       0       0       0       0       0       0       0       
      +0       0       0       0       0
  6480 ;;      Totals:         0       0       0       0       0       0       0       0       0       0       0       0       
      +0       0       0       0       0
  6481 ;;Total ram usage:        0 bytes
  6482 ;; Hardware stack levels used: 1
  6483 ;; Hardware stack levels required when called: 1
  6484 ;; This function calls:
  6485 ;;		_ADC_ISR
  6486 ;;		_CCP1_ISR
  6487 ;;		_CCP2_ISR
  6488 ;;		_EUSART_RX_ISR
  6489 ;;		_EUSART_TX_ISR
  6490 ;;		_INT0_ISR
  6491 ;;		_INT1_ISR
  6492 ;;		_INT2_ISR
  6493 ;;		_MSSP_SPI_ISR
  6494 ;;		_RB4_ISR
  6495 ;;		_RB5_ISR
  6496 ;;		_RB6_ISR
  6497 ;;		_RB7_ISR
  6498 ;;		_TMR0_ISR
  6499 ;;		_TMR1_ISR
  6500 ;;		_TMR2_ISR
  6501 ;;		_TMR3_ISR
  6502 ;; This function is called by:
  6503 ;;		Interrupt level 2
  6504 ;; This function uses a non-reentrant model
  6505 ;;
  6506                           
  6507                           	psect	intcode
  6508   000008                     __pintcode:
  6509                           	callstack 0
  6510   000008                     _InterruptManager:
  6511                           	callstack 23
  6512                           
  6513                           ;incstack = 0
  6514   000008  827E               	bsf	int$flags,1,c	;set compiler interrupt flag (level 2)
  6515   00000A  ED54  F00A         	call	int_func,f	;refresh shadow registers
  6516                           
  6517                           	psect	intcode_body
  6518   0014A8                     __pintcode_body:
  6519                           	callstack 23
  6520   0014A8                     int_func:
  6521                           	callstack 23
  6522   0014A8  0006               	pop		; remove dummy address from shadow register refresh
  6523   0014AA                     
  6524                           ;MCAL_Layer/Interrupt/mcal_interrupt_manager.c: 35:     if((1 == INTCONbits.INT0IE) && (
      +                          1 == INTCONbits.INT0IF)){
  6525   0014AA  A8F2               	btfss	242,4,c	;volatile
  6526   0014AC  EF5A  F00A         	goto	i2u569_41
  6527   0014B0  EF5C  F00A         	goto	i2u569_40
  6528   0014B4                     i2u569_41:
  6529   0014B4  EF65  F00A         	goto	i2l1024
  6530   0014B8                     i2u569_40:
  6531   0014B8  A2F2               	btfss	242,1,c	;volatile
  6532   0014BA  EF61  F00A         	goto	i2u570_41
  6533   0014BE  EF63  F00A         	goto	i2u570_40
  6534   0014C2                     i2u570_41:
  6535   0014C2  EF65  F00A         	goto	i2l1024
  6536   0014C6                     i2u570_40:
  6537   0014C6                     
  6538                           ;MCAL_Layer/Interrupt/mcal_interrupt_manager.c: 36:         INT0_ISR();
  6539   0014C6  ECEE  F017         	call	_INT0_ISR	;wreg free
  6540   0014CA                     i2l1024:
  6541                           
  6542                           ;MCAL_Layer/Interrupt/mcal_interrupt_manager.c: 39:     if((1 == INTCON3bits.INT1E) && (
      +                          1 == INTCON3bits.INT1F)){
  6543   0014CA  A6F0               	btfss	240,3,c	;volatile
  6544   0014CC  EF6A  F00A         	goto	i2u571_41
  6545   0014D0  EF6C  F00A         	goto	i2u571_40
  6546   0014D4                     i2u571_41:
  6547   0014D4  EF75  F00A         	goto	i2l1026
  6548   0014D8                     i2u571_40:
  6549   0014D8  A0F0               	btfss	240,0,c	;volatile
  6550   0014DA  EF71  F00A         	goto	i2u572_41
  6551   0014DE  EF73  F00A         	goto	i2u572_40
  6552   0014E2                     i2u572_41:
  6553   0014E2  EF75  F00A         	goto	i2l1026
  6554   0014E6                     i2u572_40:
  6555   0014E6                     
  6556                           ;MCAL_Layer/Interrupt/mcal_interrupt_manager.c: 40:         INT1_ISR();
  6557   0014E6  ECEC  F017         	call	_INT1_ISR	;wreg free
  6558   0014EA                     i2l1026:
  6559                           
  6560                           ;MCAL_Layer/Interrupt/mcal_interrupt_manager.c: 43:     if((1 == INTCON3bits.INT2IE) && 
      +                          (1 == INTCON3bits.INT2IF)){
  6561   0014EA  A8F0               	btfss	240,4,c	;volatile
  6562   0014EC  EF7A  F00A         	goto	i2u573_41
  6563   0014F0  EF7C  F00A         	goto	i2u573_40
  6564   0014F4                     i2u573_41:
  6565   0014F4  EF85  F00A         	goto	i2l1028
  6566   0014F8                     i2u573_40:
  6567   0014F8  A2F0               	btfss	240,1,c	;volatile
  6568   0014FA  EF81  F00A         	goto	i2u574_41
  6569   0014FE  EF83  F00A         	goto	i2u574_40
  6570   001502                     i2u574_41:
  6571   001502  EF85  F00A         	goto	i2l1028
  6572   001506                     i2u574_40:
  6573   001506                     
  6574                           ;MCAL_Layer/Interrupt/mcal_interrupt_manager.c: 44:         INT2_ISR();
  6575   001506  ECEA  F017         	call	_INT2_ISR	;wreg free
  6576   00150A                     i2l1028:
  6577                           
  6578                           ;MCAL_Layer/Interrupt/mcal_interrupt_manager.c: 50:     if((1 == INTCONbits.RBIE) && (1 
      +                          == INTCONbits.RBIF) &&
  6579   00150A  A6F2               	btfss	242,3,c	;volatile
  6580   00150C  EF8A  F00A         	goto	i2u575_41
  6581   001510  EF8C  F00A         	goto	i2u575_40
  6582   001514                     i2u575_41:
  6583   001514  EFA7  F00A         	goto	i2l1030
  6584   001518                     i2u575_40:
  6585   001518  A0F2               	btfss	242,0,c	;volatile
  6586   00151A  EF91  F00A         	goto	i2u576_41
  6587   00151E  EF93  F00A         	goto	i2u576_40
  6588   001522                     i2u576_41:
  6589   001522  EFA7  F00A         	goto	i2l1030
  6590   001526                     i2u576_40:
  6591   001526  A881               	btfss	129,4,c	;volatile
  6592   001528  EF98  F00A         	goto	i2u577_41
  6593   00152C  EF9A  F00A         	goto	i2u577_40
  6594   001530                     i2u577_41:
  6595   001530  EFA7  F00A         	goto	i2l1030
  6596   001534                     i2u577_40:
  6597   001534  0478               	decf	_RB4_Flag^0,w,c	;volatile
  6598   001536  A4D8               	btfss	status,2,c
  6599   001538  EFA0  F00A         	goto	i2u578_41
  6600   00153C  EFA2  F00A         	goto	i2u578_40
  6601   001540                     i2u578_41:
  6602   001540  EFA7  F00A         	goto	i2l1030
  6603   001544                     i2u578_40:
  6604   001544                     
  6605                           ;MCAL_Layer/Interrupt/mcal_interrupt_manager.c: 51:        (PORTBbits.RB4 == 0x01) && (R
      +                          B4_Flag == 1)){;MCAL_Layer/Interrupt/mcal_interrupt_manager.c: 52:         RB4_Flag = 0;
  6606   001544  0E00               	movlw	0
  6607   001546  6E78               	movwf	_RB4_Flag^0,c	;volatile
  6608   001548                     
  6609                           ;MCAL_Layer/Interrupt/mcal_interrupt_manager.c: 53:         RB4_ISR(0);
  6610   001548  0E00               	movlw	0
  6611   00154A  ECBA  F017         	call	_RB4_ISR
  6612   00154E                     i2l1030:
  6613                           
  6614                           ;MCAL_Layer/Interrupt/mcal_interrupt_manager.c: 56:     if((1 == INTCONbits.RBIE) && (1 
      +                          == INTCONbits.RBIF) &&
  6615   00154E  A6F2               	btfss	242,3,c	;volatile
  6616   001550  EFAC  F00A         	goto	i2u579_41
  6617   001554  EFAE  F00A         	goto	i2u579_40
  6618   001558                     i2u579_41:
  6619   001558  EFC9  F00A         	goto	i2l1032
  6620   00155C                     i2u579_40:
  6621   00155C  A0F2               	btfss	242,0,c	;volatile
  6622   00155E  EFB3  F00A         	goto	i2u580_41
  6623   001562  EFB5  F00A         	goto	i2u580_40
  6624   001566                     i2u580_41:
  6625   001566  EFC9  F00A         	goto	i2l1032
  6626   00156A                     i2u580_40:
  6627   00156A  B881               	btfsc	129,4,c	;volatile
  6628   00156C  EFBA  F00A         	goto	i2u581_41
  6629   001570  EFBC  F00A         	goto	i2u581_40
  6630   001574                     i2u581_41:
  6631   001574  EFC9  F00A         	goto	i2l1032
  6632   001578                     i2u581_40:
  6633   001578  5078               	movf	_RB4_Flag^0,w,c	;volatile
  6634   00157A  A4D8               	btfss	status,2,c
  6635   00157C  EFC2  F00A         	goto	i2u582_41
  6636   001580  EFC4  F00A         	goto	i2u582_40
  6637   001584                     i2u582_41:
  6638   001584  EFC9  F00A         	goto	i2l1032
  6639   001588                     i2u582_40:
  6640   001588                     
  6641                           ;MCAL_Layer/Interrupt/mcal_interrupt_manager.c: 57:        (PORTBbits.RB4 == 0x00) && (R
      +                          B4_Flag == 0)){;MCAL_Layer/Interrupt/mcal_interrupt_manager.c: 58:         RB4_Flag = 1;
  6642   001588  0E01               	movlw	1
  6643   00158A  6E78               	movwf	_RB4_Flag^0,c	;volatile
  6644   00158C                     
  6645                           ;MCAL_Layer/Interrupt/mcal_interrupt_manager.c: 59:         RB4_ISR(1);
  6646   00158C  0E01               	movlw	1
  6647   00158E  ECBA  F017         	call	_RB4_ISR
  6648   001592                     i2l1032:
  6649                           
  6650                           ;MCAL_Layer/Interrupt/mcal_interrupt_manager.c: 62:     if((1 == INTCONbits.RBIE) && (1 
      +                          == INTCONbits.RBIF) &&
  6651   001592  A6F2               	btfss	242,3,c	;volatile
  6652   001594  EFCE  F00A         	goto	i2u583_41
  6653   001598  EFD0  F00A         	goto	i2u583_40
  6654   00159C                     i2u583_41:
  6655   00159C  EFEB  F00A         	goto	i2l1034
  6656   0015A0                     i2u583_40:
  6657   0015A0  A0F2               	btfss	242,0,c	;volatile
  6658   0015A2  EFD5  F00A         	goto	i2u584_41
  6659   0015A6  EFD7  F00A         	goto	i2u584_40
  6660   0015AA                     i2u584_41:
  6661   0015AA  EFEB  F00A         	goto	i2l1034
  6662   0015AE                     i2u584_40:
  6663   0015AE  AA81               	btfss	129,5,c	;volatile
  6664   0015B0  EFDC  F00A         	goto	i2u585_41
  6665   0015B4  EFDE  F00A         	goto	i2u585_40
  6666   0015B8                     i2u585_41:
  6667   0015B8  EFEB  F00A         	goto	i2l1034
  6668   0015BC                     i2u585_40:
  6669   0015BC  0477               	decf	_RB5_Flag^0,w,c	;volatile
  6670   0015BE  A4D8               	btfss	status,2,c
  6671   0015C0  EFE4  F00A         	goto	i2u586_41
  6672   0015C4  EFE6  F00A         	goto	i2u586_40
  6673   0015C8                     i2u586_41:
  6674   0015C8  EFEB  F00A         	goto	i2l1034
  6675   0015CC                     i2u586_40:
  6676   0015CC                     
  6677                           ;MCAL_Layer/Interrupt/mcal_interrupt_manager.c: 63:        (PORTBbits.RB5 == 0x01) && (R
      +                          B5_Flag == 1)){;MCAL_Layer/Interrupt/mcal_interrupt_manager.c: 64:         RB5_Flag = 0;
  6678   0015CC  0E00               	movlw	0
  6679   0015CE  6E77               	movwf	_RB5_Flag^0,c	;volatile
  6680   0015D0                     
  6681                           ;MCAL_Layer/Interrupt/mcal_interrupt_manager.c: 65:         RB5_ISR(0);
  6682   0015D0  0E00               	movlw	0
  6683   0015D2  ECAD  F017         	call	_RB5_ISR
  6684   0015D6                     i2l1034:
  6685                           
  6686                           ;MCAL_Layer/Interrupt/mcal_interrupt_manager.c: 68:     if((1 == INTCONbits.RBIE) && (1 
      +                          == INTCONbits.RBIF) &&
  6687   0015D6  A6F2               	btfss	242,3,c	;volatile
  6688   0015D8  EFF0  F00A         	goto	i2u587_41
  6689   0015DC  EFF2  F00A         	goto	i2u587_40
  6690   0015E0                     i2u587_41:
  6691   0015E0  EF0D  F00B         	goto	i2l1036
  6692   0015E4                     i2u587_40:
  6693   0015E4  A0F2               	btfss	242,0,c	;volatile
  6694   0015E6  EFF7  F00A         	goto	i2u588_41
  6695   0015EA  EFF9  F00A         	goto	i2u588_40
  6696   0015EE                     i2u588_41:
  6697   0015EE  EF0D  F00B         	goto	i2l1036
  6698   0015F2                     i2u588_40:
  6699   0015F2  BA81               	btfsc	129,5,c	;volatile
  6700   0015F4  EFFE  F00A         	goto	i2u589_41
  6701   0015F8  EF00  F00B         	goto	i2u589_40
  6702   0015FC                     i2u589_41:
  6703   0015FC  EF0D  F00B         	goto	i2l1036
  6704   001600                     i2u589_40:
  6705   001600  5077               	movf	_RB5_Flag^0,w,c	;volatile
  6706   001602  A4D8               	btfss	status,2,c
  6707   001604  EF06  F00B         	goto	i2u590_41
  6708   001608  EF08  F00B         	goto	i2u590_40
  6709   00160C                     i2u590_41:
  6710   00160C  EF0D  F00B         	goto	i2l1036
  6711   001610                     i2u590_40:
  6712   001610                     
  6713                           ;MCAL_Layer/Interrupt/mcal_interrupt_manager.c: 69:        (PORTBbits.RB5 == 0x00) && (R
      +                          B5_Flag == 0)){;MCAL_Layer/Interrupt/mcal_interrupt_manager.c: 70:         RB5_Flag = 1;
  6714   001610  0E01               	movlw	1
  6715   001612  6E77               	movwf	_RB5_Flag^0,c	;volatile
  6716   001614                     
  6717                           ;MCAL_Layer/Interrupt/mcal_interrupt_manager.c: 71:         RB5_ISR(1);
  6718   001614  0E01               	movlw	1
  6719   001616  ECAD  F017         	call	_RB5_ISR
  6720   00161A                     i2l1036:
  6721                           
  6722                           ;MCAL_Layer/Interrupt/mcal_interrupt_manager.c: 74:     if((1 == INTCONbits.RBIE) && (1 
      +                          == INTCONbits.RBIF) &&
  6723   00161A  A6F2               	btfss	242,3,c	;volatile
  6724   00161C  EF12  F00B         	goto	i2u591_41
  6725   001620  EF14  F00B         	goto	i2u591_40
  6726   001624                     i2u591_41:
  6727   001624  EF2F  F00B         	goto	i2l1038
  6728   001628                     i2u591_40:
  6729   001628  A0F2               	btfss	242,0,c	;volatile
  6730   00162A  EF19  F00B         	goto	i2u592_41
  6731   00162E  EF1B  F00B         	goto	i2u592_40
  6732   001632                     i2u592_41:
  6733   001632  EF2F  F00B         	goto	i2l1038
  6734   001636                     i2u592_40:
  6735   001636  AC81               	btfss	129,6,c	;volatile
  6736   001638  EF20  F00B         	goto	i2u593_41
  6737   00163C  EF22  F00B         	goto	i2u593_40
  6738   001640                     i2u593_41:
  6739   001640  EF2F  F00B         	goto	i2l1038
  6740   001644                     i2u593_40:
  6741   001644  0476               	decf	_RB6_Flag^0,w,c	;volatile
  6742   001646  A4D8               	btfss	status,2,c
  6743   001648  EF28  F00B         	goto	i2u594_41
  6744   00164C  EF2A  F00B         	goto	i2u594_40
  6745   001650                     i2u594_41:
  6746   001650  EF2F  F00B         	goto	i2l1038
  6747   001654                     i2u594_40:
  6748   001654                     
  6749                           ;MCAL_Layer/Interrupt/mcal_interrupt_manager.c: 75:        (PORTBbits.RB6 == 0x01) && (R
      +                          B6_Flag == 1)){;MCAL_Layer/Interrupt/mcal_interrupt_manager.c: 76:         RB6_Flag = 0;
  6750   001654  0E00               	movlw	0
  6751   001656  6E76               	movwf	_RB6_Flag^0,c	;volatile
  6752   001658                     
  6753                           ;MCAL_Layer/Interrupt/mcal_interrupt_manager.c: 77:         RB6_ISR(0);
  6754   001658  0E00               	movlw	0
  6755   00165A  ECA0  F017         	call	_RB6_ISR
  6756   00165E                     i2l1038:
  6757                           
  6758                           ;MCAL_Layer/Interrupt/mcal_interrupt_manager.c: 80:     if((1 == INTCONbits.RBIE) && (1 
      +                          == INTCONbits.RBIF) &&
  6759   00165E  A6F2               	btfss	242,3,c	;volatile
  6760   001660  EF34  F00B         	goto	i2u595_41
  6761   001664  EF36  F00B         	goto	i2u595_40
  6762   001668                     i2u595_41:
  6763   001668  EF51  F00B         	goto	i2l1040
  6764   00166C                     i2u595_40:
  6765   00166C  A0F2               	btfss	242,0,c	;volatile
  6766   00166E  EF3B  F00B         	goto	i2u596_41
  6767   001672  EF3D  F00B         	goto	i2u596_40
  6768   001676                     i2u596_41:
  6769   001676  EF51  F00B         	goto	i2l1040
  6770   00167A                     i2u596_40:
  6771   00167A  BC81               	btfsc	129,6,c	;volatile
  6772   00167C  EF42  F00B         	goto	i2u597_41
  6773   001680  EF44  F00B         	goto	i2u597_40
  6774   001684                     i2u597_41:
  6775   001684  EF51  F00B         	goto	i2l1040
  6776   001688                     i2u597_40:
  6777   001688  5076               	movf	_RB6_Flag^0,w,c	;volatile
  6778   00168A  A4D8               	btfss	status,2,c
  6779   00168C  EF4A  F00B         	goto	i2u598_41
  6780   001690  EF4C  F00B         	goto	i2u598_40
  6781   001694                     i2u598_41:
  6782   001694  EF51  F00B         	goto	i2l1040
  6783   001698                     i2u598_40:
  6784   001698                     
  6785                           ;MCAL_Layer/Interrupt/mcal_interrupt_manager.c: 81:        (PORTBbits.RB6 == 0x00) && (R
      +                          B6_Flag == 0)){;MCAL_Layer/Interrupt/mcal_interrupt_manager.c: 82:         RB6_Flag = 1;
  6786   001698  0E01               	movlw	1
  6787   00169A  6E76               	movwf	_RB6_Flag^0,c	;volatile
  6788   00169C                     
  6789                           ;MCAL_Layer/Interrupt/mcal_interrupt_manager.c: 83:         RB6_ISR(1);
  6790   00169C  0E01               	movlw	1
  6791   00169E  ECA0  F017         	call	_RB6_ISR
  6792   0016A2                     i2l1040:
  6793                           
  6794                           ;MCAL_Layer/Interrupt/mcal_interrupt_manager.c: 86:     if((1 == INTCONbits.RBIE) && (1 
      +                          == INTCONbits.RBIF) &&
  6795   0016A2  A6F2               	btfss	242,3,c	;volatile
  6796   0016A4  EF56  F00B         	goto	i2u599_41
  6797   0016A8  EF58  F00B         	goto	i2u599_40
  6798   0016AC                     i2u599_41:
  6799   0016AC  EF73  F00B         	goto	i2l1042
  6800   0016B0                     i2u599_40:
  6801   0016B0  A0F2               	btfss	242,0,c	;volatile
  6802   0016B2  EF5D  F00B         	goto	i2u600_41
  6803   0016B6  EF5F  F00B         	goto	i2u600_40
  6804   0016BA                     i2u600_41:
  6805   0016BA  EF73  F00B         	goto	i2l1042
  6806   0016BE                     i2u600_40:
  6807   0016BE  AE81               	btfss	129,7,c	;volatile
  6808   0016C0  EF64  F00B         	goto	i2u601_41
  6809   0016C4  EF66  F00B         	goto	i2u601_40
  6810   0016C8                     i2u601_41:
  6811   0016C8  EF73  F00B         	goto	i2l1042
  6812   0016CC                     i2u601_40:
  6813   0016CC  0475               	decf	_RB7_Flag^0,w,c	;volatile
  6814   0016CE  A4D8               	btfss	status,2,c
  6815   0016D0  EF6C  F00B         	goto	i2u602_41
  6816   0016D4  EF6E  F00B         	goto	i2u602_40
  6817   0016D8                     i2u602_41:
  6818   0016D8  EF73  F00B         	goto	i2l1042
  6819   0016DC                     i2u602_40:
  6820   0016DC                     
  6821                           ;MCAL_Layer/Interrupt/mcal_interrupt_manager.c: 87:        (PORTBbits.RB7 == 0x01) && (R
      +                          B7_Flag == 1)){;MCAL_Layer/Interrupt/mcal_interrupt_manager.c: 88:         RB7_Flag = 0;
  6822   0016DC  0E00               	movlw	0
  6823   0016DE  6E75               	movwf	_RB7_Flag^0,c	;volatile
  6824   0016E0                     
  6825                           ;MCAL_Layer/Interrupt/mcal_interrupt_manager.c: 89:         RB7_ISR(0);
  6826   0016E0  0E00               	movlw	0
  6827   0016E2  EC93  F017         	call	_RB7_ISR
  6828   0016E6                     i2l1042:
  6829                           
  6830                           ;MCAL_Layer/Interrupt/mcal_interrupt_manager.c: 92:     if((1 == INTCONbits.RBIE) && (1 
      +                          == INTCONbits.RBIF) &&
  6831   0016E6  A6F2               	btfss	242,3,c	;volatile
  6832   0016E8  EF78  F00B         	goto	i2u603_41
  6833   0016EC  EF7A  F00B         	goto	i2u603_40
  6834   0016F0                     i2u603_41:
  6835   0016F0  EF95  F00B         	goto	i2l1044
  6836   0016F4                     i2u603_40:
  6837   0016F4  A0F2               	btfss	242,0,c	;volatile
  6838   0016F6  EF7F  F00B         	goto	i2u604_41
  6839   0016FA  EF81  F00B         	goto	i2u604_40
  6840   0016FE                     i2u604_41:
  6841   0016FE  EF95  F00B         	goto	i2l1044
  6842   001702                     i2u604_40:
  6843   001702  BE81               	btfsc	129,7,c	;volatile
  6844   001704  EF86  F00B         	goto	i2u605_41
  6845   001708  EF88  F00B         	goto	i2u605_40
  6846   00170C                     i2u605_41:
  6847   00170C  EF95  F00B         	goto	i2l1044
  6848   001710                     i2u605_40:
  6849   001710  5075               	movf	_RB7_Flag^0,w,c	;volatile
  6850   001712  A4D8               	btfss	status,2,c
  6851   001714  EF8E  F00B         	goto	i2u606_41
  6852   001718  EF90  F00B         	goto	i2u606_40
  6853   00171C                     i2u606_41:
  6854   00171C  EF95  F00B         	goto	i2l1044
  6855   001720                     i2u606_40:
  6856   001720                     
  6857                           ;MCAL_Layer/Interrupt/mcal_interrupt_manager.c: 93:        (PORTBbits.RB7 == 0x00) && (R
      +                          B7_Flag == 0)){;MCAL_Layer/Interrupt/mcal_interrupt_manager.c: 94:         RB7_Flag = 1;
  6858   001720  0E01               	movlw	1
  6859   001722  6E75               	movwf	_RB7_Flag^0,c	;volatile
  6860   001724                     
  6861                           ;MCAL_Layer/Interrupt/mcal_interrupt_manager.c: 95:         RB7_ISR(1);
  6862   001724  0E01               	movlw	1
  6863   001726  EC93  F017         	call	_RB7_ISR
  6864   00172A                     i2l1044:
  6865                           
  6866                           ;MCAL_Layer/Interrupt/mcal_interrupt_manager.c: 99:     if((1 == PIE1bits.ADIE) && (1 ==
      +                           PIR1bits.ADIF)){
  6867   00172A  AC9D               	btfss	157,6,c	;volatile
  6868   00172C  EF9A  F00B         	goto	i2u607_41
  6869   001730  EF9C  F00B         	goto	i2u607_40
  6870   001734                     i2u607_41:
  6871   001734  EFA5  F00B         	goto	i2l1046
  6872   001738                     i2u607_40:
  6873   001738  AC9E               	btfss	158,6,c	;volatile
  6874   00173A  EFA1  F00B         	goto	i2u608_41
  6875   00173E  EFA3  F00B         	goto	i2u608_40
  6876   001742                     i2u608_41:
  6877   001742  EFA5  F00B         	goto	i2l1046
  6878   001746                     i2u608_40:
  6879   001746                     
  6880                           ;MCAL_Layer/Interrupt/mcal_interrupt_manager.c: 100:         ADC_ISR();
  6881   001746  ECF6  F017         	call	_ADC_ISR	;wreg free
  6882   00174A                     i2l1046:
  6883                           
  6884                           ;MCAL_Layer/Interrupt/mcal_interrupt_manager.c: 103:     if((1 == INTCONbits.TMR0IE) && 
      +                          (1 == INTCONbits.TMR0IF)){
  6885   00174A  AAF2               	btfss	242,5,c	;volatile
  6886   00174C  EFAA  F00B         	goto	i2u609_41
  6887   001750  EFAC  F00B         	goto	i2u609_40
  6888   001754                     i2u609_41:
  6889   001754  EFB5  F00B         	goto	i2l1048
  6890   001758                     i2u609_40:
  6891   001758  A4F2               	btfss	242,2,c	;volatile
  6892   00175A  EFB1  F00B         	goto	i2u610_41
  6893   00175E  EFB3  F00B         	goto	i2u610_40
  6894   001762                     i2u610_41:
  6895   001762  EFB5  F00B         	goto	i2l1048
  6896   001766                     i2u610_40:
  6897   001766                     
  6898                           ;MCAL_Layer/Interrupt/mcal_interrupt_manager.c: 104:         TMR0_ISR();
  6899   001766  ECDB  F017         	call	_TMR0_ISR	;wreg free
  6900   00176A                     i2l1048:
  6901                           
  6902                           ;MCAL_Layer/Interrupt/mcal_interrupt_manager.c: 108:     if((1 == PIE1bits.TMR1IE) && (1
      +                           == PIR1bits.TMR1IF)){
  6903   00176A  A09D               	btfss	157,0,c	;volatile
  6904   00176C  EFBA  F00B         	goto	i2u611_41
  6905   001770  EFBC  F00B         	goto	i2u611_40
  6906   001774                     i2u611_41:
  6907   001774  EFC5  F00B         	goto	i2l1050
  6908   001778                     i2u611_40:
  6909   001778  A09E               	btfss	158,0,c	;volatile
  6910   00177A  EFC1  F00B         	goto	i2u612_41
  6911   00177E  EFC3  F00B         	goto	i2u612_40
  6912   001782                     i2u612_41:
  6913   001782  EFC5  F00B         	goto	i2l1050
  6914   001786                     i2u612_40:
  6915   001786                     
  6916                           ;MCAL_Layer/Interrupt/mcal_interrupt_manager.c: 109:         TMR1_ISR();
  6917   001786  ECD5  F017         	call	_TMR1_ISR	;wreg free
  6918   00178A                     i2l1050:
  6919                           
  6920                           ;MCAL_Layer/Interrupt/mcal_interrupt_manager.c: 112:     if((1 == PIE1bits.TMR2IE) && (1
      +                           == PIR1bits.TMR2IF)){
  6921   00178A  A29D               	btfss	157,1,c	;volatile
  6922   00178C  EFCA  F00B         	goto	i2u613_41
  6923   001790  EFCC  F00B         	goto	i2u613_40
  6924   001794                     i2u613_41:
  6925   001794  EFD5  F00B         	goto	i2l1052
  6926   001798                     i2u613_40:
  6927   001798  A29E               	btfss	158,1,c	;volatile
  6928   00179A  EFD1  F00B         	goto	i2u614_41
  6929   00179E  EFD3  F00B         	goto	i2u614_40
  6930   0017A2                     i2u614_41:
  6931   0017A2  EFD5  F00B         	goto	i2l1052
  6932   0017A6                     i2u614_40:
  6933   0017A6                     
  6934                           ;MCAL_Layer/Interrupt/mcal_interrupt_manager.c: 113:         TMR2_ISR();
  6935   0017A6  ECE1  F017         	call	_TMR2_ISR	;wreg free
  6936   0017AA                     i2l1052:
  6937                           
  6938                           ;MCAL_Layer/Interrupt/mcal_interrupt_manager.c: 116:     if((1 == PIE2bits.TMR3IE) && (1
      +                           == PIR2bits.TMR3IF)){
  6939   0017AA  A2A0               	btfss	160,1,c	;volatile
  6940   0017AC  EFDA  F00B         	goto	i2u615_41
  6941   0017B0  EFDC  F00B         	goto	i2u615_40
  6942   0017B4                     i2u615_41:
  6943   0017B4  EFE5  F00B         	goto	i2l1054
  6944   0017B8                     i2u615_40:
  6945   0017B8  A2A1               	btfss	161,1,c	;volatile
  6946   0017BA  EFE1  F00B         	goto	i2u616_41
  6947   0017BE  EFE3  F00B         	goto	i2u616_40
  6948   0017C2                     i2u616_41:
  6949   0017C2  EFE5  F00B         	goto	i2l1054
  6950   0017C6                     i2u616_40:
  6951   0017C6                     
  6952                           ;MCAL_Layer/Interrupt/mcal_interrupt_manager.c: 117:         TMR3_ISR();
  6953   0017C6  ECCF  F017         	call	_TMR3_ISR	;wreg free
  6954   0017CA                     i2l1054:
  6955                           
  6956                           ;MCAL_Layer/Interrupt/mcal_interrupt_manager.c: 120:     if((1 == PIE1bits.CCP1IE) && (1
      +                           == PIR1bits.CCP1IF)){
  6957   0017CA  A49D               	btfss	157,2,c	;volatile
  6958   0017CC  EFEA  F00B         	goto	i2u617_41
  6959   0017D0  EFEC  F00B         	goto	i2u617_40
  6960   0017D4                     i2u617_41:
  6961   0017D4  EFF5  F00B         	goto	i2l1056
  6962   0017D8                     i2u617_40:
  6963   0017D8  A49E               	btfss	158,2,c	;volatile
  6964   0017DA  EFF1  F00B         	goto	i2u618_41
  6965   0017DE  EFF3  F00B         	goto	i2u618_40
  6966   0017E2                     i2u618_41:
  6967   0017E2  EFF5  F00B         	goto	i2l1056
  6968   0017E6                     i2u618_40:
  6969   0017E6                     
  6970                           ;MCAL_Layer/Interrupt/mcal_interrupt_manager.c: 121:         CCP1_ISR();
  6971   0017E6  ECF4  F017         	call	_CCP1_ISR	;wreg free
  6972   0017EA                     i2l1056:
  6973                           
  6974                           ;MCAL_Layer/Interrupt/mcal_interrupt_manager.c: 124:     if((1 == PIE2bits.CCP2IE) && (1
      +                           == PIR2bits.CCP2IF)){
  6975   0017EA  A0A0               	btfss	160,0,c	;volatile
  6976   0017EC  EFFA  F00B         	goto	i2u619_41
  6977   0017F0  EFFC  F00B         	goto	i2u619_40
  6978   0017F4                     i2u619_41:
  6979   0017F4  EF05  F00C         	goto	i2l1058
  6980   0017F8                     i2u619_40:
  6981   0017F8  A0A1               	btfss	161,0,c	;volatile
  6982   0017FA  EF01  F00C         	goto	i2u620_41
  6983   0017FE  EF03  F00C         	goto	i2u620_40
  6984   001802                     i2u620_41:
  6985   001802  EF05  F00C         	goto	i2l1058
  6986   001806                     i2u620_40:
  6987   001806                     
  6988                           ;MCAL_Layer/Interrupt/mcal_interrupt_manager.c: 125:         CCP2_ISR();
  6989   001806  ECF2  F017         	call	_CCP2_ISR	;wreg free
  6990   00180A                     i2l1058:
  6991                           
  6992                           ;MCAL_Layer/Interrupt/mcal_interrupt_manager.c: 128:         if((1 == PIE1bits.TXIE) && 
      +                          (1 == PIR1bits.TXIF)){
  6993   00180A  A89D               	btfss	157,4,c	;volatile
  6994   00180C  EF0A  F00C         	goto	i2u621_41
  6995   001810  EF0C  F00C         	goto	i2u621_40
  6996   001814                     i2u621_41:
  6997   001814  EF15  F00C         	goto	i2l1060
  6998   001818                     i2u621_40:
  6999   001818  A89E               	btfss	158,4,c	;volatile
  7000   00181A  EF11  F00C         	goto	i2u622_41
  7001   00181E  EF13  F00C         	goto	i2u622_40
  7002   001822                     i2u622_41:
  7003   001822  EF15  F00C         	goto	i2l1060
  7004   001826                     i2u622_40:
  7005   001826                     
  7006                           ;MCAL_Layer/Interrupt/mcal_interrupt_manager.c: 129:         EUSART_TX_ISR();
  7007   001826  ECF0  F017         	call	_EUSART_TX_ISR	;wreg free
  7008   00182A                     i2l1060:
  7009                           
  7010                           ;MCAL_Layer/Interrupt/mcal_interrupt_manager.c: 132:     if((1 == PIE1bits.RCIE) && (1 =
      +                          = PIR1bits.RCIF)){
  7011   00182A  AA9D               	btfss	157,5,c	;volatile
  7012   00182C  EF1A  F00C         	goto	i2u623_41
  7013   001830  EF1C  F00C         	goto	i2u623_40
  7014   001834                     i2u623_41:
  7015   001834  EF25  F00C         	goto	i2l1062
  7016   001838                     i2u623_40:
  7017   001838  AA9E               	btfss	158,5,c	;volatile
  7018   00183A  EF21  F00C         	goto	i2u624_41
  7019   00183E  EF23  F00C         	goto	i2u624_40
  7020   001842                     i2u624_41:
  7021   001842  EF25  F00C         	goto	i2l1062
  7022   001846                     i2u624_40:
  7023   001846                     
  7024                           ;MCAL_Layer/Interrupt/mcal_interrupt_manager.c: 133:         EUSART_RX_ISR();
  7025   001846  ECF9  F017         	call	_EUSART_RX_ISR	;wreg free
  7026   00184A                     i2l1062:
  7027                           
  7028                           ;MCAL_Layer/Interrupt/mcal_interrupt_manager.c: 136:     if((1 == PIE1bits.SSPIE) && (1 
      +                          == PIR1bits.SSPIF)){
  7029   00184A  A69D               	btfss	157,3,c	;volatile
  7030   00184C  EF2A  F00C         	goto	i2u625_41
  7031   001850  EF2C  F00C         	goto	i2u625_40
  7032   001854                     i2u625_41:
  7033   001854  EF35  F00C         	goto	i2l1065
  7034   001858                     i2u625_40:
  7035   001858  A69E               	btfss	158,3,c	;volatile
  7036   00185A  EF31  F00C         	goto	i2u626_41
  7037   00185E  EF33  F00C         	goto	i2u626_40
  7038   001862                     i2u626_41:
  7039   001862  EF35  F00C         	goto	i2l1065
  7040   001866                     i2u626_40:
  7041   001866                     
  7042                           ;MCAL_Layer/Interrupt/mcal_interrupt_manager.c: 137:         MSSP_SPI_ISR();
  7043   001866  ECE8  F017         	call	_MSSP_SPI_ISR	;wreg free
  7044   00186A                     i2l1065:
  7045   00186A  927E               	bcf	int$flags,1,c	;clear compiler interrupt flag (level 2)
  7046   00186C  0011               	retfie		f
  7047   00186E                     __end_of_InterruptManager:
  7048                           	callstack 0
  7049                           
  7050 ;; *************** function _TMR3_ISR *****************
  7051 ;; Defined at:
  7052 ;;		line 119 in file "MCAL_Layer/Timer3/hal_timr3.c"
  7053 ;; Parameters:    Size  Location     Type
  7054 ;;		None
  7055 ;; Auto vars:     Size  Location     Type
  7056 ;;		None
  7057 ;; Return value:  Size  Location     Type
  7058 ;;                  1    wreg      void 
  7059 ;; Registers used:
  7060 ;;		wreg, status,2
  7061 ;; Tracked objects:
  7062 ;;		On entry : 0/0
  7063 ;;		On exit  : 0/0
  7064 ;;		Unchanged: 0/0
  7065 ;; Data sizes:     COMRAM   BANK0   BANK1   BANK2   BANK3   BANK4   BANK5   BANK6   BANK7   BANK8   BANK9  BANK10  BANK1
      +1  BANK12  BANK13  BANK14  BANK15
  7066 ;;      Params:         0       0       0       0       0       0       0       0       0       0       0       0       
      +0       0       0       0       0
  7067 ;;      Locals:         0       0       0       0       0       0       0       0       0       0       0       0       
      +0       0       0       0       0
  7068 ;;      Temps:          0       0       0       0       0       0       0       0       0       0       0       0       
      +0       0       0       0       0
  7069 ;;      Totals:         0       0       0       0       0       0       0       0       0       0       0       0       
      +0       0       0       0       0
  7070 ;;Total ram usage:        0 bytes
  7071 ;; Hardware stack levels used: 1
  7072 ;; This function calls:
  7073 ;;		Nothing
  7074 ;; This function is called by:
  7075 ;;		_InterruptManager
  7076 ;; This function uses a non-reentrant model
  7077 ;;
  7078                           
  7079                           	psect	text43
  7080   002F9E                     __ptext43:
  7081                           	callstack 0
  7082   002F9E                     _TMR3_ISR:
  7083                           	callstack 23
  7084   002F9E                     
  7085                           ;MCAL_Layer/Timer3/hal_timr3.c: 120:     (PIR2bits.TMR3IF = 0);
  7086   002F9E  92A1               	bcf	161,1,c	;volatile
  7087   002FA0                     
  7088                           ;MCAL_Layer/Timer3/hal_timr3.c: 121:     TMR3H = (timer3_preload) >> 8;
  7089   002FA0  503C               	movf	(_timer3_preload+1)^0,w,c
  7090   002FA2  6EB3               	movwf	179,c	;volatile
  7091   002FA4                     
  7092                           ;MCAL_Layer/Timer3/hal_timr3.c: 122:     TMR3L = (uint8)(timer3_preload);
  7093   002FA4  C03B  FFB2         	movff	_timer3_preload,4018	;volatile
  7094   002FA8  0012               	return		;funcret
  7095   002FAA                     __end_of_TMR3_ISR:
  7096                           	callstack 0
  7097                           
  7098 ;; *************** function _TMR2_ISR *****************
  7099 ;; Defined at:
  7100 ;;		line 95 in file "MCAL_Layer/Timer2/hal_timr2.c"
  7101 ;; Parameters:    Size  Location     Type
  7102 ;;		None
  7103 ;; Auto vars:     Size  Location     Type
  7104 ;;		None
  7105 ;; Return value:  Size  Location     Type
  7106 ;;                  1    wreg      void 
  7107 ;; Registers used:
  7108 ;;		wreg, status,2
  7109 ;; Tracked objects:
  7110 ;;		On entry : 0/0
  7111 ;;		On exit  : 0/0
  7112 ;;		Unchanged: 0/0
  7113 ;; Data sizes:     COMRAM   BANK0   BANK1   BANK2   BANK3   BANK4   BANK5   BANK6   BANK7   BANK8   BANK9  BANK10  BANK1
      +1  BANK12  BANK13  BANK14  BANK15
  7114 ;;      Params:         0       0       0       0       0       0       0       0       0       0       0       0       
      +0       0       0       0       0
  7115 ;;      Locals:         0       0       0       0       0       0       0       0       0       0       0       0       
      +0       0       0       0       0
  7116 ;;      Temps:          0       0       0       0       0       0       0       0       0       0       0       0       
      +0       0       0       0       0
  7117 ;;      Totals:         0       0       0       0       0       0       0       0       0       0       0       0       
      +0       0       0       0       0
  7118 ;;Total ram usage:        0 bytes
  7119 ;; Hardware stack levels used: 1
  7120 ;; This function calls:
  7121 ;;		Nothing
  7122 ;; This function is called by:
  7123 ;;		_InterruptManager
  7124 ;; This function uses a non-reentrant model
  7125 ;;
  7126                           
  7127                           	psect	text44
  7128   002FC2                     __ptext44:
  7129                           	callstack 0
  7130   002FC2                     _TMR2_ISR:
  7131                           	callstack 23
  7132   002FC2                     
  7133                           ;MCAL_Layer/Timer2/hal_timr2.c: 96:     (PIR1bits.TMR2IF = 0);
  7134   002FC2  929E               	bcf	158,1,c	;volatile
  7135   002FC4                     
  7136                           ;MCAL_Layer/Timer2/hal_timr2.c: 97:     TMR1H = (timer2_preload) >> 8;
  7137   002FC4  0E00               	movlw	0
  7138   002FC6  6ECF               	movwf	207,c	;volatile
  7139   002FC8  0012               	return		;funcret
  7140   002FCA                     __end_of_TMR2_ISR:
  7141                           	callstack 0
  7142                           
  7143 ;; *************** function _TMR1_ISR *****************
  7144 ;; Defined at:
  7145 ;;		line 102 in file "MCAL_Layer/Timer1/hal_timr1.c"
  7146 ;; Parameters:    Size  Location     Type
  7147 ;;		None
  7148 ;; Auto vars:     Size  Location     Type
  7149 ;;		None
  7150 ;; Return value:  Size  Location     Type
  7151 ;;                  1    wreg      void 
  7152 ;; Registers used:
  7153 ;;		wreg, status,2
  7154 ;; Tracked objects:
  7155 ;;		On entry : 0/0
  7156 ;;		On exit  : 0/0
  7157 ;;		Unchanged: 0/0
  7158 ;; Data sizes:     COMRAM   BANK0   BANK1   BANK2   BANK3   BANK4   BANK5   BANK6   BANK7   BANK8   BANK9  BANK10  BANK1
      +1  BANK12  BANK13  BANK14  BANK15
  7159 ;;      Params:         0       0       0       0       0       0       0       0       0       0       0       0       
      +0       0       0       0       0
  7160 ;;      Locals:         0       0       0       0       0       0       0       0       0       0       0       0       
      +0       0       0       0       0
  7161 ;;      Temps:          0       0       0       0       0       0       0       0       0       0       0       0       
      +0       0       0       0       0
  7162 ;;      Totals:         0       0       0       0       0       0       0       0       0       0       0       0       
      +0       0       0       0       0
  7163 ;;Total ram usage:        0 bytes
  7164 ;; Hardware stack levels used: 1
  7165 ;; This function calls:
  7166 ;;		Nothing
  7167 ;; This function is called by:
  7168 ;;		_InterruptManager
  7169 ;; This function uses a non-reentrant model
  7170 ;;
  7171                           
  7172                           	psect	text45
  7173   002FAA                     __ptext45:
  7174                           	callstack 0
  7175   002FAA                     _TMR1_ISR:
  7176                           	callstack 23
  7177   002FAA                     
  7178                           ;MCAL_Layer/Timer1/hal_timr1.c: 103:     (PIR1bits.TMR1IF = 0);
  7179   002FAA  909E               	bcf	158,0,c	;volatile
  7180   002FAC                     
  7181                           ;MCAL_Layer/Timer1/hal_timr1.c: 104:     TMR1H = (timer1_preload) >> 8;
  7182   002FAC  503E               	movf	(_timer1_preload+1)^0,w,c	;volatile
  7183   002FAE  6ECF               	movwf	207,c	;volatile
  7184   002FB0                     
  7185                           ;MCAL_Layer/Timer1/hal_timr1.c: 105:     TMR1L = (uint8)(timer1_preload);
  7186   002FB0  C03D  FFCE         	movff	_timer1_preload,4046	;volatile
  7187   002FB4  0012               	return		;funcret
  7188   002FB6                     __end_of_TMR1_ISR:
  7189                           	callstack 0
  7190                           
  7191 ;; *************** function _TMR0_ISR *****************
  7192 ;; Defined at:
  7193 ;;		line 124 in file "MCAL_Layer/Timer0/hal_timr0.c"
  7194 ;; Parameters:    Size  Location     Type
  7195 ;;		None
  7196 ;; Auto vars:     Size  Location     Type
  7197 ;;		None
  7198 ;; Return value:  Size  Location     Type
  7199 ;;                  1    wreg      void 
  7200 ;; Registers used:
  7201 ;;		wreg, status,2
  7202 ;; Tracked objects:
  7203 ;;		On entry : 0/0
  7204 ;;		On exit  : 0/0
  7205 ;;		Unchanged: 0/0
  7206 ;; Data sizes:     COMRAM   BANK0   BANK1   BANK2   BANK3   BANK4   BANK5   BANK6   BANK7   BANK8   BANK9  BANK10  BANK1
      +1  BANK12  BANK13  BANK14  BANK15
  7207 ;;      Params:         0       0       0       0       0       0       0       0       0       0       0       0       
      +0       0       0       0       0
  7208 ;;      Locals:         0       0       0       0       0       0       0       0       0       0       0       0       
      +0       0       0       0       0
  7209 ;;      Temps:          0       0       0       0       0       0       0       0       0       0       0       0       
      +0       0       0       0       0
  7210 ;;      Totals:         0       0       0       0       0       0       0       0       0       0       0       0       
      +0       0       0       0       0
  7211 ;;Total ram usage:        0 bytes
  7212 ;; Hardware stack levels used: 1
  7213 ;; This function calls:
  7214 ;;		Nothing
  7215 ;; This function is called by:
  7216 ;;		_InterruptManager
  7217 ;; This function uses a non-reentrant model
  7218 ;;
  7219                           
  7220                           	psect	text46
  7221   002FB6                     __ptext46:
  7222                           	callstack 0
  7223   002FB6                     _TMR0_ISR:
  7224                           	callstack 23
  7225   002FB6                     
  7226                           ;MCAL_Layer/Timer0/hal_timr0.c: 125:     (INTCONbits.TMR0IF = 0);
  7227   002FB6  94F2               	bcf	242,2,c	;volatile
  7228   002FB8                     
  7229                           ;MCAL_Layer/Timer0/hal_timr0.c: 126:     TMR0H = (timer0_preload) >> 8;
  7230   002FB8  5042               	movf	(_timer0_preload+1)^0,w,c
  7231   002FBA  6ED7               	movwf	215,c	;volatile
  7232   002FBC                     
  7233                           ;MCAL_Layer/Timer0/hal_timr0.c: 127:     TMR0L = (uint8)(timer0_preload);
  7234   002FBC  C041  FFD6         	movff	_timer0_preload,4054	;volatile
  7235   002FC0  0012               	return		;funcret
  7236   002FC2                     __end_of_TMR0_ISR:
  7237                           	callstack 0
  7238                           
  7239 ;; *************** function _RB7_ISR *****************
  7240 ;; Defined at:
  7241 ;;		line 165 in file "MCAL_Layer/Interrupt/mcal_external_interrupt.c"
  7242 ;; Parameters:    Size  Location     Type
  7243 ;;  RB7_Source      1    wreg     unsigned char 
  7244 ;; Auto vars:     Size  Location     Type
  7245 ;;  RB7_Source      1    0[COMRAM] unsigned char 
  7246 ;; Return value:  Size  Location     Type
  7247 ;;                  1    wreg      void 
  7248 ;; Registers used:
  7249 ;;		wreg, status,2, status,0
  7250 ;; Tracked objects:
  7251 ;;		On entry : 0/0
  7252 ;;		On exit  : 0/0
  7253 ;;		Unchanged: 0/0
  7254 ;; Data sizes:     COMRAM   BANK0   BANK1   BANK2   BANK3   BANK4   BANK5   BANK6   BANK7   BANK8   BANK9  BANK10  BANK1
      +1  BANK12  BANK13  BANK14  BANK15
  7255 ;;      Params:         0       0       0       0       0       0       0       0       0       0       0       0       
      +0       0       0       0       0
  7256 ;;      Locals:         1       0       0       0       0       0       0       0       0       0       0       0       
      +0       0       0       0       0
  7257 ;;      Temps:          0       0       0       0       0       0       0       0       0       0       0       0       
      +0       0       0       0       0
  7258 ;;      Totals:         1       0       0       0       0       0       0       0       0       0       0       0       
      +0       0       0       0       0
  7259 ;;Total ram usage:        1 bytes
  7260 ;; Hardware stack levels used: 1
  7261 ;; This function calls:
  7262 ;;		Nothing
  7263 ;; This function is called by:
  7264 ;;		_InterruptManager
  7265 ;; This function uses a non-reentrant model
  7266 ;;
  7267                           
  7268                           	psect	text47
  7269   002F26                     __ptext47:
  7270                           	callstack 0
  7271   002F26                     _RB7_ISR:
  7272                           	callstack 23
  7273                           
  7274                           ;incstack = 0
  7275                           ;RB7_ISR@RB7_Source stored from wreg
  7276   002F26  6E01               	movwf	RB7_ISR@RB7_Source^0,c
  7277   002F28                     
  7278                           ;MCAL_Layer/Interrupt/mcal_external_interrupt.c: 167:     (INTCONbits.RBIF = 0);
  7279   002F28  90F2               	bcf	242,0,c	;volatile
  7280   002F2A                     
  7281                           ;MCAL_Layer/Interrupt/mcal_external_interrupt.c: 170:     if(0 == RB7_Source){
  7282   002F2A  5001               	movf	RB7_ISR@RB7_Source^0,w,c
  7283   002F2C  A4D8               	btfss	status,2,c
  7284   002F2E  EF9B  F017         	goto	i2u93_41
  7285   002F32  EF9D  F017         	goto	i2u93_40
  7286   002F36                     i2u93_41:
  7287   002F36  EF9F  F017         	goto	i2l3145
  7288   002F3A                     i2u93_40:
  7289   002F3A  EF9F  F017         	goto	i2l853
  7290   002F3E                     i2l3145:
  7291   002F3E                     i2l853:
  7292   002F3E  0012               	return		;funcret
  7293   002F40                     __end_of_RB7_ISR:
  7294                           	callstack 0
  7295                           
  7296 ;; *************** function _RB6_ISR *****************
  7297 ;; Defined at:
  7298 ;;		line 146 in file "MCAL_Layer/Interrupt/mcal_external_interrupt.c"
  7299 ;; Parameters:    Size  Location     Type
  7300 ;;  RB6_Source      1    wreg     unsigned char 
  7301 ;; Auto vars:     Size  Location     Type
  7302 ;;  RB6_Source      1    0[COMRAM] unsigned char 
  7303 ;; Return value:  Size  Location     Type
  7304 ;;                  1    wreg      void 
  7305 ;; Registers used:
  7306 ;;		wreg, status,2, status,0
  7307 ;; Tracked objects:
  7308 ;;		On entry : 0/0
  7309 ;;		On exit  : 0/0
  7310 ;;		Unchanged: 0/0
  7311 ;; Data sizes:     COMRAM   BANK0   BANK1   BANK2   BANK3   BANK4   BANK5   BANK6   BANK7   BANK8   BANK9  BANK10  BANK1
      +1  BANK12  BANK13  BANK14  BANK15
  7312 ;;      Params:         0       0       0       0       0       0       0       0       0       0       0       0       
      +0       0       0       0       0
  7313 ;;      Locals:         1       0       0       0       0       0       0       0       0       0       0       0       
      +0       0       0       0       0
  7314 ;;      Temps:          0       0       0       0       0       0       0       0       0       0       0       0       
      +0       0       0       0       0
  7315 ;;      Totals:         1       0       0       0       0       0       0       0       0       0       0       0       
      +0       0       0       0       0
  7316 ;;Total ram usage:        1 bytes
  7317 ;; Hardware stack levels used: 1
  7318 ;; This function calls:
  7319 ;;		Nothing
  7320 ;; This function is called by:
  7321 ;;		_InterruptManager
  7322 ;; This function uses a non-reentrant model
  7323 ;;
  7324                           
  7325                           	psect	text48
  7326   002F40                     __ptext48:
  7327                           	callstack 0
  7328   002F40                     _RB6_ISR:
  7329                           	callstack 23
  7330                           
  7331                           ;incstack = 0
  7332                           ;RB6_ISR@RB6_Source stored from wreg
  7333   002F40  6E01               	movwf	RB6_ISR@RB6_Source^0,c
  7334   002F42                     
  7335                           ;MCAL_Layer/Interrupt/mcal_external_interrupt.c: 148:     (INTCONbits.RBIF = 0);
  7336   002F42  90F2               	bcf	242,0,c	;volatile
  7337   002F44                     
  7338                           ;MCAL_Layer/Interrupt/mcal_external_interrupt.c: 151:     if(0 == RB6_Source){
  7339   002F44  5001               	movf	RB6_ISR@RB6_Source^0,w,c
  7340   002F46  A4D8               	btfss	status,2,c
  7341   002F48  EFA8  F017         	goto	i2u92_41
  7342   002F4C  EFAA  F017         	goto	i2u92_40
  7343   002F50                     i2u92_41:
  7344   002F50  EFAC  F017         	goto	i2l3131
  7345   002F54                     i2u92_40:
  7346   002F54  EFAC  F017         	goto	i2l842
  7347   002F58                     i2l3131:
  7348   002F58                     i2l842:
  7349   002F58  0012               	return		;funcret
  7350   002F5A                     __end_of_RB6_ISR:
  7351                           	callstack 0
  7352                           
  7353 ;; *************** function _RB5_ISR *****************
  7354 ;; Defined at:
  7355 ;;		line 127 in file "MCAL_Layer/Interrupt/mcal_external_interrupt.c"
  7356 ;; Parameters:    Size  Location     Type
  7357 ;;  RB5_Source      1    wreg     unsigned char 
  7358 ;; Auto vars:     Size  Location     Type
  7359 ;;  RB5_Source      1    0[COMRAM] unsigned char 
  7360 ;; Return value:  Size  Location     Type
  7361 ;;                  1    wreg      void 
  7362 ;; Registers used:
  7363 ;;		wreg, status,2, status,0
  7364 ;; Tracked objects:
  7365 ;;		On entry : 0/0
  7366 ;;		On exit  : 0/0
  7367 ;;		Unchanged: 0/0
  7368 ;; Data sizes:     COMRAM   BANK0   BANK1   BANK2   BANK3   BANK4   BANK5   BANK6   BANK7   BANK8   BANK9  BANK10  BANK1
      +1  BANK12  BANK13  BANK14  BANK15
  7369 ;;      Params:         0       0       0       0       0       0       0       0       0       0       0       0       
      +0       0       0       0       0
  7370 ;;      Locals:         1       0       0       0       0       0       0       0       0       0       0       0       
      +0       0       0       0       0
  7371 ;;      Temps:          0       0       0       0       0       0       0       0       0       0       0       0       
      +0       0       0       0       0
  7372 ;;      Totals:         1       0       0       0       0       0       0       0       0       0       0       0       
      +0       0       0       0       0
  7373 ;;Total ram usage:        1 bytes
  7374 ;; Hardware stack levels used: 1
  7375 ;; This function calls:
  7376 ;;		Nothing
  7377 ;; This function is called by:
  7378 ;;		_InterruptManager
  7379 ;; This function uses a non-reentrant model
  7380 ;;
  7381                           
  7382                           	psect	text49
  7383   002F5A                     __ptext49:
  7384                           	callstack 0
  7385   002F5A                     _RB5_ISR:
  7386                           	callstack 23
  7387                           
  7388                           ;incstack = 0
  7389                           ;RB5_ISR@RB5_Source stored from wreg
  7390   002F5A  6E01               	movwf	RB5_ISR@RB5_Source^0,c
  7391   002F5C                     
  7392                           ;MCAL_Layer/Interrupt/mcal_external_interrupt.c: 129:     (INTCONbits.RBIF = 0);
  7393   002F5C  90F2               	bcf	242,0,c	;volatile
  7394   002F5E                     
  7395                           ;MCAL_Layer/Interrupt/mcal_external_interrupt.c: 132:     if(0 == RB5_Source){
  7396   002F5E  5001               	movf	RB5_ISR@RB5_Source^0,w,c
  7397   002F60  A4D8               	btfss	status,2,c
  7398   002F62  EFB5  F017         	goto	i2u91_41
  7399   002F66  EFB7  F017         	goto	i2u91_40
  7400   002F6A                     i2u91_41:
  7401   002F6A  EFB9  F017         	goto	i2l3117
  7402   002F6E                     i2u91_40:
  7403   002F6E  EFB9  F017         	goto	i2l831
  7404   002F72                     i2l3117:
  7405   002F72                     i2l831:
  7406   002F72  0012               	return		;funcret
  7407   002F74                     __end_of_RB5_ISR:
  7408                           	callstack 0
  7409                           
  7410 ;; *************** function _RB4_ISR *****************
  7411 ;; Defined at:
  7412 ;;		line 108 in file "MCAL_Layer/Interrupt/mcal_external_interrupt.c"
  7413 ;; Parameters:    Size  Location     Type
  7414 ;;  RB4_Source      1    wreg     unsigned char 
  7415 ;; Auto vars:     Size  Location     Type
  7416 ;;  RB4_Source      1    0[COMRAM] unsigned char 
  7417 ;; Return value:  Size  Location     Type
  7418 ;;                  1    wreg      void 
  7419 ;; Registers used:
  7420 ;;		wreg, status,2, status,0
  7421 ;; Tracked objects:
  7422 ;;		On entry : 0/0
  7423 ;;		On exit  : 0/0
  7424 ;;		Unchanged: 0/0
  7425 ;; Data sizes:     COMRAM   BANK0   BANK1   BANK2   BANK3   BANK4   BANK5   BANK6   BANK7   BANK8   BANK9  BANK10  BANK1
      +1  BANK12  BANK13  BANK14  BANK15
  7426 ;;      Params:         0       0       0       0       0       0       0       0       0       0       0       0       
      +0       0       0       0       0
  7427 ;;      Locals:         1       0       0       0       0       0       0       0       0       0       0       0       
      +0       0       0       0       0
  7428 ;;      Temps:          0       0       0       0       0       0       0       0       0       0       0       0       
      +0       0       0       0       0
  7429 ;;      Totals:         1       0       0       0       0       0       0       0       0       0       0       0       
      +0       0       0       0       0
  7430 ;;Total ram usage:        1 bytes
  7431 ;; Hardware stack levels used: 1
  7432 ;; This function calls:
  7433 ;;		Nothing
  7434 ;; This function is called by:
  7435 ;;		_InterruptManager
  7436 ;; This function uses a non-reentrant model
  7437 ;;
  7438                           
  7439                           	psect	text50
  7440   002F74                     __ptext50:
  7441                           	callstack 0
  7442   002F74                     _RB4_ISR:
  7443                           	callstack 23
  7444                           
  7445                           ;incstack = 0
  7446                           ;RB4_ISR@RB4_Source stored from wreg
  7447   002F74  6E01               	movwf	RB4_ISR@RB4_Source^0,c
  7448   002F76                     
  7449                           ;MCAL_Layer/Interrupt/mcal_external_interrupt.c: 110:     (INTCONbits.RBIF = 0);
  7450   002F76  90F2               	bcf	242,0,c	;volatile
  7451   002F78                     
  7452                           ;MCAL_Layer/Interrupt/mcal_external_interrupt.c: 113:     if(0 == RB4_Source){
  7453   002F78  5001               	movf	RB4_ISR@RB4_Source^0,w,c
  7454   002F7A  A4D8               	btfss	status,2,c
  7455   002F7C  EFC2  F017         	goto	i2u90_41
  7456   002F80  EFC4  F017         	goto	i2u90_40
  7457   002F84                     i2u90_41:
  7458   002F84  EFC6  F017         	goto	i2l3103
  7459   002F88                     i2u90_40:
  7460   002F88  EFC6  F017         	goto	i2l820
  7461   002F8C                     i2l3103:
  7462   002F8C                     i2l820:
  7463   002F8C  0012               	return		;funcret
  7464   002F8E                     __end_of_RB4_ISR:
  7465                           	callstack 0
  7466                           
  7467 ;; *************** function _MSSP_SPI_ISR *****************
  7468 ;; Defined at:
  7469 ;;		line 107 in file "MCAL_Layer/SPI/hal_spi.c"
  7470 ;; Parameters:    Size  Location     Type
  7471 ;;		None
  7472 ;; Auto vars:     Size  Location     Type
  7473 ;;		None
  7474 ;; Return value:  Size  Location     Type
  7475 ;;                  1    wreg      void 
  7476 ;; Registers used:
  7477 ;;		None
  7478 ;; Tracked objects:
  7479 ;;		On entry : 0/0
  7480 ;;		On exit  : 0/0
  7481 ;;		Unchanged: 0/0
  7482 ;; Data sizes:     COMRAM   BANK0   BANK1   BANK2   BANK3   BANK4   BANK5   BANK6   BANK7   BANK8   BANK9  BANK10  BANK1
      +1  BANK12  BANK13  BANK14  BANK15
  7483 ;;      Params:         0       0       0       0       0       0       0       0       0       0       0       0       
      +0       0       0       0       0
  7484 ;;      Locals:         0       0       0       0       0       0       0       0       0       0       0       0       
      +0       0       0       0       0
  7485 ;;      Temps:          0       0       0       0       0       0       0       0       0       0       0       0       
      +0       0       0       0       0
  7486 ;;      Totals:         0       0       0       0       0       0       0       0       0       0       0       0       
      +0       0       0       0       0
  7487 ;;Total ram usage:        0 bytes
  7488 ;; Hardware stack levels used: 1
  7489 ;; This function calls:
  7490 ;;		Nothing
  7491 ;; This function is called by:
  7492 ;;		_InterruptManager
  7493 ;; This function uses a non-reentrant model
  7494 ;;
  7495                           
  7496                           	psect	text51
  7497   002FD0                     __ptext51:
  7498                           	callstack 0
  7499   002FD0                     _MSSP_SPI_ISR:
  7500                           	callstack 23
  7501   002FD0                     
  7502                           ;MCAL_Layer/SPI/hal_spi.c: 109:     (PIR1bits.SSPIF = 0);
  7503   002FD0  969E               	bcf	158,3,c	;volatile
  7504   002FD2  0012               	return		;funcret
  7505   002FD4                     __end_of_MSSP_SPI_ISR:
  7506                           	callstack 0
  7507                           
  7508 ;; *************** function _INT2_ISR *****************
  7509 ;; Defined at:
  7510 ;;		line 96 in file "MCAL_Layer/Interrupt/mcal_external_interrupt.c"
  7511 ;; Parameters:    Size  Location     Type
  7512 ;;		None
  7513 ;; Auto vars:     Size  Location     Type
  7514 ;;		None
  7515 ;; Return value:  Size  Location     Type
  7516 ;;                  1    wreg      void 
  7517 ;; Registers used:
  7518 ;;		None
  7519 ;; Tracked objects:
  7520 ;;		On entry : 0/0
  7521 ;;		On exit  : 0/0
  7522 ;;		Unchanged: 0/0
  7523 ;; Data sizes:     COMRAM   BANK0   BANK1   BANK2   BANK3   BANK4   BANK5   BANK6   BANK7   BANK8   BANK9  BANK10  BANK1
      +1  BANK12  BANK13  BANK14  BANK15
  7524 ;;      Params:         0       0       0       0       0       0       0       0       0       0       0       0       
      +0       0       0       0       0
  7525 ;;      Locals:         0       0       0       0       0       0       0       0       0       0       0       0       
      +0       0       0       0       0
  7526 ;;      Temps:          0       0       0       0       0       0       0       0       0       0       0       0       
      +0       0       0       0       0
  7527 ;;      Totals:         0       0       0       0       0       0       0       0       0       0       0       0       
      +0       0       0       0       0
  7528 ;;Total ram usage:        0 bytes
  7529 ;; Hardware stack levels used: 1
  7530 ;; This function calls:
  7531 ;;		Nothing
  7532 ;; This function is called by:
  7533 ;;		_InterruptManager
  7534 ;; This function uses a non-reentrant model
  7535 ;;
  7536                           
  7537                           	psect	text52
  7538   002FD4                     __ptext52:
  7539                           	callstack 0
  7540   002FD4                     _INT2_ISR:
  7541                           	callstack 23
  7542   002FD4                     
  7543                           ;MCAL_Layer/Interrupt/mcal_external_interrupt.c: 98:     (INTCON3bits.INT2IF = 0);
  7544   002FD4  92F0               	bcf	240,1,c	;volatile
  7545   002FD6  0012               	return		;funcret
  7546   002FD8                     __end_of_INT2_ISR:
  7547                           	callstack 0
  7548                           
  7549 ;; *************** function _INT1_ISR *****************
  7550 ;; Defined at:
  7551 ;;		line 87 in file "MCAL_Layer/Interrupt/mcal_external_interrupt.c"
  7552 ;; Parameters:    Size  Location     Type
  7553 ;;		None
  7554 ;; Auto vars:     Size  Location     Type
  7555 ;;		None
  7556 ;; Return value:  Size  Location     Type
  7557 ;;                  1    wreg      void 
  7558 ;; Registers used:
  7559 ;;		None
  7560 ;; Tracked objects:
  7561 ;;		On entry : 0/0
  7562 ;;		On exit  : 0/0
  7563 ;;		Unchanged: 0/0
  7564 ;; Data sizes:     COMRAM   BANK0   BANK1   BANK2   BANK3   BANK4   BANK5   BANK6   BANK7   BANK8   BANK9  BANK10  BANK1
      +1  BANK12  BANK13  BANK14  BANK15
  7565 ;;      Params:         0       0       0       0       0       0       0       0       0       0       0       0       
      +0       0       0       0       0
  7566 ;;      Locals:         0       0       0       0       0       0       0       0       0       0       0       0       
      +0       0       0       0       0
  7567 ;;      Temps:          0       0       0       0       0       0       0       0       0       0       0       0       
      +0       0       0       0       0
  7568 ;;      Totals:         0       0       0       0       0       0       0       0       0       0       0       0       
      +0       0       0       0       0
  7569 ;;Total ram usage:        0 bytes
  7570 ;; Hardware stack levels used: 1
  7571 ;; This function calls:
  7572 ;;		Nothing
  7573 ;; This function is called by:
  7574 ;;		_InterruptManager
  7575 ;; This function uses a non-reentrant model
  7576 ;;
  7577                           
  7578                           	psect	text53
  7579   002FD8                     __ptext53:
  7580                           	callstack 0
  7581   002FD8                     _INT1_ISR:
  7582                           	callstack 23
  7583   002FD8                     
  7584                           ;MCAL_Layer/Interrupt/mcal_external_interrupt.c: 89:     (INTCON3bits.INT1IF = 0);
  7585   002FD8  90F0               	bcf	240,0,c	;volatile
  7586   002FDA  0012               	return		;funcret
  7587   002FDC                     __end_of_INT1_ISR:
  7588                           	callstack 0
  7589                           
  7590 ;; *************** function _INT0_ISR *****************
  7591 ;; Defined at:
  7592 ;;		line 75 in file "MCAL_Layer/Interrupt/mcal_external_interrupt.c"
  7593 ;; Parameters:    Size  Location     Type
  7594 ;;		None
  7595 ;; Auto vars:     Size  Location     Type
  7596 ;;		None
  7597 ;; Return value:  Size  Location     Type
  7598 ;;                  1    wreg      void 
  7599 ;; Registers used:
  7600 ;;		None
  7601 ;; Tracked objects:
  7602 ;;		On entry : 0/0
  7603 ;;		On exit  : 0/0
  7604 ;;		Unchanged: 0/0
  7605 ;; Data sizes:     COMRAM   BANK0   BANK1   BANK2   BANK3   BANK4   BANK5   BANK6   BANK7   BANK8   BANK9  BANK10  BANK1
      +1  BANK12  BANK13  BANK14  BANK15
  7606 ;;      Params:         0       0       0       0       0       0       0       0       0       0       0       0       
      +0       0       0       0       0
  7607 ;;      Locals:         0       0       0       0       0       0       0       0       0       0       0       0       
      +0       0       0       0       0
  7608 ;;      Temps:          0       0       0       0       0       0       0       0       0       0       0       0       
      +0       0       0       0       0
  7609 ;;      Totals:         0       0       0       0       0       0       0       0       0       0       0       0       
      +0       0       0       0       0
  7610 ;;Total ram usage:        0 bytes
  7611 ;; Hardware stack levels used: 1
  7612 ;; This function calls:
  7613 ;;		Nothing
  7614 ;; This function is called by:
  7615 ;;		_InterruptManager
  7616 ;; This function uses a non-reentrant model
  7617 ;;
  7618                           
  7619                           	psect	text54
  7620   002FDC                     __ptext54:
  7621                           	callstack 0
  7622   002FDC                     _INT0_ISR:
  7623                           	callstack 23
  7624   002FDC                     
  7625                           ;MCAL_Layer/Interrupt/mcal_external_interrupt.c: 77:     (INTCONbits.INT0IF = 0);
  7626   002FDC  92F2               	bcf	242,1,c	;volatile
  7627   002FDE  0012               	return		;funcret
  7628   002FE0                     __end_of_INT0_ISR:
  7629                           	callstack 0
  7630                           
  7631 ;; *************** function _EUSART_TX_ISR *****************
  7632 ;; Defined at:
  7633 ;;		line 245 in file "MCAL_Layer/usart/hal_usart.c"
  7634 ;; Parameters:    Size  Location     Type
  7635 ;;		None
  7636 ;; Auto vars:     Size  Location     Type
  7637 ;;		None
  7638 ;; Return value:  Size  Location     Type
  7639 ;;                  1    wreg      void 
  7640 ;; Registers used:
  7641 ;;		None
  7642 ;; Tracked objects:
  7643 ;;		On entry : 0/0
  7644 ;;		On exit  : 0/0
  7645 ;;		Unchanged: 0/0
  7646 ;; Data sizes:     COMRAM   BANK0   BANK1   BANK2   BANK3   BANK4   BANK5   BANK6   BANK7   BANK8   BANK9  BANK10  BANK1
      +1  BANK12  BANK13  BANK14  BANK15
  7647 ;;      Params:         0       0       0       0       0       0       0       0       0       0       0       0       
      +0       0       0       0       0
  7648 ;;      Locals:         0       0       0       0       0       0       0       0       0       0       0       0       
      +0       0       0       0       0
  7649 ;;      Temps:          0       0       0       0       0       0       0       0       0       0       0       0       
      +0       0       0       0       0
  7650 ;;      Totals:         0       0       0       0       0       0       0       0       0       0       0       0       
      +0       0       0       0       0
  7651 ;;Total ram usage:        0 bytes
  7652 ;; Hardware stack levels used: 1
  7653 ;; This function calls:
  7654 ;;		Nothing
  7655 ;; This function is called by:
  7656 ;;		_InterruptManager
  7657 ;; This function uses a non-reentrant model
  7658 ;;
  7659                           
  7660                           	psect	text55
  7661   002FE0                     __ptext55:
  7662                           	callstack 0
  7663   002FE0                     _EUSART_TX_ISR:
  7664                           	callstack 23
  7665   002FE0                     
  7666                           ;MCAL_Layer/usart/hal_usart.c: 246:     (PIE1bits.TXIE = 0);
  7667   002FE0  989D               	bcf	157,4,c	;volatile
  7668   002FE2  0012               	return		;funcret
  7669   002FE4                     __end_of_EUSART_TX_ISR:
  7670                           	callstack 0
  7671                           
  7672 ;; *************** function _EUSART_RX_ISR *****************
  7673 ;; Defined at:
  7674 ;;		line 252 in file "MCAL_Layer/usart/hal_usart.c"
  7675 ;; Parameters:    Size  Location     Type
  7676 ;;		None
  7677 ;; Auto vars:     Size  Location     Type
  7678 ;;		None
  7679 ;; Return value:  Size  Location     Type
  7680 ;;                  1    wreg      void 
  7681 ;; Registers used:
  7682 ;;		wreg, status,2, status,0
  7683 ;; Tracked objects:
  7684 ;;		On entry : 0/0
  7685 ;;		On exit  : 0/0
  7686 ;;		Unchanged: 0/0
  7687 ;; Data sizes:     COMRAM   BANK0   BANK1   BANK2   BANK3   BANK4   BANK5   BANK6   BANK7   BANK8   BANK9  BANK10  BANK1
      +1  BANK12  BANK13  BANK14  BANK15
  7688 ;;      Params:         0       0       0       0       0       0       0       0       0       0       0       0       
      +0       0       0       0       0
  7689 ;;      Locals:         0       0       0       0       0       0       0       0       0       0       0       0       
      +0       0       0       0       0
  7690 ;;      Temps:          0       0       0       0       0       0       0       0       0       0       0       0       
      +0       0       0       0       0
  7691 ;;      Totals:         0       0       0       0       0       0       0       0       0       0       0       0       
      +0       0       0       0       0
  7692 ;;Total ram usage:        0 bytes
  7693 ;; Hardware stack levels used: 1
  7694 ;; This function calls:
  7695 ;;		Nothing
  7696 ;; This function is called by:
  7697 ;;		_InterruptManager
  7698 ;; This function uses a non-reentrant model
  7699 ;;
  7700                           
  7701                           	psect	text56
  7702   002FF2                     __ptext56:
  7703                           	callstack 0
  7704   002FF2                     _EUSART_RX_ISR:
  7705                           	callstack 23
  7706   002FF2  0012               	return		;funcret
  7707   002FF4                     __end_of_EUSART_RX_ISR:
  7708                           	callstack 0
  7709                           
  7710 ;; *************** function _CCP2_ISR *****************
  7711 ;; Defined at:
  7712 ;;		line 259 in file "MCAL_Layer/CCP/hal_ccp.c"
  7713 ;; Parameters:    Size  Location     Type
  7714 ;;		None
  7715 ;; Auto vars:     Size  Location     Type
  7716 ;;		None
  7717 ;; Return value:  Size  Location     Type
  7718 ;;                  1    wreg      void 
  7719 ;; Registers used:
  7720 ;;		None
  7721 ;; Tracked objects:
  7722 ;;		On entry : 0/0
  7723 ;;		On exit  : 0/0
  7724 ;;		Unchanged: 0/0
  7725 ;; Data sizes:     COMRAM   BANK0   BANK1   BANK2   BANK3   BANK4   BANK5   BANK6   BANK7   BANK8   BANK9  BANK10  BANK1
      +1  BANK12  BANK13  BANK14  BANK15
  7726 ;;      Params:         0       0       0       0       0       0       0       0       0       0       0       0       
      +0       0       0       0       0
  7727 ;;      Locals:         0       0       0       0       0       0       0       0       0       0       0       0       
      +0       0       0       0       0
  7728 ;;      Temps:          0       0       0       0       0       0       0       0       0       0       0       0       
      +0       0       0       0       0
  7729 ;;      Totals:         0       0       0       0       0       0       0       0       0       0       0       0       
      +0       0       0       0       0
  7730 ;;Total ram usage:        0 bytes
  7731 ;; Hardware stack levels used: 1
  7732 ;; This function calls:
  7733 ;;		Nothing
  7734 ;; This function is called by:
  7735 ;;		_InterruptManager
  7736 ;; This function uses a non-reentrant model
  7737 ;;
  7738                           
  7739                           	psect	text57
  7740   002FE4                     __ptext57:
  7741                           	callstack 0
  7742   002FE4                     _CCP2_ISR:
  7743                           	callstack 23
  7744   002FE4                     
  7745                           ;MCAL_Layer/CCP/hal_ccp.c: 260:     (PIR2bits.CCP2IF = 0);
  7746   002FE4  90A1               	bcf	161,0,c	;volatile
  7747   002FE6  0012               	return		;funcret
  7748   002FE8                     __end_of_CCP2_ISR:
  7749                           	callstack 0
  7750                           
  7751 ;; *************** function _CCP1_ISR *****************
  7752 ;; Defined at:
  7753 ;;		line 251 in file "MCAL_Layer/CCP/hal_ccp.c"
  7754 ;; Parameters:    Size  Location     Type
  7755 ;;		None
  7756 ;; Auto vars:     Size  Location     Type
  7757 ;;		None
  7758 ;; Return value:  Size  Location     Type
  7759 ;;                  1    wreg      void 
  7760 ;; Registers used:
  7761 ;;		None
  7762 ;; Tracked objects:
  7763 ;;		On entry : 0/0
  7764 ;;		On exit  : 0/0
  7765 ;;		Unchanged: 0/0
  7766 ;; Data sizes:     COMRAM   BANK0   BANK1   BANK2   BANK3   BANK4   BANK5   BANK6   BANK7   BANK8   BANK9  BANK10  BANK1
      +1  BANK12  BANK13  BANK14  BANK15
  7767 ;;      Params:         0       0       0       0       0       0       0       0       0       0       0       0       
      +0       0       0       0       0
  7768 ;;      Locals:         0       0       0       0       0       0       0       0       0       0       0       0       
      +0       0       0       0       0
  7769 ;;      Temps:          0       0       0       0       0       0       0       0       0       0       0       0       
      +0       0       0       0       0
  7770 ;;      Totals:         0       0       0       0       0       0       0       0       0       0       0       0       
      +0       0       0       0       0
  7771 ;;Total ram usage:        0 bytes
  7772 ;; Hardware stack levels used: 1
  7773 ;; This function calls:
  7774 ;;		Nothing
  7775 ;; This function is called by:
  7776 ;;		_InterruptManager
  7777 ;; This function uses a non-reentrant model
  7778 ;;
  7779                           
  7780                           	psect	text58
  7781   002FE8                     __ptext58:
  7782                           	callstack 0
  7783   002FE8                     _CCP1_ISR:
  7784                           	callstack 23
  7785   002FE8                     
  7786                           ;MCAL_Layer/CCP/hal_ccp.c: 252:     (PIR1bits.CCP1IF = 0);
  7787   002FE8  949E               	bcf	158,2,c	;volatile
  7788   002FEA  0012               	return		;funcret
  7789   002FEC                     __end_of_CCP1_ISR:
  7790                           	callstack 0
  7791                           
  7792 ;; *************** function _ADC_ISR *****************
  7793 ;; Defined at:
  7794 ;;		line 296 in file "MCAL_Layer/ADC/hal_adc.c"
  7795 ;; Parameters:    Size  Location     Type
  7796 ;;		None
  7797 ;; Auto vars:     Size  Location     Type
  7798 ;;		None
  7799 ;; Return value:  Size  Location     Type
  7800 ;;                  1    wreg      void 
  7801 ;; Registers used:
  7802 ;;		None
  7803 ;; Tracked objects:
  7804 ;;		On entry : 0/0
  7805 ;;		On exit  : 0/0
  7806 ;;		Unchanged: 0/0
  7807 ;; Data sizes:     COMRAM   BANK0   BANK1   BANK2   BANK3   BANK4   BANK5   BANK6   BANK7   BANK8   BANK9  BANK10  BANK1
      +1  BANK12  BANK13  BANK14  BANK15
  7808 ;;      Params:         0       0       0       0       0       0       0       0       0       0       0       0       
      +0       0       0       0       0
  7809 ;;      Locals:         0       0       0       0       0       0       0       0       0       0       0       0       
      +0       0       0       0       0
  7810 ;;      Temps:          0       0       0       0       0       0       0       0       0       0       0       0       
      +0       0       0       0       0
  7811 ;;      Totals:         0       0       0       0       0       0       0       0       0       0       0       0       
      +0       0       0       0       0
  7812 ;;Total ram usage:        0 bytes
  7813 ;; Hardware stack levels used: 1
  7814 ;; This function calls:
  7815 ;;		Nothing
  7816 ;; This function is called by:
  7817 ;;		_InterruptManager
  7818 ;; This function uses a non-reentrant model
  7819 ;;
  7820                           
  7821                           	psect	text59
  7822   002FEC                     __ptext59:
  7823                           	callstack 0
  7824   002FEC                     _ADC_ISR:
  7825                           	callstack 23
  7826   002FEC                     
  7827                           ;MCAL_Layer/ADC/hal_adc.c: 297:     (PIR1bits.ADIF = 0);
  7828   002FEC  9C9E               	bcf	158,6,c	;volatile
  7829   002FEE  0012               	return		;funcret
  7830   002FF0                     __end_of_ADC_ISR:
  7831                           	callstack 0
  7832                           
  7833                           	psect	rparam
  7834   000000                     
  7835                           	psect	temp
  7836   00007E                     btemp:
  7837                           	callstack 0
  7838   00007E                     	ds	1
  7839   000000                     int$flags	set	btemp
  7840   000000                     wtemp8	set	btemp+1
  7841   000000                     ttemp5	set	btemp+1
  7842   000000                     ttemp6	set	btemp+4
  7843   000000                     ttemp7	set	btemp+8
  7844                           
  7845                           	psect	config
  7846                           
  7847                           ; Padding undefined space
  7848   300000                     	org	3145728
  7849   300000  FF                 	db	255
  7850                           
  7851                           ;Config register CONFIG1H @ 0x300001
  7852                           ;	Oscillator Selection bits
  7853                           ;	OSC = HS, HS oscillator
  7854                           ;	Fail-Safe Clock Monitor Enable bit
  7855                           ;	FCMEN = OFF, Fail-Safe Clock Monitor disabled
  7856                           ;	Internal/External Oscillator Switchover bit
  7857                           ;	IESO = OFF, Oscillator Switchover mode disabled
  7858   300001                     	org	3145729
  7859   300001  02                 	db	2
  7860                           
  7861                           ;Config register CONFIG2L @ 0x300002
  7862                           ;	Power-up Timer Enable bit
  7863                           ;	PWRT = OFF, PWRT disabled
  7864                           ;	Brown-out Reset Enable bits
  7865                           ;	BOREN = OFF, Brown-out Reset disabled in hardware and software
  7866                           ;	Brown Out Reset Voltage bits
  7867                           ;	BORV = 1, 
  7868   300002                     	org	3145730
  7869   300002  09                 	db	9
  7870                           
  7871                           ;Config register CONFIG2H @ 0x300003
  7872                           ;	Watchdog Timer Enable bit
  7873                           ;	WDT = OFF, WDT disabled (control is placed on the SWDTEN bit)
  7874                           ;	Watchdog Timer Postscale Select bits
  7875                           ;	WDTPS = 32768, 1:32768
  7876   300003                     	org	3145731
  7877   300003  1E                 	db	30
  7878                           
  7879                           ; Padding undefined space
  7880   300004                     	org	3145732
  7881   300004  FF                 	db	255
  7882                           
  7883                           ;Config register CONFIG3H @ 0x300005
  7884                           ;	CCP2 MUX bit
  7885                           ;	CCP2MX = PORTC, CCP2 input/output is multiplexed with RC1
  7886                           ;	PORTB A/D Enable bit
  7887                           ;	PBADEN = ON, PORTB<4:0> pins are configured as analog input channels on Reset
  7888                           ;	Low-Power Timer1 Oscillator Enable bit
  7889                           ;	LPT1OSC = OFF, Timer1 configured for higher power operation
  7890                           ;	MCLR Pin Enable bit
  7891                           ;	MCLRE = ON, MCLR pin enabled; RE3 input pin disabled
  7892   300005                     	org	3145733
  7893   300005  83                 	db	131
  7894                           
  7895                           ;Config register CONFIG4L @ 0x300006
  7896                           ;	Stack Full/Underflow Reset Enable bit
  7897                           ;	STVREN = ON, Stack full/underflow will cause Reset
  7898                           ;	Single-Supply ICSP Enable bit
  7899                           ;	LVP = OFF, Single-Supply ICSP disabled
  7900                           ;	Extended Instruction Set Enable bit
  7901                           ;	XINST = OFF, Instruction set extension and Indexed Addressing mode disabled (Legacy mo
      +                          de)
  7902                           ;	Background Debugger Enable bit
  7903                           ;	DEBUG = 0x1, unprogrammed default
  7904   300006                     	org	3145734
  7905   300006  81                 	db	129
  7906                           
  7907                           ; Padding undefined space
  7908   300007                     	org	3145735
  7909   300007  FF                 	db	255
  7910                           
  7911                           ;Config register CONFIG5L @ 0x300008
  7912                           ;	Code Protection bit
  7913                           ;	CP0 = OFF, Block 0 (000800-003FFFh) not code-protected
  7914                           ;	Code Protection bit
  7915                           ;	CP1 = OFF, Block 1 (004000-007FFFh) not code-protected
  7916                           ;	Code Protection bit
  7917                           ;	CP2 = OFF, Block 2 (008000-00BFFFh) not code-protected
  7918                           ;	Code Protection bit
  7919                           ;	CP3 = OFF, Block 3 (00C000-00FFFFh) not code-protected
  7920   300008                     	org	3145736
  7921   300008  0F                 	db	15
  7922                           
  7923                           ;Config register CONFIG5H @ 0x300009
  7924                           ;	Boot Block Code Protection bit
  7925                           ;	CPB = OFF, Boot block (000000-0007FFh) not code-protected
  7926                           ;	Data EEPROM Code Protection bit
  7927                           ;	CPD = OFF, Data EEPROM not code-protected
  7928   300009                     	org	3145737
  7929   300009  C0                 	db	192
  7930                           
  7931                           ;Config register CONFIG6L @ 0x30000A
  7932                           ;	Write Protection bit
  7933                           ;	WRT0 = OFF, Block 0 (000800-003FFFh) not write-protected
  7934                           ;	Write Protection bit
  7935                           ;	WRT1 = OFF, Block 1 (004000-007FFFh) not write-protected
  7936                           ;	Write Protection bit
  7937                           ;	WRT2 = OFF, Block 2 (008000-00BFFFh) not write-protected
  7938                           ;	Write Protection bit
  7939                           ;	WRT3 = OFF, Block 3 (00C000-00FFFFh) not write-protected
  7940   30000A                     	org	3145738
  7941   30000A  0F                 	db	15
  7942                           
  7943                           ;Config register CONFIG6H @ 0x30000B
  7944                           ;	Configuration Register Write Protection bit
  7945                           ;	WRTC = OFF, Configuration registers (300000-3000FFh) not write-protected
  7946                           ;	Boot Block Write Protection bit
  7947                           ;	WRTB = OFF, Boot Block (000000-0007FFh) not write-protected
  7948                           ;	Data EEPROM Write Protection bit
  7949                           ;	WRTD = OFF, Data EEPROM not write-protected
  7950   30000B                     	org	3145739
  7951   30000B  E0                 	db	224
  7952                           
  7953                           ;Config register CONFIG7L @ 0x30000C
  7954                           ;	Table Read Protection bit
  7955                           ;	EBTR0 = OFF, Block 0 (000800-003FFFh) not protected from table reads executed in other
      +                           blocks
  7956                           ;	Table Read Protection bit
  7957                           ;	EBTR1 = OFF, Block 1 (004000-007FFFh) not protected from table reads executed in other
      +                           blocks
  7958                           ;	Table Read Protection bit
  7959                           ;	EBTR2 = OFF, Block 2 (008000-00BFFFh) not protected from table reads executed in other
      +                           blocks
  7960                           ;	Table Read Protection bit
  7961                           ;	EBTR3 = OFF, Block 3 (00C000-00FFFFh) not protected from table reads executed in other
      +                           blocks
  7962   30000C                     	org	3145740
  7963   30000C  0F                 	db	15
  7964                           
  7965                           ;Config register CONFIG7H @ 0x30000D
  7966                           ;	Boot Block Table Read Protection bit
  7967                           ;	EBTRB = OFF, Boot Block (000000-0007FFh) not protected from table reads executed in ot
      +                          her blocks
  7968   30000D                     	org	3145741
  7969   30000D  40                 	db	64
  7970                           tosu	equ	0xFFF
  7971                           tosh	equ	0xFFE
  7972                           tosl	equ	0xFFD
  7973                           stkptr	equ	0xFFC
  7974                           pclatu	equ	0xFFB
  7975                           pclath	equ	0xFFA
  7976                           pcl	equ	0xFF9
  7977                           tblptru	equ	0xFF8
  7978                           tblptrh	equ	0xFF7
  7979                           tblptrl	equ	0xFF6
  7980                           tablat	equ	0xFF5
  7981                           prodh	equ	0xFF4
  7982                           prodl	equ	0xFF3
  7983                           indf0	equ	0xFEF
  7984                           postinc0	equ	0xFEE
  7985                           postdec0	equ	0xFED
  7986                           preinc0	equ	0xFEC
  7987                           plusw0	equ	0xFEB
  7988                           fsr0h	equ	0xFEA
  7989                           fsr0l	equ	0xFE9
  7990                           wreg	equ	0xFE8
  7991                           indf1	equ	0xFE7
  7992                           postinc1	equ	0xFE6
  7993                           postdec1	equ	0xFE5
  7994                           preinc1	equ	0xFE4
  7995                           plusw1	equ	0xFE3
  7996                           fsr1h	equ	0xFE2
  7997                           fsr1l	equ	0xFE1
  7998                           bsr	equ	0xFE0
  7999                           indf2	equ	0xFDF
  8000                           postinc2	equ	0xFDE
  8001                           postdec2	equ	0xFDD
  8002                           preinc2	equ	0xFDC
  8003                           plusw2	equ	0xFDB
  8004                           fsr2h	equ	0xFDA
  8005                           fsr2l	equ	0xFD9
  8006                           status	equ	0xFD8

Data Sizes:
    Strings     107
    Constant    16
    Data        59
    BSS         114
    Persistent  0
    Stack       0

Auto Spaces:
    Space          Size  Autos    Used
    COMRAM          126     56     125
    BANK0           128      1     105
    BANK1           256      0       0
    BANK2           256      0       0
    BANK3           256      0       0
    BANK4           256      0       0
    BANK5           256      0       0
    BANK6           256      0       0
    BANK7           256      0       0
    BANK8           256      0       0
    BANK9           256      0       0
    BANK10          256      0       0
    BANK11          256      0       0
    BANK12          256      0       0
    BANK13          256      0       0
    BANK14          256      0       0
    BANK15          128      0       0

Pointer List with Targets:

    adc_1$ADC_InterruptHandler	PTR FTN()void  size(2) Largest target is 1
		 -> NULL(), 

    ADC_GetConversion_Blocking@_adc	PTR const struct . size(1) Largest target is 7
		 -> adc_1(BANK0[7]), 

    ADC_GetConversion_Blocking@conversion_result	PTR unsigned short  size(1) Largest target is 2
		 -> lm35_res_1(COMRAM[2]), 

    ADC_GetConversionResult@_adc	PTR const struct . size(1) Largest target is 7
		 -> adc_1(BANK0[7]), 

    ADC_GetConversionResult@_adc$ADC_InterruptHandler	PTR FTN()void  size(2) Largest target is 1
		 -> NULL(), 

    ADC_GetConversionResult@conversion_result	PTR unsigned short  size(1) Largest target is 2
		 -> lm35_res_1(COMRAM[2]), 

    ADC_Init@_adc	PTR const struct . size(1) Largest target is 7
		 -> adc_1(BANK0[7]), 

    ADC_Init@_adc$ADC_InterruptHandler	PTR FTN()void  size(2) Largest target is 1
		 -> NULL(), 

    ADC_InterruptHandler	PTR FTN()void  size(2) Largest target is 1
		 -> NULL(), 

    ADC_SelectChannel@_adc	PTR const struct . size(1) Largest target is 7
		 -> adc_1(BANK0[7]), 

    ADC_StartConversion@_adc	PTR const struct . size(1) Largest target is 7
		 -> adc_1(BANK0[7]), 

    CCP1_InterruptHandler	PTR FTN()void  size(2) Largest target is 1
		 -> NULL(), 

    CCP2_InterruptHandler	PTR FTN()void  size(2) Largest target is 1
		 -> NULL(), 

    CCP_Capture_Mode_Config@_ccp_obj$CCP1_InterruptHandler	PTR FTN()void  size(2) Largest target is 0

    CCP_Capture_Mode_Config@_ccp_obj$CCP2_InterruptHandler	PTR FTN()void  size(2) Largest target is 0

    CCP_Compare_Mode_Config@_ccp_obj$CCP1_InterruptHandler	PTR FTN()void  size(2) Largest target is 0

    CCP_Compare_Mode_Config@_ccp_obj$CCP2_InterruptHandler	PTR FTN()void  size(2) Largest target is 0

    CCP_DeInit@_ccp_obj$CCP1_InterruptHandler	PTR FTN()void  size(2) Largest target is 0

    CCP_DeInit@_ccp_obj$CCP2_InterruptHandler	PTR FTN()void  size(2) Largest target is 0

    CCP_Init@_ccp_obj$CCP1_InterruptHandler	PTR FTN()void  size(2) Largest target is 0

    CCP_Init@_ccp_obj$CCP2_InterruptHandler	PTR FTN()void  size(2) Largest target is 0

    CCP_Interrupt_Config@_ccp_obj$CCP1_InterruptHandler	PTR FTN()void  size(2) Largest target is 0

    CCP_Interrupt_Config@_ccp_obj$CCP2_InterruptHandler	PTR FTN()void  size(2) Largest target is 0

    CCP_Mode_Timer_Select@_ccp_obj$CCP1_InterruptHandler	PTR FTN()void  size(2) Largest target is 0

    CCP_Mode_Timer_Select@_ccp_obj$CCP2_InterruptHandler	PTR FTN()void  size(2) Largest target is 0

    CCP_PWM_Mode_Config@_ccp_obj$CCP1_InterruptHandler	PTR FTN()void  size(2) Largest target is 0

    CCP_PWM_Mode_Config@_ccp_obj$CCP2_InterruptHandler	PTR FTN()void  size(2) Largest target is 0

    CCP_PWM_Set_Duty@_ccp_obj$CCP1_InterruptHandler	PTR FTN()void  size(2) Largest target is 0

    CCP_PWM_Set_Duty@_ccp_obj$CCP2_InterruptHandler	PTR FTN()void  size(2) Largest target is 0

    CCP_PWM_Start@_ccp_obj$CCP1_InterruptHandler	PTR FTN()void  size(2) Largest target is 0

    CCP_PWM_Start@_ccp_obj$CCP2_InterruptHandler	PTR FTN()void  size(2) Largest target is 0

    CCP_PWM_Stop@_ccp_obj$CCP1_InterruptHandler	PTR FTN()void  size(2) Largest target is 0

    CCP_PWM_Stop@_ccp_obj$CCP2_InterruptHandler	PTR FTN()void  size(2) Largest target is 0

    configure_voltage_reference@_adc	PTR const struct . size(1) Largest target is 7
		 -> adc_1(BANK0[7]), 

    configure_voltage_reference@_adc$ADC_InterruptHandler	PTR FTN()void  size(2) Largest target is 1
		 -> NULL(), 

    convert_uint16_to_string@str	PTR unsigned char  size(1) Largest target is 7
		 -> lm35_res_1_txt(BANK0[7]), 

    dc_motor_initialize@_dc_motor	PTR const struct . size(1) Largest target is 2
		 -> dc_motor_1(COMRAM[2]), dc_motor_2(COMRAM[2]), 

    dc_motor_move_right@_dc_motor	PTR const struct . size(1) Largest target is 2
		 -> dc_motor_1(COMRAM[2]), dc_motor_2(COMRAM[2]), 

    dc_motor_stop@_dc_motor	PTR const struct . size(1) Largest target is 2
		 -> dc_motor_1(COMRAM[2]), dc_motor_2(COMRAM[2]), 

    EUSART_ASYNC_RX_Init@_eusart$EUSART_FramingErrorHandler	PTR FTN()void  size(2) Largest target is 0

    EUSART_ASYNC_RX_Init@_eusart$EUSART_OverrunErrorHandler	PTR FTN()void  size(2) Largest target is 0

    EUSART_ASYNC_RX_Init@_eusart$EUSART_RxDefaultInterruptHandler	PTR FTN()void  size(2) Largest target is 0

    EUSART_ASYNC_RX_Init@_eusart$EUSART_TxDefaultInterruptHandler	PTR FTN()void  size(2) Largest target is 0

    EUSART_ASYNC_TX_Init@_eusart$EUSART_FramingErrorHandler	PTR FTN()void  size(2) Largest target is 0

    EUSART_ASYNC_TX_Init@_eusart$EUSART_OverrunErrorHandler	PTR FTN()void  size(2) Largest target is 0

    EUSART_ASYNC_TX_Init@_eusart$EUSART_RxDefaultInterruptHandler	PTR FTN()void  size(2) Largest target is 0

    EUSART_ASYNC_TX_Init@_eusart$EUSART_TxDefaultInterruptHandler	PTR FTN()void  size(2) Largest target is 0

    EUSART_Baud_Rate_Calculation@_eusart$EUSART_FramingErrorHandler	PTR FTN()void  size(2) Largest target is 0

    EUSART_Baud_Rate_Calculation@_eusart$EUSART_OverrunErrorHandler	PTR FTN()void  size(2) Largest target is 0

    EUSART_Baud_Rate_Calculation@_eusart$EUSART_RxDefaultInterruptHandler	PTR FTN()void  size(2) Largest target is 0

    EUSART_Baud_Rate_Calculation@_eusart$EUSART_TxDefaultInterruptHandler	PTR FTN()void  size(2) Largest target is 0

    EUSART_FramingErrorHandler	PTR FTN()void  size(2) Largest target is 1
		 -> NULL(), 

    EUSART_OverrunErrorHandler	PTR FTN()void  size(2) Largest target is 1
		 -> NULL(), 

    EUSART_RxInterruptHandler	PTR FTN()void  size(2) Largest target is 1
		 -> NULL(), 

    EUSART_TxInterruptHandler	PTR FTN()void  size(2) Largest target is 1
		 -> NULL(), 

    f$.$buffer	PTR unsigned char  size(2) Largest target is 0

    f$.$source	PTR const unsigned char  size(2) Largest target is 0

    fputc@fp	PTR struct _IO_FILE size(1) Largest target is 12
		 -> sprintf@f(COMRAM[12]), 

    fputc@fp$.$buffer	PTR unsigned char  size(2) Largest target is 0

    fputc@fp$.$source	PTR const unsigned char  size(2) Largest target is 0

    gpio_pin_direction_initialize@_pin_config	PTR const struct . size(1) Largest target is 6
		 -> dc_motor_1(COMRAM[2]), dc_motor_1$dc_motor_pin(COMRAM[2]), dc_motor_2(COMRAM[2]), dc_motor_2$dc_motor_pin(COMRAM[2]), 
		 -> lcd_1(BANK0[6]), lcd_1$lcd_data(BANK0[4]), led_initialize@pin_obj(COMRAM[1]), MSSP_SPI_Msster_Mode_GPIO_PIN_Configurations@SPI_CLK(COMRAM[1]), 
		 -> MSSP_SPI_Msster_Mode_GPIO_PIN_Configurations@SPI_SDI(COMRAM[1]), MSSP_SPI_Msster_Mode_GPIO_PIN_Configurations@SPI_SDO(COMRAM[1]), MSSP_SPI_Slave_Mode_GPIO_PIN_Configurations@SPI_CLK(COMRAM[1]), MSSP_SPI_Slave_Mode_GPIO_PIN_Configurations@SPI_SDI(COMRAM[1]), 
		 -> MSSP_SPI_Slave_Mode_GPIO_PIN_Configurations@SPI_SDO(COMRAM[1]), MSSP_SPI_Slave_Mode_GPIO_PIN_Configurations@SPI_SS(COMRAM[1]), relay_initialize@pin_obj(COMRAM[1]), 

    gpio_pin_initialize@_pin_config	PTR const struct . size(1) Largest target is 2
		 -> dc_motor_1(COMRAM[2]), dc_motor_1$dc_motor_pin(COMRAM[2]), dc_motor_2(COMRAM[2]), dc_motor_2$dc_motor_pin(COMRAM[2]), 
		 -> relay_initialize@pin_obj(COMRAM[1]), 

    gpio_pin_write_logic@_pin_config	PTR const struct . size(1) Largest target is 6
		 -> dc_motor_1(COMRAM[2]), dc_motor_1$dc_motor_pin(COMRAM[2]), dc_motor_2(COMRAM[2]), dc_motor_2$dc_motor_pin(COMRAM[2]), 
		 -> lcd_1(BANK0[6]), lcd_1$lcd_data(BANK0[4]), led_turn_off@pin_obj(COMRAM[1]), led_turn_on@pin_obj(COMRAM[1]), 
		 -> relay_initialize@pin_obj(COMRAM[1]), relay_turn_off@pin_obj(COMRAM[1]), relay_turn_on@pin_obj(COMRAM[1]), 

    INT0_InterruptHandler	PTR FTN()void  size(2) Largest target is 1
		 -> NULL(), 

    INT1_InterruptHandler	PTR FTN()void  size(2) Largest target is 1
		 -> NULL(), 

    INT2_InterruptHandler	PTR FTN()void  size(2) Largest target is 1
		 -> NULL(), 

    Interrupt_INTx_Clear_Flag@int_obj$EXT_InterruptHandler	PTR FTN()void  size(2) Largest target is 0

    Interrupt_INTx_Disable@int_obj$EXT_InterruptHandler	PTR FTN()void  size(2) Largest target is 0

    Interrupt_INTx_Edge_Init@int_obj$EXT_InterruptHandler	PTR FTN()void  size(2) Largest target is 0

    Interrupt_INTx_Enable@int_obj$EXT_InterruptHandler	PTR FTN()void  size(2) Largest target is 0

    Interrupt_INTx_Pin_Init@int_obj$EXT_InterruptHandler	PTR FTN()void  size(2) Largest target is 0

    Interrupt_INTx_SetInterruptHandler@int_obj$EXT_InterruptHandler	PTR FTN()void  size(2) Largest target is 0

    Interrupt_RBx_Init@int_obj$EXT_InterruptHandler_HIGH	PTR FTN()void  size(2) Largest target is 0

    Interrupt_RBx_Init@int_obj$EXT_InterruptHandler_LOW	PTR FTN()void  size(2) Largest target is 0

    lat_registers	PTR volatile unsigned char [5] size(2) Largest target is 1
		 -> LATA(BITBIGSFRlllll[1]), LATB(BITBIGSFRllllh[1]), LATC(BITBIGSFRllllh[1]), LATD(BITBIGSFRllllh[1]), 
		 -> LATE(BITBIGSFRllllh[1]), 

    lcd_4bit_intialize@lcd	PTR const struct . size(1) Largest target is 6
		 -> lcd_1(BANK0[6]), 

    lcd_4bit_send_char_data@lcd	PTR const struct . size(1) Largest target is 6
		 -> lcd_1(BANK0[6]), 

    lcd_4bit_send_command@lcd	PTR const struct . size(1) Largest target is 6
		 -> lcd_1(BANK0[6]), 

    lcd_4bit_send_enable_signal@lcd	PTR const struct . size(1) Largest target is 6
		 -> lcd_1(BANK0[6]), 

    lcd_4bit_send_string_pos@lcd	PTR const struct . size(1) Largest target is 6
		 -> lcd_1(BANK0[6]), 

    lcd_4bit_send_string_pos@str	PTR unsigned char  size(2) Largest target is 20
		 -> lm35_res_1_txt(BANK0[7]), STR_10(CODE[20]), STR_4(CODE[7]), STR_5(CODE[13]), 
		 -> STR_6(CODE[15]), STR_7(CODE[17]), STR_8(CODE[16]), STR_9(CODE[16]), 

    lcd_4bit_set_cursor@lcd	PTR const struct . size(1) Largest target is 6
		 -> lcd_1(BANK0[6]), 

    lcd_send_4bits@lcd	PTR const struct . size(1) Largest target is 6
		 -> lcd_1(BANK0[6]), 

    led_initialize@led	PTR const struct . size(1) Largest target is 1
		 -> led1(COMRAM[1]), 

    led_turn_off@led	PTR const struct . size(1) Largest target is 1
		 -> led1(COMRAM[1]), 

    led_turn_on@led	PTR const struct . size(1) Largest target is 1
		 -> led1(COMRAM[1]), 

    memset@dest	PTR void  size(1) Largest target is 7
		 -> lm35_res_1_txt(BANK0[7]), 

    memset@p	PTR unsigned char  size(1) Largest target is 7
		 -> lm35_res_1_txt(BANK0[7]), 

    MSSP_SPI_Interrupt_Init@Config$MSSP_SPI_InterruptHandler	PTR FTN()void  size(2) Largest target is 0

    MSSP_SPI_Slave_Mode_GPIO_PIN_Configurations@Config$MSSP_SPI_InterruptHandler	PTR FTN()void  size(2) Largest target is 0

    port_registers	PTR volatile unsigned char [5] size(2) Largest target is 1
		 -> PORTA(BITBIGSFRlllll[1]), PORTB(BITBIGSFRlllll[1]), PORTC(BITBIGSFRlllll[1]), PORTD(BITBIGSFRlllll[1]), 
		 -> PORTE(BITBIGSFRlllll[1]), 

    RB4_InterruptHandler_HIGH	PTR FTN()void  size(2) Largest target is 1
		 -> NULL(), 

    RB4_InterruptHandler_LOW	PTR FTN()void  size(2) Largest target is 1
		 -> NULL(), 

    RB5_InterruptHandler_HIGH	PTR FTN()void  size(2) Largest target is 1
		 -> NULL(), 

    RB5_InterruptHandler_LOW	PTR FTN()void  size(2) Largest target is 1
		 -> NULL(), 

    RB6_InterruptHandler_HIGH	PTR FTN()void  size(2) Largest target is 1
		 -> NULL(), 

    RB6_InterruptHandler_LOW	PTR FTN()void  size(2) Largest target is 1
		 -> NULL(), 

    RB7_InterruptHandler_HIGH	PTR FTN()void  size(2) Largest target is 1
		 -> NULL(), 

    RB7_InterruptHandler_LOW	PTR FTN()void  size(2) Largest target is 1
		 -> NULL(), 

    S1200$CCP1_InterruptHandler	PTR FTN()void  size(2) Largest target is 0

    S1200$CCP2_InterruptHandler	PTR FTN()void  size(2) Largest target is 0

    S1851$EXT_InterruptHandler	PTR FTN()void  size(2) Largest target is 0

    S1967$EXT_InterruptHandler_HIGH	PTR FTN()void  size(2) Largest target is 0

    S1967$EXT_InterruptHandler_LOW	PTR FTN()void  size(2) Largest target is 0

    S2452$MSSP_SPI_InterruptHandler	PTR FTN()void  size(2) Largest target is 0

    S2866$TMR0_InterruptHandler	PTR FTN()void  size(2) Largest target is 0

    S3031$TMR1_InterruptHandler	PTR FTN()void  size(2) Largest target is 0

    S3221$TMR2_InterruptHandler	PTR FTN()void  size(2) Largest target is 0

    S3352$TMR3_InterruptHandler	PTR FTN()void  size(2) Largest target is 0

    S3546$EUSART_FramingErrorHandler	PTR FTN()void  size(2) Largest target is 0

    S3546$EUSART_OverrunErrorHandler	PTR FTN()void  size(2) Largest target is 0

    S3546$EUSART_RxDefaultInterruptHandler	PTR FTN()void  size(2) Largest target is 0

    S3546$EUSART_TxDefaultInterruptHandler	PTR FTN()void  size(2) Largest target is 0

    S4527$buffer	PTR unsigned char  size(2) Largest target is 0

    S4527$source	PTR const unsigned char  size(2) Largest target is 0

    S693$ADC_InterruptHandler	PTR FTN()void  size(2) Largest target is 1
		 -> NULL(), 

    select_result_format@_adc	PTR const struct . size(1) Largest target is 7
		 -> adc_1(BANK0[7]), 

    select_result_format@_adc$ADC_InterruptHandler	PTR FTN()void  size(2) Largest target is 1
		 -> NULL(), 

    sp__memset	PTR void  size(1) Largest target is 7
		 -> lm35_res_1_txt(BANK0[7]), 

    SPI_Init@Config$MSSP_SPI_InterruptHandler	PTR FTN()void  size(2) Largest target is 0

    SPI_InterruptHandler	PTR FTN()void  size(2) Largest target is 1
		 -> NULL(), 

    sprintf@ap	PTR void [1] size(1) Largest target is 2
		 -> ?_sprintf(COMRAM[2]), 

    sprintf@fmt	PTR const unsigned char  size(1) Largest target is 3
		 -> STR_1(CODE[3]), STR_2(CODE[3]), STR_3(CODE[3]), 

    sprintf@s	PTR unsigned char  size(1) Largest target is 6
		 -> convert_uint16_to_string@Temp_String(COMRAM[6]), 

    Timer0_Init@_timer$TMR0_InterruptHandler	PTR FTN()void  size(2) Largest target is 0

    Timer0_Mode_Select@_timer$TMR0_InterruptHandler	PTR FTN()void  size(2) Largest target is 0

    Timer0_Prescaler_Config@_timer$TMR0_InterruptHandler	PTR FTN()void  size(2) Largest target is 0

    Timer0_Register_Size_Config@_timer$TMR0_InterruptHandler	PTR FTN()void  size(2) Largest target is 0

    Timer1_Init@_timer$TMR1_InterruptHandler	PTR FTN()void  size(2) Largest target is 0

    Timer1_Mode_Select@_timer$TMR1_InterruptHandler	PTR FTN()void  size(2) Largest target is 0

    Timer2_Init@_timer$TMR2_InterruptHandler	PTR FTN()void  size(2) Largest target is 0

    Timer3_Init@_timer$TMR3_InterruptHandler	PTR FTN()void  size(2) Largest target is 0

    Timer3_Mode_Select@_timer$TMR3_InterruptHandler	PTR FTN()void  size(2) Largest target is 0

    TMR0_InterruptHandler	PTR FTN()void  size(2) Largest target is 1
		 -> NULL(), 

    TMR1_InterruptHandler	PTR FTN()volatile void  size(2) Largest target is 1
		 -> NULL(), 

    TMR2_InterruptHandler	PTR FTN()volatile void  size(2) Largest target is 1
		 -> NULL(), 

    TMR3_InterruptHandler	PTR FTN()void  size(2) Largest target is 1
		 -> NULL(), 

    tris_registers	PTR volatile unsigned char [5] size(2) Largest target is 1
		 -> TRISA(BITBIGSFRlllll[1]), TRISB(ABS[1]), TRISC(ABS[1]), TRISD(ABS[1]), 
		 -> TRISE(ABS[1]), 

    vfpfcnvrt@ap	PTR PTR void  size(1) Largest target is 1
		 -> sprintf@ap(COMRAM[1]), 

    vfpfcnvrt@cp	PTR unsigned char  size(1) Largest target is 3
		 -> STR_1(CODE[3]), STR_2(CODE[3]), STR_3(CODE[3]), 

    vfpfcnvrt@fmt	PTR PTR unsigned char  size(1) Largest target is 1
		 -> vfprintf@cfmt(COMRAM[1]), 

    vfpfcnvrt@fp	PTR struct _IO_FILE size(1) Largest target is 12
		 -> sprintf@f(COMRAM[12]), 

    vfprintf@ap	PTR PTR void  size(1) Largest target is 1
		 -> sprintf@ap(COMRAM[1]), 

    vfprintf@cfmt	PTR unsigned char  size(1) Largest target is 3
		 -> STR_1(CODE[3]), STR_2(CODE[3]), STR_3(CODE[3]), 

    vfprintf@fmt	PTR const unsigned char  size(1) Largest target is 3
		 -> STR_1(CODE[3]), STR_2(CODE[3]), STR_3(CODE[3]), 

    vfprintf@fp	PTR struct _IO_FILE size(1) Largest target is 12
		 -> sprintf@f(COMRAM[12]), 


Critical Paths under _main in COMRAM

    _main->_convert_uint16_to_string
    _led_turn_on->_gpio_pin_write_logic
    _led_turn_off->_gpio_pin_write_logic
    _dc_motor_stop->_gpio_pin_write_logic
    _dc_motor_move_right->_gpio_pin_write_logic
    _convert_uint16_to_string->_sprintf
    _sprintf->_vfprintf
    _vfprintf->_vfpfcnvrt
    _vfpfcnvrt->_abs
    _abs->___awmod
    _ecu_layer_intialize->_lcd_4bit_intialize
    _led_initialize->_gpio_pin_direction_initialize
    _lcd_4bit_intialize->_lcd_4bit_send_command
    _dc_motor_initialize->_gpio_pin_initialize
    _gpio_pin_initialize->_gpio_pin_write_logic
    _ADC_Init->_adc_input_channel_port_configure
    ___fltol->___flmul
    ___flmul->___xxtofl
    _Air_Conditioning_On->_lcd_4bit_send_string_pos
    _lcd_4bit_send_string_pos->_lcd_4bit_set_cursor
    _lcd_4bit_set_cursor->_lcd_4bit_send_command
    _lcd_4bit_send_command->_lcd_send_4bits
    _lcd_4bit_send_char_data->_lcd_send_4bits
    _lcd_send_4bits->_gpio_pin_write_logic
    _lcd_4bit_send_enable_signal->_gpio_pin_write_logic
    _ADC_GetConversion_Blocking->_ADC_SelectChannel
    _ADC_SelectChannel->_adc_input_channel_port_configure

Critical Paths under _InterruptManager in COMRAM

    _InterruptManager->_RB4_ISR
    _InterruptManager->_RB5_ISR
    _InterruptManager->_RB6_ISR
    _InterruptManager->_RB7_ISR

Critical Paths under _main in BANK0

    None.

Critical Paths under _InterruptManager in BANK0

    None.

Critical Paths under _main in BANK1

    None.

Critical Paths under _InterruptManager in BANK1

    None.

Critical Paths under _main in BANK2

    None.

Critical Paths under _InterruptManager in BANK2

    None.

Critical Paths under _main in BANK3

    None.

Critical Paths under _InterruptManager in BANK3

    None.

Critical Paths under _main in BANK4

    None.

Critical Paths under _InterruptManager in BANK4

    None.

Critical Paths under _main in BANK5

    None.

Critical Paths under _InterruptManager in BANK5

    None.

Critical Paths under _main in BANK6

    None.

Critical Paths under _InterruptManager in BANK6

    None.

Critical Paths under _main in BANK7

    None.

Critical Paths under _InterruptManager in BANK7

    None.

Critical Paths under _main in BANK8

    None.

Critical Paths under _InterruptManager in BANK8

    None.

Critical Paths under _main in BANK9

    None.

Critical Paths under _InterruptManager in BANK9

    None.

Critical Paths under _main in BANK10

    None.

Critical Paths under _InterruptManager in BANK10

    None.

Critical Paths under _main in BANK11

    None.

Critical Paths under _InterruptManager in BANK11

    None.

Critical Paths under _main in BANK12

    None.

Critical Paths under _InterruptManager in BANK12

    None.

Critical Paths under _main in BANK13

    None.

Critical Paths under _InterruptManager in BANK13

    None.

Critical Paths under _main in BANK14

    None.

Critical Paths under _InterruptManager in BANK14

    None.

Critical Paths under _main in BANK15

    None.

Critical Paths under _InterruptManager in BANK15

    None.

Call Graph Tables:

 ---------------------------------------------------------------------------------
 (Depth) Function   	        Calls       Base Space   Used Autos Params    Refs
 ---------------------------------------------------------------------------------
 (0) _main                                                 3     3      0  190412
                                             54 COMRAM     2     2      0
                                              0 BANK0      1     1      0
         _ADC_GetConversion_Blocking
                _Air_Conditioning_On
                            ___flmul
                            ___fltol
                            ___lwdiv
                           ___xxtofl
              _application_intialize
           _convert_uint16_to_string
                _dc_motor_move_right
                      _dc_motor_stop
           _lcd_4bit_send_string_pos
                       _led_turn_off
                        _led_turn_on
 ---------------------------------------------------------------------------------
 (1) _led_turn_on                                          4     3      1    6149
                                              9 COMRAM     4     3      1
               _gpio_pin_write_logic
 ---------------------------------------------------------------------------------
 (1) _led_turn_off                                         4     3      1    6149
                                              9 COMRAM     4     3      1
               _gpio_pin_write_logic
 ---------------------------------------------------------------------------------
 (1) _dc_motor_stop                                        2     1      1    6147
                                              9 COMRAM     2     1      1
               _gpio_pin_write_logic
 ---------------------------------------------------------------------------------
 (1) _dc_motor_move_right                                  2     1      1    6147
                                              9 COMRAM     2     1      1
               _gpio_pin_write_logic
 ---------------------------------------------------------------------------------
 (1) _convert_uint16_to_string                            11     8      3    6249
                                             43 COMRAM    11     8      3
                             _memset
                            _sprintf
 ---------------------------------------------------------------------------------
 (2) _sprintf                                             19    15      4    4717
                                             26 COMRAM    17    13      4
                           _vfprintf
 ---------------------------------------------------------------------------------
 (3) _vfprintf                                             4     1      3    3871
                                             22 COMRAM     4     1      3
                          _vfpfcnvrt
 ---------------------------------------------------------------------------------
 (4) _vfpfcnvrt                                           11     8      3    3410
                                             11 COMRAM    11     8      3
                            ___awdiv
                            ___awmod
                                _abs
                              _fputc
 ---------------------------------------------------------------------------------
 (5) _fputc                                                8     5      3     957
                                              1 COMRAM     8     5      3
                              _putch
 ---------------------------------------------------------------------------------
 (6) _putch                                                1     1      0       0
 ---------------------------------------------------------------------------------
 (5) _abs                                                  4     2      2     183
                                              7 COMRAM     4     2      2
                            ___awmod (ARG)
 ---------------------------------------------------------------------------------
 (5) ___awmod                                              6     2      4     613
                                              1 COMRAM     6     2      4
 ---------------------------------------------------------------------------------
 (5) ___awdiv                                              8     4      4     625
                                              1 COMRAM     8     4      4
 ---------------------------------------------------------------------------------
 (2) _memset                                               6     1      5     947
                                              1 COMRAM     6     1      5
 ---------------------------------------------------------------------------------
 (1) _application_intialize                                1     1      0   37114
                _ecu_layer_intialize
 ---------------------------------------------------------------------------------
 (2) _ecu_layer_intialize                                  1     1      0   37111
                           _ADC_Init
                _dc_motor_initialize
                 _lcd_4bit_intialize
                     _led_initialize
 ---------------------------------------------------------------------------------
 (3) _led_initialize                                       4     3      1    2372
                                              8 COMRAM     4     3      1
      _gpio_pin_direction_initialize
 ---------------------------------------------------------------------------------
 (3) _lcd_4bit_intialize                                   4     3      1   24892
                                             15 COMRAM     4     3      1
      _gpio_pin_direction_initialize
              _lcd_4bit_send_command
 ---------------------------------------------------------------------------------
 (3) _dc_motor_initialize                                  2     1      1    9116
                                             12 COMRAM     2     1      1
                _gpio_pin_initialize
 ---------------------------------------------------------------------------------
 (4) _gpio_pin_initialize                                  3     2      1    8806
                                              9 COMRAM     3     2      1
      _gpio_pin_direction_initialize
               _gpio_pin_write_logic
 ---------------------------------------------------------------------------------
 (4) _gpio_pin_direction_initialize                        7     6      1    2057
                                              1 COMRAM     7     6      1
 ---------------------------------------------------------------------------------
 (3) _ADC_Init                                             3     2      1     713
                                              4 COMRAM     3     2      1
   _adc_input_channel_port_configure
        _configure_voltage_reference
               _select_result_format
 ---------------------------------------------------------------------------------
 (4) _select_result_format                                 1     0      1     152
                                              1 COMRAM     1     0      1
 ---------------------------------------------------------------------------------
 (4) _configure_voltage_reference                          1     0      1     152
                                              1 COMRAM     1     0      1
 ---------------------------------------------------------------------------------
 (1) ___xxtofl                                            14    10      4    1556
                                              1 COMRAM    14    10      4
 ---------------------------------------------------------------------------------
 (1) ___lwdiv                                              7     3      4     421
                                              1 COMRAM     7     3      4
 ---------------------------------------------------------------------------------
 (1) ___fltol                                             10     6      4     787
                                             40 COMRAM    10     6      4
                            ___flmul (ARG)
                           ___xxtofl (ARG)
 ---------------------------------------------------------------------------------
 (1) ___flmul                                             25    17      8    3413
                                             15 COMRAM    25    17      8
                           ___xxtofl (ARG)
 ---------------------------------------------------------------------------------
 (1) _Air_Conditioning_On                                  3     3      0   68333
                                             27 COMRAM     2     2      0
              _lcd_4bit_send_command
           _lcd_4bit_send_string_pos
 ---------------------------------------------------------------------------------
 (1) _lcd_4bit_send_string_pos                             6     1      5   46154
                                             21 COMRAM     6     1      5
            _lcd_4bit_send_char_data
                _lcd_4bit_set_cursor
 ---------------------------------------------------------------------------------
 (2) _lcd_4bit_set_cursor                                  6     3      3   23035
                                             15 COMRAM     6     3      3
              _lcd_4bit_send_command
 ---------------------------------------------------------------------------------
 (3) _lcd_4bit_send_command                                3     1      2   22167
                                             12 COMRAM     3     1      2
               _gpio_pin_write_logic
        _lcd_4bit_send_enable_signal
                     _lcd_send_4bits
 ---------------------------------------------------------------------------------
 (2) _lcd_4bit_send_char_data                              3     1      2   19976
                                             12 COMRAM     2     0      2
               _gpio_pin_write_logic
        _lcd_4bit_send_enable_signal
                     _lcd_send_4bits
 ---------------------------------------------------------------------------------
 (4) _lcd_send_4bits                                       3     1      2    6851
                                              9 COMRAM     3     1      2
               _gpio_pin_write_logic
 ---------------------------------------------------------------------------------
 (4) _lcd_4bit_send_enable_signal                          2     1      1    6299
                                              9 COMRAM     2     1      1
               _gpio_pin_write_logic
 ---------------------------------------------------------------------------------
 (2) _gpio_pin_write_logic                                 8     6      2    5837
                                              1 COMRAM     8     6      2
 ---------------------------------------------------------------------------------
 (1) _ADC_GetConversion_Blocking                           4     1      3    1745
                                              8 COMRAM     4     1      3
            _ADC_GetConversionResult
                  _ADC_SelectChannel
                _ADC_StartConversion
 ---------------------------------------------------------------------------------
 (2) _ADC_StartConversion                                  2     1      1     251
                                              1 COMRAM     2     1      1
 ---------------------------------------------------------------------------------
 (2) _ADC_SelectChannel                                    4     2      2     524
                                              4 COMRAM     4     2      2
   _adc_input_channel_port_configure
 ---------------------------------------------------------------------------------
 (4) _adc_input_channel_port_configure                     3     3      0      31
                                              1 COMRAM     3     3      0
 ---------------------------------------------------------------------------------
 (2) _ADC_GetConversionResult                              6     4      2     437
                                              1 COMRAM     6     4      2
 ---------------------------------------------------------------------------------
 Estimated maximum stack depth 6
 ---------------------------------------------------------------------------------
 (Depth) Function   	        Calls       Base Space   Used Autos Params    Refs
 ---------------------------------------------------------------------------------
 (7) _InterruptManager                                     0     0      0     120
                            _ADC_ISR
                           _CCP1_ISR
                           _CCP2_ISR
                      _EUSART_RX_ISR
                      _EUSART_TX_ISR
                           _INT0_ISR
                           _INT1_ISR
                           _INT2_ISR
                       _MSSP_SPI_ISR
                            _RB4_ISR
                            _RB5_ISR
                            _RB6_ISR
                            _RB7_ISR
                           _TMR0_ISR
                           _TMR1_ISR
                           _TMR2_ISR
                           _TMR3_ISR
 ---------------------------------------------------------------------------------
 (8) _TMR3_ISR                                             0     0      0       0
 ---------------------------------------------------------------------------------
 (8) _TMR2_ISR                                             0     0      0       0
 ---------------------------------------------------------------------------------
 (8) _TMR1_ISR                                             0     0      0       0
 ---------------------------------------------------------------------------------
 (8) _TMR0_ISR                                             0     0      0       0
 ---------------------------------------------------------------------------------
 (8) _RB7_ISR                                              1     1      0      30
                                              0 COMRAM     1     1      0
 ---------------------------------------------------------------------------------
 (8) _RB6_ISR                                              1     1      0      30
                                              0 COMRAM     1     1      0
 ---------------------------------------------------------------------------------
 (8) _RB5_ISR                                              1     1      0      30
                                              0 COMRAM     1     1      0
 ---------------------------------------------------------------------------------
 (8) _RB4_ISR                                              1     1      0      30
                                              0 COMRAM     1     1      0
 ---------------------------------------------------------------------------------
 (8) _MSSP_SPI_ISR                                         0     0      0       0
 ---------------------------------------------------------------------------------
 (8) _INT2_ISR                                             0     0      0       0
 ---------------------------------------------------------------------------------
 (8) _INT1_ISR                                             0     0      0       0
 ---------------------------------------------------------------------------------
 (8) _INT0_ISR                                             0     0      0       0
 ---------------------------------------------------------------------------------
 (8) _EUSART_TX_ISR                                        0     0      0       0
 ---------------------------------------------------------------------------------
 (8) _EUSART_RX_ISR                                        0     0      0       0
 ---------------------------------------------------------------------------------
 (8) _CCP2_ISR                                             0     0      0       0
 ---------------------------------------------------------------------------------
 (8) _CCP1_ISR                                             0     0      0       0
 ---------------------------------------------------------------------------------
 (8) _ADC_ISR                                              0     0      0       0
 ---------------------------------------------------------------------------------
 Estimated maximum stack depth 8
 ---------------------------------------------------------------------------------

 Call Graph Graphs:

 _main (ROOT)
   _ADC_GetConversion_Blocking
     _ADC_GetConversionResult
     _ADC_SelectChannel
       _adc_input_channel_port_configure
     _ADC_StartConversion
   _Air_Conditioning_On
     _lcd_4bit_send_command
       _gpio_pin_write_logic
       _lcd_4bit_send_enable_signal
         _gpio_pin_write_logic
       _lcd_send_4bits
         _gpio_pin_write_logic
     _lcd_4bit_send_string_pos
       _lcd_4bit_send_char_data
         _gpio_pin_write_logic
         _lcd_4bit_send_enable_signal
         _lcd_send_4bits
       _lcd_4bit_set_cursor
         _lcd_4bit_send_command
   ___flmul
     ___xxtofl (ARG)
   ___fltol
     ___flmul (ARG)
     ___xxtofl (ARG)
   ___lwdiv
   ___xxtofl
   _application_intialize
     _ecu_layer_intialize
       _ADC_Init
         _adc_input_channel_port_configure
         _configure_voltage_reference
         _select_result_format
       _dc_motor_initialize
         _gpio_pin_initialize
           _gpio_pin_direction_initialize
           _gpio_pin_write_logic
       _lcd_4bit_intialize
         _gpio_pin_direction_initialize
         _lcd_4bit_send_command
       _led_initialize
         _gpio_pin_direction_initialize
   _convert_uint16_to_string
     _memset
     _sprintf
       _vfprintf
         _vfpfcnvrt
           ___awdiv
           ___awmod
           _abs
             ___awmod (ARG)
           _fputc
             _putch
   _dc_motor_move_right
     _gpio_pin_write_logic
   _dc_motor_stop
     _gpio_pin_write_logic
   _lcd_4bit_send_string_pos
   _led_turn_off
     _gpio_pin_write_logic
   _led_turn_on
     _gpio_pin_write_logic

 _InterruptManager (ROOT)
   _ADC_ISR
   _CCP1_ISR
   _CCP2_ISR
   _EUSART_RX_ISR
   _EUSART_TX_ISR
   _INT0_ISR
   _INT1_ISR
   _INT2_ISR
   _MSSP_SPI_ISR
   _RB4_ISR
   _RB5_ISR
   _RB6_ISR
   _RB7_ISR
   _TMR0_ISR
   _TMR1_ISR
   _TMR2_ISR
   _TMR3_ISR

 Address spaces:
Name               Size   Autos  Total    Cost      Usage
BIGRAM             F7F      0       0      51        0.0%
EEDATA             400      0       0       0        0.0%
BITBANK14          100      0       0      32        0.0%
BANK14             100      0       0      33        0.0%
BITBANK13          100      0       0      30        0.0%
BANK13             100      0       0      31        0.0%
BITBANK12          100      0       0      28        0.0%
BANK12             100      0       0      29        0.0%
BITBANK11          100      0       0      26        0.0%
BANK11             100      0       0      27        0.0%
BITBANK10          100      0       0      24        0.0%
BANK10             100      0       0      25        0.0%
BITBANK9           100      0       0      22        0.0%
BANK9              100      0       0      23        0.0%
BITBANK8           100      0       0      20        0.0%
BANK8              100      0       0      21        0.0%
BITBANK7           100      0       0      18        0.0%
BANK7              100      0       0      19        0.0%
BITBANK6           100      0       0      16        0.0%
BANK6              100      0       0      17        0.0%
BITBANK5           100      0       0      14        0.0%
BANK5              100      0       0      15        0.0%
BITBANK4           100      0       0      12        0.0%
BANK4              100      0       0      13        0.0%
BITBANK3           100      0       0      10        0.0%
BANK3              100      0       0      11        0.0%
BITBANK2           100      0       0       8        0.0%
BANK2              100      0       0       9        0.0%
BITBANK1           100      0       0       6        0.0%
BANK1              100      0       0       7        0.0%
BITBANK15           80      0       0      34        0.0%
BANK15              80      0       0      35        0.0%
BITBANK0            80      0       0       4        0.0%
BANK0               80      1      69       5       82.0%
BITCOMRAM           7E      0       0       0        0.0%
COMRAM              7E     38      7D       1       99.2%
BITBIGSFRhlhhlh     18      0       0      37        0.0%
BITBIGSFRhh          D      0       0      36        0.0%
BITBIGSFRllhllh      9      0       0      45        0.0%
BITBIGSFRlllhh       6      0       0      47        0.0%
BITBIGSFRhlhhll      5      0       0      38        0.0%
BITBIGSFRllhllh      4      0       0      44        0.0%
BITBIGSFRllllh       4      0       0      48        0.0%
BITBIGSFRlllll       4      0       0      49        0.0%
BITBIGSFRllhllh      1      0       0      43        0.0%
BITBIGSFRhlhlhl      1      0       0      39        0.0%
BITBIGSFRllhlh       1      0       0      42        0.0%
BITBIGSFRllhh        1      0       0      41        0.0%
BITBIGSFRhlhll       1      0       0      40        0.0%
BITBIGSFRllhlll      1      0       0      46        0.0%
BIGSFR               0      0       0     200        0.0%
BITSFR               0      0       0     200        0.0%
SFR                  0      0       0     200        0.0%
STACK                0      0       0       2        0.0%
NULL                 0      0       0       0        0.0%
ABS                  0      0      E6      50        0.0%
DATA                 0      0      E6       3        0.0%
CODE                 0      0       0       0        0.0%


Microchip Technology PIC18 Macro Assembler V2.45 build 20230818022343 
Symbol Table                                                                                   Thu Dec 14 01:23:40 2023

                               ??_InterruptManager 0002                                    ?_lcd_send_4bits 000A  
                                      _SSPSTATbits 0FC7                                                 l74 2B6A  
                                               l69 2200                                                 l78 2C50  
                                               l99 2822                                       ___awdiv@sign 0007  
                                              l201 278C                                                l210 2E86  
                                              l215 2D86                                                l225 2D4E  
                                              l340 2EDC                                                l415 2A92  
                                              l175 2BBA                                                l167 26F4  
                                              l408 2454                                                l280 2896  
                                              l273 29EE                                                l442 22D8  
                                              l418 2AB0                                                l178 2F02  
                                              l283 28B4                                                l460 2C92  
                                              l276 2840                                                l701 2014  
                                              l453 2C6A                                                l373 251E  
                                              l269 299C                                                l390 2F24  
                                              l462 2C96                                                l447 2D14  
                                              l375 25B0                                                l287 290A  
                                              l385 2DBE                                                l457 2C8A  
                                              l449 2D16                                                l722 2B0E  
                                              l388 2F1C                                                l389 2F22  
                                              l682 1F04                __end_of_configure_voltage_reference 2C98  
                      _configure_voltage_reference 2C52                                                _PR2 0FCB  
                                              _abs 2DF4                          _RB5_InterruptHandler_HIGH 0051  
                                  __end_of_ADC_ISR 2FF0                __end_of_lcd_4bit_send_enable_signal 2F04  
                      _lcd_4bit_send_enable_signal 2EDE                                       ___awmod@sign 0007  
                              led_initialize@F3117 006B                                                wreg 0FE8  
                            relay_initialize@F3057 0067                                       ?_led_turn_on 000A  
                                     ___flmul@aexp 001D                                       ___flmul@bexp 0022  
                      lcd_send_4bits@_data_command 000B                                       ___flmul@sign 001C  
                                     ___flmul@temp 0027                                       ___flmul@prod 0023  
                        ?_convert_uint16_to_string 002C                                    __end_of_RB4_ISR 2F8E  
                                  __end_of_RB5_ISR 2F74                                    __end_of_RB6_ISR 2F5A  
                                  __end_of_RB7_ISR 2F40                                       ___fltol@exp1 0032  
                                             ?_abs 0008                                               l2200 1468  
                                             l2060 2976                                               l2301 2E0E  
                                             l2231 1D1A                                               l2224 1C82  
                                             l2304 2E26                                               l2067 297E  
                                             l2227 1DDE                                               l2316 265A  
                                             l2253 2DF2                                               l2190 1338  
                                             l2238 1D76                                               l2246 2E56  
                                             l2183 1142                                               l2327 2FF0  
                                             l2192 13B0                                               l1800 239C  
                                             l2193 139E                                               l2187 14A6  
                                             l1563 2FCE                                               l2291 1C2A  
                                             l1813 2504                                               l1566 2C08  
                                             l2297 2CD6                                               l1866 211A  
                                             l8001 2876                                               l8011 2898  
                                             l8003 2878                                               l8101 11A2  
                                             l8021 28FC                                               l8013 28AC  
                                             l8005 2888                                               l8031 2A72  
                                             l8111 11EC                                               l8103 11AE  
                                             l8015 28B8                                               l8023 2908  
                                             l8007 2894                                               l8033 2A7A  
                                             l8121 123E                                               l8113 11F8  
                                             l8105 11C6                                               l8201 208E  
                                             l8041 2FCA                                               l7401 2306  
                                             l8017 28EA                                               l8035 2AA0  
                                             l8027 2A52                                               l7331 1F98  
                                             l7323 1F06                                               l8051 2BE4  
                                             l8131 12BC                                               l8123 124E  
                                             l8115 1208                                               l8107 11D2  
                                             l8211 20BA                                               l8043 2FCA  
                                             l7411 2334                                               l7403 230E  
                                             l8019 28EC                                               l8037 2AAE  
                                             l8029 2A62                                               l7325 1F1A  
                                             l7501 2B10                                               l8053 2BFC  
                                             l8045 2BBC                                               l8141 1336  
                                             l8133 12F2                                               l8125 126A  
                                             l8117 1214                                               l8109 11DE  
                                             l8061 109A                                               l8221 20EA  
                                             l9013 1EEC                                               l7421 236E  
                                             l7413 233C                                               l7405 2312  
                                             l7511 2204                                               l7335 1FE8  
                                             l7327 1F3A                                               l7503 2B20  
                                             l9015 2764                                               l8047 2BBC  
                                             l8151 1396                                               l8143 1348  
                                             l8135 1300                                               l8127 1276  
                                             l8119 1224                                               l8071 10E0  
                                             l8063 10AA                                               l8055 107E  
                                             l8223 20FA                                               l8207 20A6  
                                             l8231 2914                                               l7351 1E1C  
                                             l7431 2394                                               l7423 2370  
                                             l7415 234A                                               l7407 231A  
                                             l7521 2220                                               l7513 2208  
                                             l9017 1FFC                                               l7329 1F42  
                                             l7337 2012                                               l7505 2B28  
                                             l8049 2BC8                                               l8161 1404  
                                             l8145 1356                                               l8137 131E  
                                             l8129 1292                                               l8081 110C  
                                             l8073 10E6                                               l8065 10BA  
                                             l8057 108A                                               l8225 210A  
                                             l8217 20CE                                               l8209 20B0  
                                             l8241 294A                                               l8233 2926  
                                             l7353 1E72                                               l7345 1DE0  
                                             l7425 2376                                               l7417 2350  
                                             l7409 232C                                               l7441 2470  
                                             l7601 1C06                                               l9019 226A  
                                             l7531 223E                                               l7523 2226  
                                             l7515 220E                                               l7371 2B7C  
                                             l7507 2B68                                               l8171 146C  
                                             l8155 13C0                                               l8163 1408  
                                             l8147 135A                                               l8139 1328  
                                             l8091 1162                                               l8083 111C  
                                             l8075 10EC                                               l8067 10CA  
                                             l8059 1098                                               l8219 20DA  
                                             l8243 2960                                               l8235 292E  
                                             l8251 1C2E                                               l7347 1DF4  
                                             l7611 2138                                               l7419 2366  
                                             l7427 237C                                               l7451 24A4  
                                             l7443 2474                                               l7435 2456  
                                             l7533 2244                                               l7525 222C  
                                             l7517 2214                                               l7381 2EDE  
                                             l7373 2B8E                                               l8181 1496  
                                             l8173 147C                                               l8165 1422  
                                             l8157 13CC                                               l8149 1368  
                                             l8085 112C                                               l8077 10FA  
                                             l8069 10D0                                               l8245 2968  
                                             l8237 2936                                               l8229 290C  
                                             l8253 1C3E                                               l7357 1EC2  
                                             l7349 1E14                                               l7621 215C  
                                             l7613 214C                                               l7701 29A0  
                                             l7429 238C                                               l7461 24DE  
                                             l7453 24AC                                               l7445 2482  
                                             l7437 245A                                               l7535 224A  
                                             l7527 2232                                               l7519 221A  
                                             l7383 2EEA                                               l7375 2BA2  
                                             l7367 2B6C                                               l8175 148A  
                                             l8167 1436                                               l8159 13DA  
                                             l8095 1176                                               l8087 1132  
                                             l8079 10FC                                               l8191 2040  
                                             l8247 296A                                               l8239 2944  
                                             l8271 1D04                                               l8263 1CBC  
                                             l8255 1C4C                                               l7551 2D0E  
                                             l7359 1F02                                               l7631 21A2  
                                             l7623 215E                                               l7607 211C  
                                             l7703 29D2                                               l7391 22DA  
                                             l7455 24BA                                               l7463 24E4  
                                             l7447 248A                                               l7439 2468  
                                             l7471 25B2                                               l7537 2250  
                                             l7529 2238                                               l7385 2EF2  
                                             l7369 2B6C                                               l8177 148C  
                                             l8169 1450                                               l8097 1182  
                                             l8089 1152                                               l8193 206A  
                                             l8185 2016                                               l8249 2970  
                                             l8281 1D84                                               l8273 1D10  
                                             l8265 1CC4                                               l8257 1C92  
                                             l7553 2C52                                               l7545 2CD8  
                                             l7721 2582                                               l7713 2506  
                                             l7641 21D8                                               l7633 21A8  
                                             l7625 216E                                               l7609 2130  
                                             l7705 29D4                                               l7393 22DE  
                                             l7465 24F4                                               l7457 24D0  
                                             l7449 249C                                               l7481 262A  
                                             l7473 25C2                                               l7561 1A96  
                                             l7539 2256                                               l7387 2F00  
                                             l7379 2EDE                                               l7651 2C0A  
                                             l8179 1492                                               l8099 118C  
                                             l8195 206C                                               l8187 202C  
                                             l8291 1DCC                                               l8283 1D86  
                                             l8275 1D4C                                               l8267 1CD0  
                                             l8259 1CA8                                               l7555 2C72  
                                             l7547 2CF0                                               l7731 2598  
                                             l7723 2584                                               l7715 2516  
                                             l7491 2AC6                                               l7643 21E4  
                                             l7635 21B4                                               l7627 217C  
                                             l7619 2150                                               l7707 29E4  
                                             l7811 2E3A                                               l7395 22EC  
                                             l7467 24FC                                               l7459 24D8  
                                             l7475 25D2                                               l7571 1AEE  
                                             l7563 1AA4                                               l7661 2C3C  
                                             l7653 2C1A                                               l8197 207C  
                                             l8293 1DCE                                               l8285 1D8A  
                                             l8277 1D58                                               l8269 1D02  
                                             l7549 2CF6                                               l7733 25A0  
                                             l7725 2586                                               l7717 2520  
                                             l7493 2AE6                                               l7645 21F0  
                                             l7637 21C0                                               l7629 2188  
                                             l7709 29EC                                               l7813 2E3C  
                                             l7397 22F4                                               l7485 2DF4  
                                             l7477 25DC                                               l7581 1B74  
                                             l7573 1B06                                               l7565 1AA8  
                                             l7557 1A6A                                               l7821 2DD8  
                                             l7663 2C48                                               l7655 2C1A  
                                             l7671 2714                                               l8199 2080  
                                             l8287 1DAE                                               l8279 1D66  
                                             l7735 25A8                                               l7727 2588  
                                             l7719 2572                                               l7495 2AEE  
                                             l7639 21CC                                               l7647 21FE  
                                             l7831 2EBC                                               l7807 2E28  
                                             l7399 22F8                                               l7487 2E02  
                                             l7479 25F8                                               l7591 1BC8  
                                             l7583 1B86                                               l7575 1B10  
                                             l7567 1AB2                                               l7559 1A8E  
                                             l7743 2C98                                               l7823 2DE8  
                                             l7815 2DC0                                               l7841 2D98  
                                             l7657 2C26                                               l7673 2728  
                                             l7665 26F6                                               l7761 27EA  
                                             l7753 278E                                               l8289 1DBE  
                                             l7737 25AA                                               l7729 258A  
                                             l7497 2B0C                                               l7489 2AB2  
                                             l7833 2EC4                                               l7809 2E30  
                                             l7593 1BE2                                               l7585 1B96  
                                             l7577 1B28                                               l7569 1AD0  
                                             l7745 2CA0                                               l7817 2DC8  
                                             l7843 2DA0                                               l7659 2C34  
                                             l7675 273C                                               l7667 26FA  
                                             l7763 27EE                                               l7755 279E  
                                             l7739 25AE                                               l7691 2E74  
                                             l7835 2ECC                                               l7827 2EB4  
                                             l7587 1BA6                                               l7595 1BE4  
                                             l7579 1B58                                               l7747 2CB0  
                                             l7819 2DD0                                               l7861 239E  
                                             l7845 2DB2                                               l7853 2F04  
                                             l7669 2700                                               l7677 2750  
                                             l7765 2820                                               l7757 27A6  
                                             l7693 2E84                                               l7837 2ED4  
                                             l7829 2EB4                                               l7589 1BB6  
                                             l7597 1BFA                                               l7749 2CCE  
                                             l8901 18F4                                               l7871 2404  
                                             l7863 23AE                                               l7847 2DB8  
                                             l7839 2D88                                               l7855 2F14  
                                             l7679 278A                                               l7759 27BC  
                                             l7687 2E58                                               l7951 2660  
                                             l8911 1968                                               l8903 1904  
                                             l7873 241C                                               l7865 23BE  
                                             l7849 2DBC                                               l7857 2F1E  
                                             l7689 2E6C                                               l7697 2980  
                                             l7961 26A0                                               l7953 266C  
                                             l8921 19CA                                               l8913 1974  
                                             l8905 1920                                               l7867 23C6  
                                             l7699 2994                                               l7963 26AC  
                                             l7971 26F2                                               l7955 2670  
                                             l8923 19E0                                               l8931 1A4A  
                                             l8915 198A                                               l8907 1936  
                                             l7877 244E                                               l7869 23DE  
                                             l7965 26C4                                               l7957 2680  
                                             l7949 265C                                               l7981 2D84  
                                             l8925 1A20                                               l8917 19A6  
                                             l8909 194C                                               l7879 2452  
                                             l7967 26D8                                               l7959 2688  
                                             l7975 2D50                                               l7991 2D4C  
                                             l8927 1A36                                               l8919 19AE  
                                             l7969 26DA                                               l7977 2D64  
                                             l7985 2D18                                               l8929 1A3E  
                                             l7979 2D6C                                               l7987 2D2C  
                                             l7995 2824                                               l8891 186E  
                                             l7989 2D34                                               l7997 2838  
                                             l8893 1872                                               l7999 2844  
                                             l8895 1876                                               STR_1 1079  
                                             STR_2 1079                                               l8897 1886  
                                             l8889 186E                                               STR_4 1072  
                                             l8899 18D8                                               STR_5 1065  
                                             STR_6 1056                                               STR_7 1025  
                                             STR_8 1036                                               STR_9 1046  
                                             _LATA 0F89                                               _LATB 0F8A  
                                             _LATC 0F8B                                               _LATD 0F8C  
                                             _LATE 0F8D                                               u7000 216E  
                                             u7001 216A                                               u7010 2C1A  
                                             u7011 2C16                                               u7100 2820  
                                             u7020 2E6C                                               u7101 281C  
                                             u7021 2E68                                               u7030 2994  
                                             u7031 2990                                               u7200 241C  
                                             u7201 2418                                               u7050 2516  
                                             u7051 2512                                               u7140 2E56  
                                             u7060 2CCE                                               u7300 2680  
                                             u7045 29E2                                               u7141 2E52  
                                             u7061 2CCA                                               u7301 267C  
                                             u7150 2D98                                               u7070 279E  
                                             u7310 26F2                                               u7215 2434  
                                             u7151 2D94                                               u7071 279A  
                                             u7047 29E4                                               u7311 26EE  
                                             u7160 2F14                                               u7400 2AA0  
                                             u7080 27E2                                               u6600 1E14  
                                             u7320 2D64                                               u7161 2F10  
                                             u7401 2A9C                                               u6601 1E10  
                                             u7321 2D60                                               u7170 23AE  
                                             u7090 2810                                               u7410 1098  
                                             u7330 2D2C                                               u7171 23AA  
                                             u7411 1094                                               u7331 2D28  
                                             u7180 23BE                                               u7500 1336  
                                             u7420 10AA                                               u6700 238C  
                                             u7340 2838                                               u7181 23BA  
                                             u7501 1332                                               u7421 10A6  
                                             u6701 2388                                               u7341 2834  
                                             u7190 23DE                                               u6550 1F1A  
                                             u7510 1356                                               u7430 10BA  
                                             u6630 1ED8                                               u6614 1E3A  
                                             u6710 2468                                               u7191 23DA  
                                             u6551 1F16                                               u7087 27D8  
                                             u7511 1352                                               u7431 10B6  
                                             u6631 1ED2                                               u6615 1E36  
                                             u6711 2464                                               u6560 1F3A  
                                             u7520 1368                                               u7440 10FA  
                                             u7600 202C                                               u6640 1EDA  
                                             u6624 1E90                                               u6720 2482  
                                             u6800 262A                                               u7360 28AC  
                                             u8400 198A                                               u6561 1F36  
                                             u7097 2806                                               u7521 1364  
                                             u7441 10F6                                               u7601 2028  
                                             u6625 1E8C                                               u6721 247E  
                                             u6801 2626                                               u7361 28A8  
                                             u8401 1986                                               u7530 1396  
                                             u7450 110C                                               u7610 2060  
                                             u6650 22EC                                               u6730 249C  
                                             u6810 2E02                                               u8410 19E0  
                                             u7531 1392                                               u7451 1108  
                                             u6651 22E8                                               u6731 2498  
                                             u6811 2DFE                                               u7291 2666  
                                             u7355 2886                                               u8411 19DC  
                                             u7380 2A62                                               u7540 13AC  
                                             u7460 111C                                               u7620 208E  
                                             u7700 1C3E                                               u6820 2AC6  
                                             u6660 2306                                               u6740 24BA  
                                             u6900 1AD0                                               u7381 2A5E  
                                             u7541 13A8                                               u7461 1118  
                                             u7621 208A                                               u7701 1C3A  
                                             u6821 2AC2                                               u6661 2302  
                                             u6741 24B6                                               u6901 1ACC  
                                             u7357 2888                                               u7390 2A72  
                                             u6574 1F60                                               u7550 13C0  
                                             u7470 1152                                               u7630 20A2  
                                             u7710 1C4C                                               u6590 1DF4  
                                             u6830 2AE6                                               u6670 232C  
                                             u6750 24D0                                               u6910 1AEE  
                                             u7391 2A6E                                               u6575 1F5C  
                                             u7551 13BC                                               u7471 114E  
                                             u7631 209E                                               u7615 2056  
                                             u7711 1C48                                               u6591 1DF0  
                                             u6831 2AE2                                               u6671 2328  
                                             u6751 24CC                                               u6911 1AEA  
                                             u7375 28FA                                               u6584 1FB6  
                                             u6840 2B20                                               u7560 13DA  
                                             u7480 1162                                               u7640 20CA  
                                             u7720 1CA8                                               u6680 234A  
                                             u6760 24F4                                               u6920 1B24  
                                             u6585 1FB2                                               u6841 2B1C  
                                             u7561 13D6                                               u7481 115E  
                                             u7641 20C6                                               u7721 1CA4  
                                             u6681 2346                                               u6761 24F0  
                                             u6921 1B1E                                               u7377 28FC  
                                             u7570 1422                                               u7490 12DC  
                                             u7650 20EA                                               u7730 1CFE  
                                             u6850 2CF0                                               u6690 2366  
                                             u6770 25C2                                               u6930 1B26  
                                             u7571 141E                                               u7651 20E6  
                                             u7731 1CFA                                               u6851 2CEC  
                                             u6691 2362                                               u6771 25BE  
                                             u8427 1A2A                                               u7580 1450  
                                             u7660 20FA                                               u7740 1D48  
                                             u6860 2D0E                                               u6780 25D2  
                                             u6940 1B86                                               u7581 144C  
                                             u7661 20F6                                               u7741 1D44  
                                             u6861 2D0A                                               u8437 2174  
                                             u6781 25CE                                               u6941 1B82  
                                             u7590 148A                                               u7670 2926  
                                             u7750 1D66                                               u6870 2C6A  
                                             u6790 25F8                                               u6950 1B96  
                                             u8390 194C                                               u7591 1486  
                                             u7495 12D2                                               u7671 2922  
                                             u7751 1D62                                               u6871 2C66  
                                             u8447 218E                                               u6791 25F4  
                                             u6951 1B92                                               u8391 1948  
                                             u7680 2944                                               u7760 1D76  
                                             u6880 2C8A                                               u6960 1BA6  
                                             u7681 2940                                               u7761 1D72  
                                             u6881 2C86                                               u8457 21A4  
                                             u6961 1BA2                                               u7690 2960  
                                             u7770 1D84                                               u6970 1BB6  
                                             u6890 1A8E                                               u8467 2BEE  
                                             u7691 295C                                               u7771 1D80  
                                             u6971 1BB2                                               u6891 1A8A  
                                             u7780 1DBE                                               u6980 1BF6  
                                             u8477 2EEC                                               u7781 1DBA  
                                             u6981 1BF2                                               u7790 1DCC  
                                             u6990 2130                                               u7791 1DC8  
                                             u6991 212C                                               _TMR2 0FCC  
                          ??_application_intialize 0014                      ??_lcd_4bit_send_enable_signal 000B  
                         _RB4_InterruptHandler_LOW 0053                                               abs@a 0008  
                                             _led1 007D                                               _dbuf 0080  
                                             _main 186E                                   __end_of_CCP1_ISR 2FEC  
                                 __end_of_CCP2_ISR 2FE8                                               _prec 00A8  
                         _RB7_InterruptHandler_LOW 0047                                               fsr0h 0FEA  
                                             fsr1h 0FE2                                               indf0 0FEF  
                                             fsr2h 0FDA                                               fsr0l 0FE9  
                                             indf1 0FE7                                               indf2 0FDF  
                                             fsr1l 0FE1                                               fsr2l 0FD9  
                                             btemp 007E                             __end_of_led_initialize 29F0  
                                 __end_of_ADC_Init 25B2                                               prodh 0FF4  
                                             prodl 0FF3                                               start 000E  
                                    ?_led_turn_off 000A                                       ___param_bank 0000  
                                   _lm35_res_1_txt 00B6                              _lcd_4bit_send_command 2B10  
                           dc_motor_initialize@ret 000E                                              ??_abs 000A  
                             _gpio_pin_write_logic 1F06                     lcd_4bit_send_string_pos@column 0018  
                            lcd_4bit_intialize@lcd 0010                              lcd_4bit_intialize@ret 0013  
                                 __end_of_INT0_ISR 2FE0                                   __end_of_INT1_ISR 2FDC  
                                 __end_of_INT2_ISR 2FD8                                      _EUSART_RX_ISR 2FF2  
                                    ___fltol@sign1 0031                                      _EUSART_TX_ISR 2FE0  
                                            ?_main 0001                                    __end_of___awdiv 239E  
                                            STR_10 1011                                    __end_of___awmod 2506  
                                  __end_of___flmul 14A8                                    __end_of___fltol 211C  
                                  ___awdiv@divisor 0004                                    __end_of___lwdiv 2980  
                                            i2l466 2FEE                                              i2l562 2FEA  
                                            i2l804 2FDA                                              i2l820 2F8C  
                                            i2l567 2FE6                                              i2l831 2F72  
                                            i2l809 2FD6                                              i2l842 2F58  
                                            i2l853 2F3E                                    ___awdiv@counter 0006  
                                            i2l799 2FDE                                              _RCREG 0FAE  
                              relay_turn_off@F3067 0065                                       vfpfcnvrt@fmt 000D  
                                            _TMR0H 0FD7                                              _TMR1H 0FCF  
                                            _TMR0L 0FD6                                              _TMR1L 0FCE  
                                            _TMR3H 0FB3                                              _TMR3L 0FB2  
                                            _SPBRG 0FAF                                              _PORTA 0F80  
                                            _PORTB 0F81                                              _PORTC 0F82  
                                            _PORTD 0F83                                              _PORTE 0F84  
                                            _TRISA 0F92                                              _TRISB 0F93  
                                            _TRISC 0F94                                              _TRISD 0F95  
                                            _TRISE 0F96                                              _TXREG 0FAD  
                        lcd_4bit_set_cursor@coulmn 0012                                   __end_of_TMR0_ISR 2FC2  
                                 __end_of_TMR1_ISR 2FB6                                   __end_of_TMR2_ISR 2FCA  
                                            _adc_1 00DB                                   __end_of_TMR3_ISR 2FAA  
                                            _lcd_1 00E2                                              _flags 0063  
                                            _fputc 25B2                                              _width 00A6  
                                            _putch 2FF0                                              tablat 0FF5  
                                            ttemp5 007F                                              ttemp6 0082  
                                            ttemp7 0086                                              status 0FD8  
                                            wtemp8 007F                                    __end_of_sprintf 2DF4  
                                  ?_led_initialize 0009                                     ??_led_turn_off 000B  
                   ?_gpio_pin_direction_initialize 0002                                    __initialization 29F0  
                                     __end_of_main 1A6A                              ?_gpio_pin_write_logic 0002  
                                        ??_ADC_ISR 0001                                     ?_EUSART_RX_ISR 0001  
                                   ?_EUSART_TX_ISR 0001                                      _lat_registers 00C7  
                      __end_of_dc_motor_initialize 2E88                                             ??_main 0037  
                                    __activetblptr 0003                              _TMR3_InterruptHandler 00B2  
                                 led_turn_on@F3122 006A                                          ??_RB4_ISR 0001  
                                        ??_RB5_ISR 0001                                          ??_RB6_ISR 0001  
                                        ??_RB7_ISR 0001                         _EUSART_OverrunErrorHandler 00AA  
                                           ?_fputc 0002                                             _ADRESH 0FC4  
                                           _ADRESL 0FC3                                             _CCPR1L 0FBE  
                                           _CCPR2L 0FBB                                   ___awdiv@dividend 0002  
                                           ?_putch 0001                                _Air_Conditioning_On 2BBC  
                                           i2l1030 154E                                             i2l1200 2FC0  
                                           i2l1040 16A2                                             i2l1032 1592  
                                           i2l1024 14CA                                             i2l1050 178A  
                                           i2l1042 16E6                                             i2l1034 15D6  
                                           i2l1026 14EA                                             i2l1132 2FD2  
                                           i2l1060 182A                                             i2l1052 17AA  
                                           i2l1044 172A                                             i2l1036 161A  
                                           i2l1028 150A                                             i2l1062 184A  
                                           i2l1054 17CA                                             i2l1046 174A  
                                           i2l1038 165E                                             i2l1056 17EA  
                                           i2l1048 176A                                             i2l1065 186A  
                                           i2l1322 2FC8                                             i2l1058 180A  
                                           i2l3103 2F8C                                             i2l3111 2F5E  
                                           i2l3201 2FAA                                             i2l1507 2FF2  
                                           i2l3131 2F58                                             i2l3123 2F42  
                                           i2l3203 2FAC                                             i2l3053 2FE8  
                                           i2l3117 2F72                                             i2l3109 2F5C  
                                           i2l3125 2F44                                             i2l1269 2FB4  
                                           i2l3205 2FB0                                             i2l3049 2FEC  
                                           i2l3241 2FD0                                             i2l3145 2F3E  
                                           i2l3137 2F28                                             i2l1377 2FA8  
                                           i2l3059 2FE4                                             i2l3083 2FD8  
                                           i2l3139 2F2A                                             i2l3077 2FDC  
                                           i2l3095 2F76                                             i2l3089 2FD4  
                                           i2l3097 2F78                                             i2l3193 2FB6  
                                           i2l1498 2FE2                                             i2l3195 2FB8  
                                           i2l3197 2FBC                                             i2l5941 2F9E  
                                           i2l6901 1636                                             i2l5935 2FC2  
                                           i2l5943 2FA0                                             i2l6911 167A  
                                           i2l6903 1644                                             i2l5937 2FC4  
                                           i2l5945 2FA4                                             i2l6921 16BE  
                                           i2l6913 1688                                             i2l6905 1654  
                                           i2l5955 2FF2                                             i2l6931 1702  
                                           i2l6923 16CC                                             i2l6915 1698  
                                           i2l6907 1658                                             i2l6851 14D8  
                                           i2l5949 2FE0                                             i2l6941 1746  
                                           i2l6933 1710                                             i2l6925 16DC  
                                           i2l6917 169C                                             i2l6909 166C  
                                           i2l6861 1526                                             i2l6853 14E6  
                                           i2l6845 14AA                                             i2l6951 1798  
                                           i2l6943 1758                                             i2l6935 1720  
                                           i2l6927 16E0                                             i2l6919 16B0  
                                           i2l6871 156A                                             i2l6863 1534  
                                           i2l6855 14F8                                             i2l6847 14B8  
                                           i2l6961 17E6                                             i2l6953 17A6  
                                           i2l6945 1766                                             i2l6937 1724  
                                           i2l6929 16F4                                             i2l6881 15AE  
                                           i2l6873 1578                                             i2l6865 1544  
                                           i2l6857 1506                                             i2l6849 14C6  
                                           i2l6971 1838                                             i2l6963 17F8  
                                           i2l6955 17B8                                             i2l6947 1778  
                                           i2l6939 1738                                             i2l6891 15F2  
                                           i2l6883 15BC                                             i2l6875 1588  
                                           i2l6867 1548                                             i2l6859 1518  
                                           i2l6973 1846                                             i2l6965 1806  
                                           i2l6957 17C6                                             i2l6949 1786  
                                           i2l6893 1600                                             i2l6885 15CC  
                                           i2l6877 158C                                             i2l6869 155C  
                                           i2l6975 1858                                             i2l6967 1818  
                                           i2l6959 17D8                                             i2l6895 1610  
                                           i2l6887 15D0                                             i2l6879 15A0  
                                           i2l6977 1866                                             i2l6969 1826  
                                           i2l6897 1614                                             i2l6889 15E4  
                                           i2l6899 1628                                      vfpfcnvrt@done 0010  
              convert_uint16_to_string@Temp_String 002F                                             _SPBRGH 0FB0  
                                           _SSPBUF 0FC9                  ADC_GetConversion_Blocking@channel 000A  
                                 __end_of___xxtofl 1DE0                   __end_of_lcd_4bit_send_string_pos 2824  
                      __end_of_dc_motor_move_right 2D88                             ?_lcd_4bit_send_command 000D  
                                     vfprintf@cfmt 001A                                          ??___awdiv 0006  
                                        ??___awmod 0006                                          ??___flmul 0018  
                                        ??___fltol 002D                                          ??___lwdiv 0006  
                             ?_Air_Conditioning_On 0001                                             _memset 2E28  
                                           clear_0 2A36                                             clear_1 2A42  
                            led_initialize@pin_obj 000C                                   ___awdiv@quotient 0008  
                                  ___awmod@divisor 0004                                             isa$std 0001  
                                  ___awmod@counter 0006                                             fputc@c 0002  
                                        ?_CCP1_ISR 0001                                       __pdataCOMRAM 006E  
                                        ?_CCP2_ISR 0001                                          ?_ADC_Init 0005  
                                     __mediumconst 0000                                             tblptrh 0FF7  
                                           tblptrl 0FF6                                             tblptru 0FF8  
                                           putch@c 0001                                   __end_of_vfprintf 2CD8  
                                        ??_sprintf 001F                       __end_of_select_result_format 2D18  
                                     ___xxtofl@arg 000C                                       ___xxtofl@exp 000B  
                                     ___xxtofl@val 0002                                         __accesstop 0080  
                          __end_of__initialization 2A48                                          ?_INT0_ISR 0001  
                                        ?_INT1_ISR 0001                                          ?_INT2_ISR 0001  
                                       _lm35_res_1 006C                                      ___rparam_used 0001  
                                       ___fltol@f1 0029                                   ??_lcd_send_4bits 000C  
                                led_initialize@led 0009                                  led_initialize@ret 000B  
                          _lcd_4bit_send_char_data 2C0A                                  RB5_ISR@RB5_Source 0001  
                           ??_gpio_pin_write_logic 0004                                     __pcstackCOMRAM 0001  
                                     __pidataBANK0 2E88                                          ?_TMR0_ISR 0001  
                                  ??_EUSART_RX_ISR 0001                                          ?_TMR1_ISR 0001  
                                        ?_TMR2_ISR 0001                                          ?_TMR3_ISR 0001  
                                  ??_EUSART_TX_ISR 0001                       ??_ADC_GetConversion_Blocking 000C  
                            ??_Air_Conditioning_On 001C                                      __end_of_fputc 265C  
                                    __end_of_putch 2FF2                           lcd_4bit_send_command@lcd 000D  
                         lcd_4bit_send_command@ret 000F           gpio_pin_direction_initialize@_pin_config 0002  
                          _ADC_GetConversionResult 239E                                         ??_CCP1_ISR 0001  
                                       ??_CCP2_ISR 0001                                         ??_ADC_Init 0006  
                             __end_of_led_turn_off 290C                               ADC_SelectChannel@ret 0008  
                                          ??_fputc 0005                                         _dc_motor_1 007B  
                                       _dc_motor_2 0079                                            ??_putch 0002  
                           ADC_StartConversion@ret 0003                                         __pbssBANK0 0080  
                            _INT0_InterruptHandler 005B                                         ??_INT0_ISR 0001  
                                       ??_INT1_ISR 0001                                         ??_INT2_ISR 0001  
                       ADC_GetConversionResult@ret 0007                      __end_of_application_intialize 2FD0  
                                       ??_TMR0_ISR 0001                                         ??_TMR1_ISR 0001  
                                       ??_TMR2_ISR 0001                                         ??_TMR3_ISR 0001  
                                led_turn_off@F3127 0069                        convert_uint16_to_string@ret 0035  
                                          _ADC_ISR 2FEC                        convert_uint16_to_string@str 002E  
                                          ?_memset 0002                     ADC_GetConversion_Blocking@_adc 0009  
                                RB7_ISR@RB7_Source 0001                                            _RB4_ISR 2F74  
                                          _RB5_ISR 2F5A                                            _RB6_ISR 2F40  
                                          _RB7_ISR 2F26                                          ?___xxtofl 0002  
                        ?_lcd_4bit_send_string_pos 0016                          _RB6_InterruptHandler_HIGH 004D  
                             led_turn_toggle@F3132 0068                                            i2u90_40 2F88  
                                          i2u90_41 2F84                                            i2u91_40 2F6E  
                                          i2u91_41 2F6A                                            i2u92_40 2F54  
                                          i2u92_41 2F50                                            i2u93_40 2F3A  
                                          i2u93_41 2F36                                   ??_led_initialize 000A  
                                       _btn_values 1001                                     _tris_registers 00D1  
                         _RB6_InterruptHandler_LOW 004B                          ??_lcd_4bit_send_char_data 000F  
                                    ?_MSSP_SPI_ISR 0001                               _ADC_InterruptHandler 0061  
                                          __Hparam 0000                                       ADC_Init@_adc 0005  
                                          __Lparam 0000                                _ecu_layer_intialize 2EB4  
                             _SPI_InterruptHandler 0045                                _gpio_pin_initialize 2AB2  
                                          ___awdiv 22DA                                            ___awmod 2456  
                                          ___flmul 107E                                            ___fltol 2016  
                                          ___lwdiv 290C                                          ?_vfprintf 0017  
                                     __psmallconst 1000                          ??_ADC_GetConversionResult 0004  
                                          __pcinit 29F0                               _select_result_format 2CD8  
                                          __ramtop 1000                                            __ptext0 186E  
                                          __ptext1 2824                                            __ptext2 2898  
                                          __ptext3 2D18                                            __ptext4 2D50  
                                          __ptext5 265C                                            __ptext6 2DC0  
                                          __ptext7 2C98                                            __ptext8 1A6A  
                                          __ptext9 25B2                                          _T0CONbits 0FD5  
                                        _T1CONbits 0FCD                    ??_gpio_pin_direction_initialize 0003  
                         _convert_uint16_to_string 265C                                          _T2CONbits 0FCA  
                                       ??___xxtofl 0006                                          _T3CONbits 0FB1  
                                 ___awmod@dividend 0002                               ?_ecu_layer_intialize 0001  
                             ?_gpio_pin_initialize 000A                                            _sprintf 2DC0  
                                          main@ret 00E8              lcd_4bit_intialize@l_data_pins_counter 0012  
                                   __pintcode_body 14A8                               end_of_initialization 2A48  
                                lcd_send_4bits@lcd 000A                                  lcd_send_4bits@ret 000C  
                         select_result_format@_adc 0002        ADC_GetConversion_Blocking@conversion_result 000B  
                                          fputc@fp 0004                                            memset@c 0003  
                                          memset@n 0005                                            memset@p 0007  
                                          int_func 14A8                                     ??_MSSP_SPI_ISR 0001  
                       __end_of_lcd_4bit_intialize 2202                            ??_lcd_4bit_send_command 000F  
                              led_turn_off@pin_obj 000D                                      _dc_motor_stop 2D18  
                                __end_of_vfpfcnvrt 1C2C                                          _RCSTAbits 0FAB  
               __end_of_ADC_GetConversion_Blocking 2AB2                         _ADC_GetConversion_Blocking 2A52  
                                          postdec1 0FE5                                            postdec2 0FDD  
                                          postinc0 0FEE                                            postinc1 0FE6  
                                          postinc2 0FDE                                   vfpfcnvrt@convarg 0012  
                                       ??_vfprintf 001A                              ?_select_result_format 0002  
                  __end_of_lcd_4bit_send_char_data 2C52                              _INT1_InterruptHandler 0059  
                                        _PORTBbits 0F81                                   _InterruptManager 0008  
                       lcd_4bit_send_char_data@lcd 000D                              ??_ecu_layer_intialize 0014  
                                    ___xxtofl@sign 000A                                          _TRISCbits 0F94  
                            ??_gpio_pin_initialize 000B                                _ADC_StartConversion 2F04  
                                      ___flmul@grs 001E                                        _CCP1CONbits 0FBD  
                                      _CCP2CONbits 0FBA                                          _TXSTAbits 0FAC  
                                   ?_dc_motor_stop 000A                                       _led_turn_off 2898  
                              _lcd_4bit_set_cursor 26F6                                 relay_turn_on@F3062 0066  
                             ?_ADC_StartConversion 0002                        lcd_4bit_send_string_pos@lcd 0016  
                      lcd_4bit_send_string_pos@ret 001B                        lcd_4bit_send_string_pos@row 0017  
                      lcd_4bit_send_string_pos@str 0019                      convert_uint16_to_string@F3213 00A0  
                                      vfpfcnvrt@ap 000E                                        vfpfcnvrt@cp 0011  
                                      vfpfcnvrt@fp 000C                                        _BAUDCONbits 0FB8  
                                    __pidataCOMRAM 2F8E            adc_input_channel_port_configure@channel 0004  
                                   _timer0_preload 0041                                     __end_of_memset 2E58  
                                   _timer1_preload 003D                                     _timer2_preload 0064  
                     ?_configure_voltage_reference 0002                                start_initialization 29F0  
                                    ??_led_turn_on 000B                                     _timer3_preload 003B  
                     ?_lcd_4bit_send_enable_signal 000A                               ?_lcd_4bit_set_cursor 0010  
                    convert_uint16_to_string@value 002C                                        __end_of_abs 2E28  
 MSSP_SPI_Slave_Mode_GPIO_PIN_Configurations@F3130 006E  MSSP_SPI_Msster_Mode_GPIO_PIN_Configurations@F3115 0074  
 MSSP_SPI_Slave_Mode_GPIO_PIN_Configurations@F3124 0071  MSSP_SPI_Msster_Mode_GPIO_PIN_Configurations@F3117 0073  
 MSSP_SPI_Slave_Mode_GPIO_PIN_Configurations@F3126 0070  MSSP_SPI_Msster_Mode_GPIO_PIN_Configurations@F3119 0072  
 MSSP_SPI_Slave_Mode_GPIO_PIN_Configurations@F3128 006F              __end_of_gpio_pin_direction_initialize 1F06  
                    _gpio_pin_direction_initialize 1DE0           ADC_GetConversionResult@conversion_result 0003  
                           dc_motor_stop@_dc_motor 000A                          _EUSART_RxInterruptHandler 00AE  
                                  led_turn_off@led 000A                                    led_turn_off@ret 000C  
                            ADC_SelectChannel@_adc 0005                        __end_of_Air_Conditioning_On 2C0A  
                            ??_ADC_StartConversion 0003                                        vfprintf@fmt 0018  
                       _EUSART_FramingErrorHandler 00AC                             ??_select_result_format 0003  
                                      __pdataBANK0 00BD                                           ?_ADC_ISR 0001  
                                         ??_memset 0007                              __end_of_EUSART_RX_ISR 2FF4  
                            __end_of_EUSART_TX_ISR 2FE4                                         memset@dest 0002  
                     lcd_4bit_send_command@command 000E                                   dc_motor_stop@ret 000B  
                          ADC_StartConversion@_adc 0002                               __end_of_MSSP_SPI_ISR 2FD4  
                                         ?_RB4_ISR 0001                                           ?_RB5_ISR 0001  
                                         ?_RB6_ISR 0001                                           ?_RB7_ISR 0001  
                                        ___flmul@a 0014                                          ___flmul@b 0010  
                                      __pbssCOMRAM 0039                              ??_lcd_4bit_set_cursor 0013  
                                    __pcstackBANK0 00E8                      ??_configure_voltage_reference 0003  
                      ADC_GetConversionResult@_adc 0002                                __end_of_led_turn_on 2898  
                            _INT2_InterruptHandler 0057                                    ??_dc_motor_stop 000B  
                            _TMR0_InterruptHandler 0043                                   ___lwdiv@dividend 0002  
                            _application_intialize 2FCA                                          __pintcode 0008  
         __end_of_adc_input_channel_port_configure 22DA                 ??_adc_input_channel_port_configure 0002  
                ?_adc_input_channel_port_configure 0001                   _adc_input_channel_port_configure 2202  
                                _ADC_SelectChannel 2D88                         ??_convert_uint16_to_string 002F  
                  gpio_pin_write_logic@_pin_config 0002                                           ?___awdiv 0002  
                                         ?___awmod 0002                                           ?___flmul 0010  
                                         ?___fltol 0029                                           ?___lwdiv 0002  
                    ADC_GetConversion_Blocking@ret 000C                                 ?_ADC_SelectChannel 0005  
                        gpio_pin_write_logic@logic 0003                                        __smallconst 1000  
                        _RB4_InterruptHandler_HIGH 0055                                           _CCP1_ISR 2FE8  
                                         _CCP2_ISR 2FE4                                ??_ADC_SelectChannel 0007  
                                         _ADC_Init 2506                          _RB7_InterruptHandler_HIGH 0049  
                                      ADC_Init@ret 0007                                   ___lwdiv@quotient 0007  
                                         ?_sprintf 001B                           _RB5_InterruptHandler_LOW 004F  
                                         _INT0_ISR 2FDC                                           _INT1_ISR 2FD8  
                                         _INT2_ISR 2FD4                                           _RB4_Flag 0078  
                                         _RB5_Flag 0077                                           _RB6_Flag 0076  
                                         _RB7_Flag 0075                                  RB4_ISR@RB4_Source 0001  
                         __end_of_InterruptManager 186E                                           _PIE1bits 0F9D  
                                         _PIE2bits 0FA0                          __end_of_ADC_SelectChannel 2DC0  
                    __end_of_lcd_4bit_send_command 2B6C                                           i2u600_40 16BE  
                                         i2u600_41 16BA                                           i2u601_40 16CC  
                                         i2u601_41 16C8                                           _PIR1bits 0F9E  
                                         i2u610_40 1766                                           i2u602_40 16DC  
                                         i2u610_41 1762                                           i2u602_41 16D8  
                                         i2u611_40 1778                                           i2u603_40 16F4  
                                         i2u611_41 1774                                           i2u603_41 16F0  
                                         _PIR2bits 0FA1                                           i2u620_40 1806  
                                         i2u612_40 1786                                           i2u604_40 1702  
                                         i2u620_41 1802                                           i2u612_41 1782  
                                         i2u604_41 16FE                                           i2u621_40 1818  
                                         i2u613_40 1798                                           i2u605_40 1710  
                                         i2u621_41 1814                                           i2u613_41 1794  
                                         i2u605_41 170C                                           i2u622_40 1826  
                                         i2u614_40 17A6                                           i2u606_40 1720  
                                         i2u622_41 1822                                           i2u614_41 17A2  
                                         i2u606_41 171C                                 led_turn_on@pin_obj 000D  
                                         i2u623_40 1838                                           i2u615_40 17B8  
                                         i2u607_40 1738                                           i2u623_41 1834  
                                         i2u615_41 17B4                                           i2u607_41 1734  
                                         i2u624_40 1846                                           i2u616_40 17C6  
                                         i2u608_40 1746                                           i2u624_41 1842  
                                         i2u616_41 17C2                                           i2u608_41 1742  
                                         i2u625_40 1858                                           i2u617_40 17D8  
                                         i2u609_40 1758                                           i2u625_41 1854  
                                         i2u617_41 17D4                                           i2u609_41 1754  
                                         i2u626_40 1866                                           i2u618_40 17E6  
                                         i2u570_40 14C6                                           i2u626_41 1862  
                                         i2u618_41 17E2                                           i2u570_41 14C2  
                                         i2u619_40 17F8                                           i2u571_40 14D8  
                                         i2u619_41 17F4                                           i2u571_41 14D4  
                                         i2u580_40 156A                                           i2u572_40 14E6  
                                         i2u580_41 1566                                           i2u572_41 14E2  
                                         i2u581_40 1578                                           i2u573_40 14F8  
                                         i2u581_41 1574                                           i2u573_41 14F4  
                                         i2u590_40 1610                                           i2u582_40 1588  
                                         i2u574_40 1506                                           i2u590_41 160C  
                                         i2u582_41 1584                                           i2u574_41 1502  
                                         i2u591_40 1628                                           i2u583_40 15A0  
                                         i2u575_40 1518                                           i2u591_41 1624  
                                         i2u583_41 159C                                           i2u575_41 1514  
                                         i2u592_40 1636                                           i2u584_40 15AE  
                                         i2u576_40 1526                                           i2u592_41 1632  
                                         i2u584_41 15AA                                           i2u576_41 1522  
                                         i2u593_40 1644                                           i2u585_40 15BC  
                                         i2u577_40 1534                                           i2u569_40 14B8  
                                         i2u593_41 1640                                           i2u585_41 15B8  
                                         i2u577_41 1530                                           i2u569_41 14B4  
                                         i2u594_40 1654                                           i2u586_40 15CC  
                                         i2u578_40 1544                                           i2u594_41 1650  
                                         i2u586_41 15C8                                           i2u578_41 1540  
                                         i2u595_40 166C                                           i2u587_40 15E4  
                                         i2u579_40 155C                                           i2u595_41 1668  
                                         i2u587_41 15E0                                           i2u579_41 1558  
                                         i2u596_40 167A                                           i2u588_40 15F2  
                                         i2u596_41 1676                                           i2u588_41 15EE  
                                         i2u597_40 1688                                           i2u589_40 1600  
                                         i2u597_41 1684                                           i2u589_41 15FC  
                                         i2u598_40 1698                                           i2u598_41 1694  
                                         i2u599_40 16B0                                           i2u599_41 16AC  
                              _dc_motor_initialize 2E58                       dc_motor_initialize@_dc_motor 000D  
                      ?_ADC_GetConversion_Blocking 0009                   gpio_pin_direction_initialize@ret 0008  
                                         _TMR0_ISR 2FB6                                           _TMR1_ISR 2FAA  
                                         _TMR2_ISR 2FC2                                           _TMR3_ISR 2F9E  
                               _lcd_4bit_intialize 211C                                          _vfpfcnvrt 1A6A  
                         _lcd_4bit_send_string_pos 278E                                         _ADCON0bits 0FC2  
                                       _ADCON1bits 0FC1                                         _ADCON2bits 0FC0  
                         ADC_SelectChannel@channel 0006                                ?_lcd_4bit_intialize 0010  
                           gpio_pin_initialize@ret 000C                                        _led_turn_on 2824  
                             ?_dc_motor_initialize 000D                                         vfpfcnvrt@c 0016  
                          gpio_pin_write_logic@ret 0009                                        _INTCON2bits 0FF1  
                                      _INTCON3bits 0FF0                           ?_lcd_4bit_send_char_data 000D  
                                        copy_data0 2A04                                          copy_data1 2A24  
                            _lm35_res_1_Celsius_mv 0039                                _dc_motor_move_right 2D50  
                           ?_application_intialize 0001                               ??_lcd_4bit_intialize 0011  
                                   led_turn_on@led 000A                                     led_turn_on@ret 000C  
                                         __Hrparam 0000                                         vfprintf@ap 0019  
                                         __Lrparam 0000                                         vfprintf@fp 0017  
                         ?_ADC_GetConversionResult 0002                                  RB6_ISR@RB6_Source 0001  
                            _CCP1_InterruptHandler 005F                             lcd_4bit_set_cursor@lcd 0010  
                      __end_of_ecu_layer_intialize 2EDE                             lcd_4bit_set_cursor@ret 0015  
                                       ?_vfpfcnvrt 000C                             lcd_4bit_set_cursor@row 0011  
                             ?_dc_motor_move_right 000A                        __end_of_gpio_pin_initialize 2B10  
                               __end_of_btn_values 1011                     gpio_pin_initialize@_pin_config 000A  
                            _TMR1_InterruptHandler 003F                                         sprintf@fmt 001C  
                                         ___xxtofl 1C2C                              ??_dc_motor_initialize 000E  
                                  ___lwdiv@divisor 0004                                    ___lwdiv@counter 0006  
                                         __ptext10 2FF0                                           __ptext11 2DF4  
                                         __ptext20 2AB2                                           __ptext12 2456  
                                         __ptext21 1DE0                                           __ptext13 22DA  
                                         __ptext30 278E                                           __ptext22 2506  
                                         __ptext14 2E28                                           __ptext31 26F6  
                                         __ptext23 2CD8                                           __ptext15 2FCA  
                                         __ptext40 2202                                           __ptext32 2B10  
                                         __ptext24 2C52                                           __ptext16 2EB4  
                                         __ptext41 239E                                           __ptext33 2C0A  
                                         __ptext25 1C2C                                           __ptext17 2980  
                                         __ptext50 2F74                                           __ptext34 2B6C  
                                         __ptext26 290C                                           __ptext18 211C  
                                         __ptext51 2FD0                                           __ptext43 2F9E  
                                         __ptext35 2EDE                                           __ptext27 2016  
                                         __ptext19 2E58                                           __ptext52 2FD4  
                                         __ptext44 2FC2                                           __ptext36 1F06  
                                         __ptext28 107E                                           __ptext53 2FD8  
                                         __ptext45 2FAA                                           __ptext37 2A52  
                                         __ptext29 2BBC                                           __ptext54 2FDC  
                                         __ptext46 2FB6                                           __ptext38 2F04  
                                         __ptext55 2FE0                                           __ptext47 2F26  
                                         __ptext39 2D88                                           __ptext56 2FF2  
                                         __ptext48 2F40                                           __ptext57 2FE4  
                                         __ptext49 2F5A                                           __ptext58 2FE8  
                                         __ptext59 2FEC                    configure_voltage_reference@_adc 0002  
                           dc_motor_move_right@ret 000B                                       _MSSP_SPI_ISR 2FD0  
              convert_uint16_to_string@DataCounter 0036                   __end_of_convert_uint16_to_string 26F6  
                                         isa$xinst 0000                                           int$flags 007E  
                                         _vfprintf 2C98                              ??_dc_motor_move_right 000B  
                                   _lcd_send_4bits 2B6C                                         _INTCONbits 0FF2  
                     __end_of_gpio_pin_write_logic 2016                                           intlevel2 0000  
                                        sprintf@ap 001F                        __end_of_ADC_StartConversion 2F26  
                   lcd_4bit_send_enable_signal@lcd 000A                     lcd_4bit_send_enable_signal@ret 000B  
                        _EUSART_TxInterruptHandler 00B0                    __end_of_ADC_GetConversionResult 2456  
                           __end_of_lcd_send_4bits 2BBC                       dc_motor_move_right@_dc_motor 000A  
                                      ??_vfpfcnvrt 000F                        __end_of_lcd_4bit_set_cursor 278E  
                                         sprintf@f 0020                                           sprintf@s 001B  
                                   _port_registers 00BD                                        _SSPCON1bits 0FC6  
                            _CCP2_InterruptHandler 005D                        lcd_4bit_send_char_data@data 000E  
                            _TMR2_InterruptHandler 00B4                                  ?_InterruptManager 0001  
                            __end_of_dc_motor_stop 2D50                         ??_lcd_4bit_send_string_pos 001B  
                                   _led_initialize 2980  
